(lp0
(lp1
S'Scan'
p2
aS'Type'
p3
aS'BCID'
p4
aS'sigma'
p5
aS'sigmaErr'
p6
aS'sigmaRatio'
p7
aS'sigmaRatio_Err'
p8
aS'Amp'
p9
aS'AmpErr'
p10
aS'Frac'
p11
aS'FracErr'
p12
aS'Mean'
p13
aS'MeanErr'
p14
aS'Const'
p15
aS'ConstErr'
p16
aS'CapSigma'
p17
aS'CapSigmaErr'
p18
aS'peak'
p19
aS'peakErr'
p20
aS'area'
p21
aS'areaErr'
p22
aS'fitStatus'
p23
aS'chi2'
p24
aS'ndof'
p25
aa(lp26
S'1'
p27
aS'X'
p28
ag27
aF0.1362940191134823
aF4.4860409408902244e-08
aF1.0001765159898501
aF7.712199844772107
aF0.014328936139839116
aF7.2191841220259345e-09
aF2.5135449277513544e-13
aF0.2237297182840279
aF-0.005800976026034382
aF7.379193619883803e-08
aF9.561999680884892e-06
aF2.1714616216250704e-10
aF0.1362940191134823
aF4.4860409408902244e-08
aF0.014328936139839116
aF7.2191841220259345e-09
aF0.00489531541794457
aF2.9460249368245697e-09
aI0
aF100.19391816827074
aI19
aa(lp29
g27
ag28
aS'51'
p30
aF0.12736519699370735
aF0.00016101812551383524
aF1.401057030408217
aF0.08591653043748337
aF0.017836725973567218
aF2.956973672915697e-05
aF0.039355801152929804
aF0.01917269710940825
aF-0.003864116464751503
aF0.00016832116704700929
aF7.000300340842536e-06
aF8.473351232191062e-07
aF0.12736519699370735
aF0.00016101812551383524
aF0.017836725973567218
aF2.956973672915697e-05
aF0.00569450326262788
aF1.187213826034519e-05
aI0
aF81.59100222337065
aI19
aa(lp31
g27
ag28
aS'91'
p32
aF0.12933841546359584
aF0.00021895161853151352
aF1.3460122305699398
aF0.061027453039892876
aF0.017256177923018024
aF3.714408546223735e-05
aF0.08984720423498382
aF0.039545496936111424
aF-0.003784327912969973
aF0.0002128400212404381
aF7.820987719148187e-06
aF1.157063533901992e-06
aF0.12933841546359584
aF0.00021895161853151352
aF0.017256177923018024
aF3.714408546223735e-05
aF0.005594510331858573
aF1.5320243739663658e-05
aI0
aF55.96683089765964
aI19
aa(lp33
g27
ag28
aS'131'
p34
aF0.12906165191662283
aF0.0002158477899679114
aF1.345768451797028
aF0.04589123057913591
aF0.01743711916193967
aF3.736112339540118e-05
aF0.11248502031785862
aF0.039076483781114585
aF-0.003656432525144611
aF0.00021892030457379655
aF8.582071581691997e-06
aF1.189662440392869e-06
aF0.12906165191662283
aF0.0002158477899679114
aF0.01743711916193967
aF3.736112339540118e-05
aF0.005641075198754115
aF1.5332806354757815e-05
aI0
aF41.81227972031119
aI19
aa(lp35
g27
ag28
aS'171'
p36
aF0.12919957872366905
aF0.00020486065412136795
aF1.3228340743243698
aF0.034589746111887254
aF0.017273877512678868
aF3.8618403782256575e-05
aF0.15878160028449162
aF0.05003891140877639
aF-0.0036599325891159655
aF0.00018990709018614226
aF8.842492913274658e-06
aF1.1257225003002969e-06
aF0.12919957872366905
aF0.00020486065412136795
aF0.017273877512678868
aF3.8618403782256575e-05
aF0.00559423707940071
aF1.5333025113798662e-05
aI0
aF37.15260282974176
aI19
aa(lp37
g27
ag28
aS'211'
p38
aF0.12801217588723532
aF0.00016178288531985547
aF1.434696040595002
aF0.10194640248463605
aF0.017653308039057364
aF3.080641610710838e-05
aF0.031084708406252548
aF0.015827716505875722
aF-0.00346076898319304
aF0.00018173890661527634
aF6.718596180593783e-06
aF1.0924757096603122e-06
aF0.12801217588723532
aF0.00016178288531985547
aF0.017653308039057364
aF3.080641610710838e-05
aF0.005664574763580864
aF1.2205170754414927e-05
aI0
aF49.80481157407256
aI19
aa(lp39
g27
ag28
aS'251'
p40
aF0.12729426464361573
aF0.00017813338681538248
aF1.4510264169105838
aF0.06192236350610669
aF0.017814093691218554
aF3.32562580138869e-05
aF0.05659594263852069
aF0.01775856997372255
aF-0.0036804616678282435
aF0.00016727654920145862
aF5.6266596246412615e-06
aF1.2910672726879069e-06
aF0.12729426464361573
aF0.00017813338681538248
aF0.017814093691218554
aF3.32562580138869e-05
aF0.0056841103791614965
aF1.3261657311750772e-05
aI0
aF48.16110332086682
aI19
aa(lp41
g27
ag28
aS'291'
p42
aF0.12742906686063146
aF0.00017501619682747834
aF1.397865562050065
aF0.06661345944108821
aF0.017900692092015454
aF3.086238464536199e-05
aF0.06429510516231746
aF0.02560696775432389
aF-0.0036147820290261773
aF0.00017490278863129745
aF7.870905229384606e-06
aF1.038098189576342e-06
aF0.12742906686063146
aF0.00017501619682747834
aF0.017900692092015454
aF3.086238464536199e-05
aF0.005717790772012698
aF1.260357304472925e-05
aI0
aF36.332183468369706
aI19
aa(lp43
g27
ag28
aS'771'
p44
aF0.12643170220086136
aF0.00016480177893646723
aF1.3902394175393762
aF0.07791212244085977
aF0.017978027058730778
aF2.9020742142352174e-05
aF0.04891798979468959
aF0.022872153925314
aF-0.003571685029690822
aF0.00016652096375941258
aF6.561977938274177e-06
aF7.829511725343519e-07
aF0.12643170220086136
aF0.00016480177893646723
aF0.017978027058730778
aF2.9020742142352174e-05
aF0.005697547427064625
aF1.1821310456277488e-05
aI0
aF45.4091775140755
aI19
aa(lp45
g27
ag28
aS'811'
p46
aF0.12711981009755963
aF0.00016365876048723982
aF1.258270090344047
aF0.02604143982209073
aF0.01766564464075865
aF2.7922315538527268e-05
aF0.19366925978035854
aF0.06539954785623073
aF-0.0037650402875936293
aF0.00016644845080072317
aF7.3522062731257165e-06
aF6.780513847615133e-07
aF0.12711981009755963
aF0.00016365876048723982
aF0.01766564464075865
aF2.7922315538527268e-05
aF0.005629018287368637
aF1.1475179001503559e-05
aI0
aF46.97858603567132
aI19
aa(lp47
g27
ag28
aS'851'
p48
aF0.1273280264099989
aF0.00018942385168437752
aF1.3779984580608406
aF0.040196034110401624
aF0.0176858499448801
aF3.438902249090943e-05
aF0.10720328631416376
aF0.030071851290729812
aF-0.003718246480186413
aF0.00018387887824072193
aF6.21672474321322e-06
aF1.0195877812452236e-06
aF0.1273280264099989
aF0.00018942385168437752
aF0.0176858499448801
aF3.438902249090943e-05
aF0.005644687162762014
aF1.3819733100398962e-05
aI0
aF33.70874424161722
aI19
aa(lp49
g27
ag28
aS'891'
p50
aF0.12705116398153174
aF0.00018174931155610525
aF1.3168784258532813
aF0.039426950174614506
aF0.01789534149509958
aF3.206435971254626e-05
aF0.12237460870538819
aF0.04165209999761266
aF-0.004405693201851951
aF0.00018890264530106482
aF7.853160658766178e-06
aF8.80328499971994e-07
aF0.12705116398153174
aF0.00018174931155610525
aF0.01789534149509958
aF3.206435971254626e-05
aF0.005699130121058086
aF1.3066843640799477e-05
aI0
aF54.669766179923116
aI19
aa(lp51
g27
ag28
aS'931'
p52
aF0.12602154234980525
aF0.0001746773152231494
aF1.5434003964379013
aF0.131290401750923
aF0.01815654977437481
aF3.229690635780241e-05
aF0.018721645083126404
aF0.0095629740273864
aF-0.0036322244147159338
aF0.00018751804493646865
aF6.2262981248562e-06
aF1.1656585342384451e-06
aF0.12602154234980525
aF0.0001746773152231494
aF0.01815654977437481
aF3.229690635780241e-05
aF0.005735457279723076
aF1.2933913277440794e-05
aI0
aF48.094170971215675
aI19
aa(lp53
g27
ag28
aS'971'
p54
aF0.12587698286029939
aF0.00019299693428527558
aF0.7612097739000308
aF0.020505299299894086
aF0.018135231397371564
aF4.263760401882269e-05
aF0.8718171441026635
aF0.03961581177694029
aF-0.0035788715709269914
aF0.00017319290746065135
aF7.979227452936666e-06
aF7.987430833689135e-07
aF0.12587698286029939
aF0.00019299693428527558
aF0.018135231397371564
aF4.263760401882269e-05
aF0.005722151609193804
aF1.6061208723283517e-05
aI0
aF46.43526161767491
aI19
aa(lp55
g27
ag28
aS'1011'
p56
aF0.12654647039217584
aF0.00019237908587601375
aF1.3911658583883366
aF0.05515843943021437
aF0.018000617072868708
aF3.607658577393924e-05
aF0.07629721245818838
aF0.026006959864482954
aF-0.0033229217110959004
aF0.00018229886519083874
aF6.107519707365672e-06
aF1.2162664151244007e-06
aF0.12654647039217584
aF0.00019237908587601375
aF0.018000617072868708
aF3.607658577393924e-05
aF0.00570988503189118
aF1.4363334994961742e-05
aI0
aF30.016741972534575
aI19
aa(lp57
g27
ag28
aS'1631'
p58
aF0.12472922661634976
aF0.00016387598666905151
aF1.5382757040665218
aF0.12369089775140041
aF0.018618182847804723
aF3.422693292128888e-05
aF0.02139564054807458
aF0.01001236419070492
aF-0.0037554350964804097
aF0.0001662885845667636
aF6.537088595631735e-06
aF1.3292647860208007e-06
aF0.12472922661634976
aF0.00016387598666905151
aF0.018618182847804723
aF3.422693292128888e-05
aF0.0058209712574754996
aF1.3153053202703866e-05
aI0
aF34.0095493677365
aI19
aa(lp59
g27
ag28
aS'1671'
p60
aF0.12399116828528685
aF0.00019816763652772787
aF1.3684759378529299
aF0.03893644171428301
aF0.018614719193787318
aF3.487969056358703e-05
aF0.10892388342118065
aF0.030813002752882568
aF-0.0037335923881953417
aF0.00018883506582831574
aF7.915085353610296e-06
aF8.877713486427075e-07
aF0.12399116828528685
aF0.00019816763652772787
aF0.018614719193787318
aF3.487969056358703e-05
aF0.005785450411066416
aF1.4248405719108925e-05
aI0
aF51.52530245975852
aI19
aa(lp61
g27
ag28
aS'1711'
p62
aF0.1246264432372818
aF0.0001853780914082134
aF1.3540875856743344
aF0.033496654835920237
aF0.01845657732415239
aF3.8588925801297594e-05
aF0.11949109991066298
aF0.031190352416704648
aF-0.0034956735395382274
aF0.00018416170169436672
aF9.633896131622244e-06
aF7.77856380529407e-07
aF0.1246264432372818
aF0.0001853780914082134
aF0.01845657732415239
aF3.8588925801297594e-05
aF0.0057656901743491406
aF1.4794352083723237e-05
aI0
aF75.73215325425966
aI19
aa(lp63
g27
ag28
aS'1751'
p64
aF0.1263209111936166
aF0.00020594575542225255
aF1.3866174375979554
aF0.04526935564363266
aF0.018197365539906384
aF3.751581905264527e-05
aF0.10575735401896874
aF0.0322021128820445
aF-0.003449622513048565
aF0.00018539946827765606
aF8.077166770870114e-06
aF1.1735474211849173e-06
aF0.1263209111936166
aF0.00020594575542225255
aF0.018197365539906384
aF3.751581905264527e-05
aF0.005762005957381192
aF1.5144570185048349e-05
aI0
aF27.179003082130155
aI19
aa(lp65
g27
ag28
aS'1791'
p66
aF0.12510115652817294
aF0.00016308009105461127
aF1.3848705394484921
aF0.07084529779259618
aF0.018389775072701925
aF2.9266363885938756e-05
aF0.048058485963867914
aF0.020982662917208295
aF-0.0037636497621199084
aF0.00017299292416251338
aF7.256598370947165e-06
aF7.613937216405242e-07
aF0.12510115652817294
aF0.00016308009105461127
aF0.018389775072701925
aF2.9266363885938756e-05
aF0.00576670421488801
aF1.1863221360754316e-05
aI0
aF47.44009019226029
aI19
aa(lp67
g27
ag28
aS'1831'
p68
aF0.1238306277781972
aF0.00019385437767430595
aF1.339557506473316
aF0.02191021083788236
aF0.018583076052138364
aF3.9143827434529044e-05
aF0.17653628054540355
aF0.03846499167214426
aF-0.003809594291369168
aF0.00018038534411642373
aF8.14083184144665e-06
aF7.134669161440454e-07
aF0.1238306277781972
aF0.00019385437767430595
aF0.018583076052138364
aF3.9143827434529044e-05
aF0.0057681376144708375
aF1.5138199535119926e-05
aI0
aF51.875143511322314
aI19
aa(lp69
g27
ag28
aS'1871'
p70
aF0.12520161095660745
aF0.00017455364926175653
aF1.3332934779295325
aF0.02460874905967514
aF0.01821942466508223
aF3.0159248246510242e-05
aF0.16653270549784221
aF0.03892215264920121
aF-0.0038214364384796034
aF0.00017703146671357143
aF7.89976880394283e-06
aF7.452868123480894e-07
aF0.12520161095660745
aF0.00017455364926175653
aF0.01821942466508223
aF3.0159248246510242e-05
aF0.005717873062929059
aF1.2374767690710842e-05
aI0
aF66.33725782242689
aI19
aa(lp71
g27
ag28
aS'2211'
p72
aF0.12448241543995545
aF0.00016576645715502057
aF1.353248168066607
aF0.05763492766162037
aF0.018477131615944265
aF3.3164614450027774e-05
aF0.07056359318552324
aF0.027942574966700634
aF-0.003449644070705315
aF0.0001634737270078604
aF7.294396243584522e-06
aF7.576825405142262e-07
aF0.12448241543995545
aF0.00016576645715502057
aF0.018477131615944265
aF3.3164614450027774e-05
aF0.00576544048337086
aF1.28854022711199e-05
aI0
aF88.12107959685987
aI19
aa(lp73
g27
ag28
aS'2251'
p74
aF0.12420862948446432
aF0.00018402730864180126
aF1.3655432779501526
aF0.028405261945489646
aF0.018417603278924517
aF2.9143269499961114e-05
aF0.13726734849852956
aF0.029838439024398977
aF-0.003640402946387304
aF0.0001860437906460094
aF6.67711992485831e-06
aF9.073193385500389e-07
aF0.12420862948446432
aF0.00018402730864180126
aF0.018417603278924517
aF2.9143269499961114e-05
aF0.005734226162646597
aF1.2430177494329452e-05
aI0
aF64.943260713676
aI19
aa(lp75
g27
ag28
aS'2291'
p76
aF0.1249360702311566
aF0.00019435147846479689
aF1.3824031880679868
aF0.04184694581237991
aF0.018496527100370308
aF3.7870659479395316e-05
aF0.09163566933076162
aF0.025660493559585718
aF-0.0035184952051446673
aF0.00019753663664227351
aF6.283773183041186e-06
aF8.975114639819814e-07
aF0.1249360702311566
aF0.00019435147846479689
aF0.018496527100370308
aF3.7870659479395316e-05
aF0.0057925256919849335
aF1.4894738191858162e-05
aI0
aF44.72148754819966
aI19
aa(lp77
g27
ag28
aS'2331'
p78
aF0.1261202581324697
aF0.0001839176898067541
aF1.3743586693622176
aF0.050050329480954336
aF0.0182100556904384
aF3.644123532100911e-05
aF0.08806521449841043
aF0.02968064128710321
aF-0.0038516672310467495
aF0.00017387962336344858
aF7.777889547644357e-06
aF9.489469343787471e-07
aF0.1261202581324697
aF0.0001839176898067541
aF0.0182100556904384
aF3.644123532100911e-05
aF0.005756865183539196
aF1.4254723316929013e-05
aI0
aF22.843942361617394
aI19
aa(lp79
g27
ag28
aS'2371'
p80
aF0.12498950218565151
aF0.00016705738188516344
aF1.632294334832647
aF0.20432299579278923
aF0.01846990476008003
aF2.9136087179302758e-05
aF0.011615667268470686
aF0.0072124525706432074
aF-0.0035976190044447872
aF0.00017268657834202682
aF6.117803950766998e-06
aF1.556767607976961e-06
aF0.12498950218565151
aF0.00016705738188516344
aF0.01846990476008003
aF2.9136087179302758e-05
aF0.005786662168411537
aF1.1964400962069085e-05
aI0
aF57.516856224165394
aI19
aa(lp81
g27
ag28
aS'2411'
p82
aF0.12454833989949589
aF0.0001873100564918221
aF1.377680431596358
aF0.030264947044834067
aF0.018367649828672686
aF4.1751051906308706e-05
aF0.1282816628037342
aF0.02898289302667334
aF-0.003577736613188103
aF0.00018323125554245767
aF7.254769706172004e-06
aF8.082562573535901e-07
aF0.12454833989949589
aF0.0001873100564918221
aF0.018367649828672686
aF4.1751051906308706e-05
aF0.005734313975732284
aF1.5629167431553145e-05
aI0
aF34.06503748552969
aI19
aa(lp83
g27
ag28
aS'2451'
p84
aF0.1245112141982994
aF0.00017796359888738606
aF1.3725487451230374
aF0.032209188794191324
aF0.018574701712466148
aF3.993353971705818e-05
aF0.11233249954918956
aF0.02703472719097655
aF-0.003398306178686255
aF0.00016584000447601239
aF7.707415387692151e-06
aF8.253425723553365e-07
aF0.1245112141982994
aF0.00017796359888738606
aF0.018574701712466148
aF3.993353971705818e-05
aF0.00579722625855348
aF1.4966405129492295e-05
aI0
aF74.69222079242122
aI19
aa(lp85
g27
ag28
aS'2674'
p86
aF0.12139158834878157
aF0.00016186766573085743
aF1.4646292424925835
aF0.08465905476657798
aF0.02046666475205765
aF3.7170657512863164e-05
aF0.033085216805986695
aF0.013676805925768698
aF-0.004952781395109694
aF0.00017440874587394055
aF8.35424317752187e-06
aF9.885011511417963e-07
aF0.12139158834878157
aF0.00016186766573085743
aF0.02046666475205765
aF3.7170657512863164e-05
aF0.006227670178137823
aF1.403157665348576e-05
aI0
aF63.443529669533184
aI19
aa(lp87
g27
ag28
aS'sum'
p88
aF0.14514433014773848
aF0.001106809731219862
aF0.10000000008042982
aF0.009626721510890598
aF0.0006396880861233108
aF6.560382774571335e-07
aF0.9867818687861437
aF0.0009603186052610235
aF-0.0033494699268763746
aF3.872210214827008e-05
aF6.152482570243034e-06
aF5.699396092850861e-07
aF0.14514433014773848
aF0.001106809731219862
aF0.0006396880861233108
aF6.560382774571335e-07
aF0.00023273316297894037
aF1.7907035548439422e-06
aI0
aF41780.011786479234
aI19
aa(lp89
S'10'
p90
aS'Y'
p91
ag27
aF0.1335795731781533
aF0.0001680939697220308
aF2.053777590683997
aF0.10186198195134866
aF0.015340008246502166
aF2.5555854720458494e-05
aF0.007172883550493447
aF0.0014992096852861903
aF-0.005572806999329448
aF0.00019397313024337601
aF3.0531133177191805e-15
aF4.8014591878808854e-06
aF0.1335795731781533
aF0.0001680939697220308
aF0.015340008246502166
aF2.5555854720458494e-05
aF0.005136361460748677
aF1.0723743773670827e-05
aI0
aF60.15081250243143
aI19
aa(lp92
S'10'
p93
ag91
aS'51'
p94
aF0.11353127563344742
aF0.00014526818191965482
aF1.5764525754646375
aF0.10524686584638732
aF0.018477789555226196
aF3.0739883609968294e-05
aF0.01634548453247686
aF0.006436331335384321
aF-0.005235565801629295
aF0.00016091423322871134
aF7.128817431228951e-06
aF7.487843003833872e-07
aF0.11353127563344742
aF0.00014526818191965482
aF0.018477789555226196
aF3.0739883609968294e-05
aF0.00525842238877343
aF1.1036222183378979e-05
aI0
aF63.77733591698969
aI19
aa(lp95
S'10'
p96
ag91
aS'91'
p97
aF0.11494771403001083
aF0.00017291018499837523
aF1.594885627975966
aF0.09101112977375447
aF0.01802334101349555
aF3.5693634380818545e-05
aF0.02234996367310421
aF0.007624376418743278
aF-0.005529478349296887
aF0.00019155450593581733
aF7.098735492122588e-06
aF8.30356836567514e-07
aF0.11494771403001083
aF0.00017291018499837523
aF0.01802334101349555
aF3.5693634380818545e-05
aF0.005193086695649249
aF1.2914821971033239e-05
aI0
aF42.10018858874707
aI19
aa(lp98
S'10'
p99
ag91
aS'131'
p100
aF0.11390433063688721
aF0.00016478932069537985
aF1.5379831080960304
aF0.08421876996963962
aF0.018210476245707322
aF3.8052640032693735e-05
aF0.02864485329256905
aF0.010286508647604109
aF-0.005151055189317166
aF0.00017646650762876662
aF9.03562206708286e-06
aF7.904468030672795e-07
aF0.11390433063688721
aF0.00016478932069537985
aF0.018210476245707322
aF3.8052640032693735e-05
aF0.00519937898098699
aF1.321448061739325e-05
aI0
aF39.16456095532404
aI19
aa(lp101
S'10'
p102
ag91
aS'171'
p103
aF0.11421166060620881
aF0.00016514441423626854
aF1.6339308221364381
aF0.10193594444219511
aF0.018049777123514743
aF3.776513152195689e-05
aF0.021707925789456295
aF0.007237099126676166
aF-0.004558259887909199
aF0.0001779535001250002
aF8.561549647706501e-06
aF1.1372086043959229e-06
aF0.11421166060620881
aF0.00016514441423626854
aF0.018049777123514743
aF3.776513152195689e-05
aF0.005167401702256812
aF1.3142273779673109e-05
aI0
aF35.213493199755504
aI19
aa(lp104
S'10'
p105
ag91
aS'211'
p106
aF0.11385057665074028
aF0.00014357316143795676
aF1.7647445033539662
aF0.14392988189283618
aF0.018392309817303974
aF3.163477708652447e-05
aF0.00957572295106257
aF0.003592914281653037
aF-0.005216309939045778
aF0.00017016981959166503
aF5.30252642286233e-06
aF9.440327353033018e-07
aF0.11385057665074028
aF0.00014357316143795676
aF0.018392309817303974
aF3.163477708652447e-05
aF0.005248817138489513
aF1.1194497484424659e-05
aI0
aF48.472579103629734
aI19
aa(lp107
S'10'
p108
ag91
aS'251'
p109
aF0.1132106782478296
aF0.00013893438515606696
aF1.4616287730502764
aF0.04962245258060538
aF0.01848631263360511
aF2.9170213047484406e-05
aF0.05119747537822922
aF0.01331186626783687
aF-0.005335048177907918
aF0.0001617165512453398
aF7.702698517297879e-06
aF6.786520694301856e-07
aF0.1132106782478296
aF0.00013893438515606696
aF0.01848631263360511
aF2.9170213047484406e-05
aF0.005245991950128582
aF1.048667041020627e-05
aI0
aF60.61343172921504
aI19
aa(lp110
S'10'
p111
ag91
aS'291'
p112
aF0.11261143557324019
aF0.00016234515043248346
aF1.3648594475729086
aF0.05080372664978017
aF0.018614987294267027
aF3.6467421069674016e-05
aF0.07317903506788359
aF0.026383052586830463
aF-0.005135252604342955
aF0.00016853450485817775
aF8.913168949381545e-06
aF5.597789938249775e-07
aF0.11261143557324019
aF0.00016234515043248346
aF0.018614987294267027
aF3.6467421069674016e-05
aF0.00525454569587282
aF1.2780699252618823e-05
aI0
aF35.72818373419092
aI19
aa(lp113
S'10'
p114
ag91
aS'771'
p115
aF0.1132015688266938
aF0.000137550364038735
aF1.6028622001964217
aF0.11117060512668353
aF0.01862114525389881
aF3.04653862174889e-05
aF0.014869920376138823
aF0.005951682042839385
aF-0.005212470731815871
aF0.00016142044072031122
aF7.528031916531619e-06
aF7.420153240456084e-07
aF0.1132015688266938
aF0.000137550364038735
aF0.01862114525389881
aF3.04653862174889e-05
aF0.0052838291643843485
aF1.0768069266198552e-05
aI0
aF29.302436595800177
aI19
aa(lp116
S'10'
p117
ag91
aS'811'
p118
aF0.11414337723075768
aF0.00015762226612740476
aF1.4577546190564759
aF0.06344843249742316
aF0.018352156353664783
aF3.496075464595738e-05
aF0.03984239801202283
aF0.013134397845811663
aF-0.005004652472873565
aF0.00015952347542442887
aF6.791289572372072e-06
aF6.309076271415748e-07
aF0.11414337723075768
aF0.00015762226612740476
aF0.018352156353664783
aF3.496075464595738e-05
aF0.005250827522132654
aF1.2354438353120393e-05
aI0
aF62.13389044955951
aI19
aa(lp119
S'10'
p120
ag91
aS'851'
p121
aF0.1138939606395058
aF0.00016188411652438587
aF1.4144328594330873
aF0.05366614169273731
aF0.018305165572341228
aF3.450354829501873e-05
aF0.04949580289534522
aF0.016073125651409226
aF-0.0052192880203921635
aF0.00017956680395857187
aF7.733368899504045e-06
aF5.317854399750077e-07
aF0.1138939606395058
aF0.00016188411652438587
aF0.018305165572341228
aF3.450354829501873e-05
aF0.005225938461819604
aF1.233712958024779e-05
aI0
aF95.98187213065181
aI19
aa(lp122
S'10'
p123
ag91
aS'891'
p124
aF0.112952143942453
aF0.00015196434357004628
aF1.3786833988985518
aF0.04747070842947765
aF0.018552382814770788
aF2.952798620735851e-05
aF0.06778955754367672
aF0.022232857310858056
aF-0.004729988431776415
aF0.00016602963536725617
aF8.142645625652811e-06
aF5.848837710820121e-07
aF0.112952143942453
aF0.00015196434357004628
aF0.018552382814770788
aF2.952798620735851e-05
aF0.005252718293134707
aF1.094692079316663e-05
aI0
aF23.719841317064184
aI19
aa(lp125
S'10'
p126
ag91
aS'931'
p127
aF0.11251368631402797
aF0.00014224657495515898
aF1.646257714218403
aF0.11958872108610441
aF0.01892156614624097
aF3.6282626953258734e-05
aF0.013608529265383529
aF0.005248182299165044
aF-0.004948299570392151
aF0.0001522026369888977
aF6.897574987202448e-06
aF9.032916939294422e-07
aF0.11251368631402797
aF0.00014224657495515898
aF0.01892156614624097
aF3.6282626953258734e-05
aF0.005336449061769193
aF1.2256728355652139e-05
aI0
aF47.74433394622234
aI19
aa(lp128
S'10'
p129
ag91
aS'971'
p130
aF0.11264076778191685
aF0.00014810998781556286
aF1.4371364914561293
aF0.05810870255819012
aF0.018744286052962095
aF3.3124054888807736e-05
aF0.046500639509441555
aF0.01500024311382317
aF-0.005037579696935903
aF0.0001721250908072103
aF8.866792009315505e-06
aF7.32909900685863e-07
aF0.11264076778191685
aF0.00014810998781556286
aF0.018744286052962095
aF3.3124054888807736e-05
aF0.005292421676652008
aF1.1657471952027484e-05
aI0
aF50.7064157714776
aI19
aa(lp131
S'10'
p132
ag91
aS'1011'
p133
aF0.1130373391039792
aF0.00015848537619372232
aF1.5876270408836786
aF0.06641406779727577
aF0.018654026489271423
aF3.710249943897348e-05
aF0.027189822355322857
aF0.007056144933746372
aF-0.005242282110523174
aF0.0001618075400455841
aF6.51038492771594e-06
aF8.360411087177111e-07
aF0.1130373391039792
aF0.00015848537619372232
aF0.018654026489271423
aF3.710249943897348e-05
aF0.005285480184754095
aF1.2862107919296226e-05
aI0
aF45.76474722101237
aI19
aa(lp134
S'10'
p135
ag91
aS'1631'
p136
aF0.11150866187863358
aF0.00014089975156986826
aF1.4742430562275104
aF0.09340242555897926
aF0.019224048501544102
aF3.569843879682247e-05
aF0.022530961713373765
aF0.010579866148673678
aF-0.0051300583827015725
aF0.00015699853037057286
aF8.483277921383925e-06
aF5.569842672081826e-07
aF0.11150866187863358
aF0.00014089975156986826
aF0.019224048501544102
aF3.569843879682247e-05
aF0.005373328497897249
aF1.2069021573750511e-05
aI0
aF54.312707044766455
aI19
aa(lp137
S'10'
p138
ag91
aS'1671'
p139
aF0.1115040575321587
aF0.0001506983130818744
aF1.4661442147341415
aF0.0571072461859079
aF0.019104833089046005
aF4.113876598424958e-05
aF0.047752873023565456
aF0.014360201961213764
aF-0.005702082916954612
aF0.00015602419970778354
aF7.977365319544738e-06
aF6.97772630495197e-07
aF0.1115040575321587
aF0.0001506983130818744
aF0.019104833089046005
aF4.113876598424958e-05
aF0.005339786010546964
aF1.3575392618883292e-05
aI0
aF33.57027379679123
aI19
aa(lp140
S'10'
p141
ag91
aS'1711'
p142
aF0.11149841798675826
aF0.00016743235436455774
aF1.5126080678330018
aF0.06560376860384731
aF0.019118631277821065
aF3.882602653402373e-05
aF0.03797005679895443
aF0.011222288645774098
aF-0.004929877564013701
aF0.00017391048005795277
aF8.238190481207885e-06
aF8.249448857217123e-07
aF0.11149841798675826
aF0.00016743235436455774
aF0.019118631277821065
aF3.882602653402373e-05
aF0.005343372327957315
aF1.349569426084719e-05
aI0
aF42.50942486693942
aI19
aa(lp143
S'10'
p144
ag91
aS'1751'
p145
aF0.11194059274699306
aF0.0001692164653809697
aF1.4991178136343208
aF0.06539824408185535
aF0.018814105890648684
aF3.695395639108888e-05
aF0.03766564422062596
aF0.011911190948004663
aF-0.004990454499853539
aF0.00019183245585847184
aF9.146124769654485e-06
aF7.443623230851681e-07
aF0.11194059274699306
aF0.0001692164653809697
aF0.018814105890648684
aF3.695395639108888e-05
aF0.005279114971932024
aF1.308438916396012e-05
aI0
aF27.85472307540898
aI19
aa(lp146
S'10'
p147
ag91
aS'1791'
p148
aF0.1122171717656145
aF0.00013003137152303533
aF1.571294684486231
aF0.10950199826425833
aF0.01893005726098186
aF2.8012253275840407e-05
aF0.01570696127236526
aF0.006757335371683881
aF-0.005476200197938612
aF0.0001593515482093519
aF7.798615397930364e-06
aF6.701516132023855e-07
aF0.1122171717656145
aF0.00013003137152303533
aF0.01893005726098186
aF2.8012253275840407e-05
aF0.005324774012548835
aF1.0007790937561969e-05
aI0
aF56.67856607974689
aI19
aa(lp149
S'10'
p150
ag91
aS'1831'
p151
aF0.11172681473274354
aF0.00015512008473242604
aF1.4621549060080417
aF0.056015438442626464
aF0.019052871032693795
aF3.515916121213554e-05
aF0.04823745794041667
aF0.014438322861167252
aF-0.005134879236362766
aF0.00016950195136282358
aF8.19364382095844e-06
aF7.079970227724663e-07
aF0.11172681473274354
aF0.00015512008473242604
aF0.019052871032693795
aF3.515916121213554e-05
aF0.00533590119817491
aF1.2322264514176963e-05
aI0
aF27.559875179622157
aI19
aa(lp152
S'10'
p153
ag91
aS'1871'
p154
aF0.11248876221861719
aF0.00015514371472345436
aF1.4439180806883136
aF0.05243592130246677
aF0.018819212622647075
aF3.422172778780666e-05
aF0.05190127973669734
aF0.015065745727104896
aF-0.0051876806301550385
aF0.00016749142413155513
aF8.198348490751073e-06
aF5.899450602614431e-07
aF0.11248876221861719
aF0.00015514371472345436
aF0.018819212622647075
aF3.422172778780666e-05
aF0.0053064065601680045
aF1.2110843152695746e-05
aI0
aF36.99488171600383
aI19
aa(lp155
S'10'
p156
ag91
aS'2211'
p157
aF0.11206913998150428
aF0.00013002954765343306
aF1.7346926130629627
aF0.12917466604831485
aF0.018998411603044003
aF3.202946970192605e-05
aF0.010816591079523596
aF0.003808885814588575
aF-0.005372826196080427
aF0.000135541543202985
aF6.998039554118041e-06
aF9.143885685986008e-07
aF0.11206913998150428
aF0.00013002954765343306
aF0.018998411603044003
aF3.202946970192605e-05
aF0.005336951619230096
aF1.0922479040699227e-05
aI0
aF49.835383997973054
aI19
aa(lp158
S'10'
p159
ag91
aS'2251'
p160
aF0.1121282959517282
aF0.00016114685495406686
aF1.4069333642616773
aF0.03796444529548071
aF0.019017743008983214
aF3.766082014861408e-05
aF0.0772823471990356
aF0.01871780126886982
aF-0.005118448992568376
aF0.00015315492893492564
aF9.459258171945484e-06
aF6.193621059774612e-07
aF0.1121282959517282
aF0.00016114685495406686
aF0.019017743008983214
aF3.766082014861408e-05
aF0.00534520210367134
aF1.3078856224789638e-05
aI0
aF49.65718903467755
aI19
aa(lp161
S'10'
p162
ag91
aS'2291'
p163
aF0.11144816252760337
aF0.00016454683925520538
aF1.394099856446886
aF0.04151816182943813
aF0.019102377301394278
aF3.9968856946485595e-05
aF0.07168619429170747
aF0.02022441349560955
aF-0.005303117752302345
aF0.00016900886587769708
aF1.0023542215187309e-05
aF5.107360572242925e-07
aF0.11144816252760337
aF0.00016454683925520538
aF0.019102377301394278
aF3.9968856946485595e-05
aF0.0053364232239490285
aF1.3665632204855397e-05
aI0
aF43.92735339194343
aI19
aa(lp164
S'10'
p165
ag91
aS'2331'
p166
aF0.11167341751960809
aF0.00017467462199110677
aF1.4374371228484748
aF0.06390117213089919
aF0.018967116373180885
aF4.564156102783955e-05
aF0.04861346300703767
aF0.01686135548055126
aF-0.004843074540071776
aF0.00017521198739323723
aF8.646491416658408e-06
aF7.080956142824224e-07
aF0.11167341751960809
aF0.00017467462199110677
aF0.018967116373180885
aF4.564156102783955e-05
aF0.0053093462637098235
aF1.5238021653396971e-05
aI0
aF47.283678804341385
aI19
aa(lp167
S'10'
p168
ag91
aS'2371'
p169
aF0.11181146638122169
aF0.00013708177933586564
aF1.7330867697034327
aF0.12610962552696459
aF0.01917441083078418
aF3.5815914840272786e-05
aF0.009718872635379738
aF0.00332322799047588
aF-0.0049969471500212
aF0.00015903426842206245
aF6.743402405223753e-06
aF9.0236472206906e-07
aF0.11181146638122169
aF0.00013708177933586564
aF0.01917441083078418
aF3.5815914840272786e-05
aF0.005374007963830396
aF1.2007213976832018e-05
aI0
aF62.884507822445634
aI19
aa(lp170
S'10'
p171
ag91
aS'2411'
p172
aF0.11218344298858962
aF0.000143208183670969
aF1.4058286138380018
aF0.057480478858054185
aF0.018887365217480235
aF3.1639490573590404e-05
aF0.06016702939240365
aF0.021186961432631546
aF-0.0050038589304830655
aF0.00015573279870400168
aF9.002184304995886e-06
aF7.083678828789797e-07
aF0.11218344298858962
aF0.000143208183670969
aF0.018887365217480235
aF3.1639490573590404e-05
aF0.005311168465141844
aF1.118599870688325e-05
aI0
aF49.2399888400382
aI19
aa(lp173
S'10'
p174
ag91
aS'2451'
p175
aF0.11139371862652409
aF0.00014407367364100874
aF1.514205529290259
aF0.06178437618933241
aF0.019066611036476815
aF3.499993373198493e-05
aF0.036832743064656226
aF0.010493944491669571
aF-0.005542177921889665
aF0.00016710399162556125
aF8.64959959565037e-06
aF7.637359489137685e-07
aF0.11139371862652409
aF0.00014407367364100874
aF0.019066611036476815
aF3.499993373198493e-05
aF0.005323829559558134
aF1.1954914122833723e-05
aI0
aF47.143034432580755
aI19
aa(lp176
S'10'
p177
ag91
aS'2674'
p178
aF0.10948928732964727
aF0.00014413228236408315
aF1.5802005400004608
aF0.14841999011537976
aF0.02090509078235343
aF4.088946660526886e-05
aF0.011976990180645852
aF0.00681752628200763
aF-0.0055773672000407675
aF0.0001553092739332301
aF9.555282706963375e-06
aF8.281186421321696e-07
aF0.10948928732964727
aF0.00014413228236408315
aF0.02090509078235343
aF4.088946660526886e-05
aF0.00573738007668248
aF1.3526951652656367e-05
aI0
aF29.80019443572298
aI19
aa(lp179
S'10'
p180
ag91
aS'sum'
p181
aF0.11555014673886152
aF2.4599190867571947e-05
aF0.10437774547224689
aF6.963385666505681
aF0.0006666107687818679
aF2.3141598533440002e-07
aF1.609823385706477e-15
aF2.2759131729499504e-06
aF-0.004971867956553028
aF3.257606090309152e-05
aF1.313358438551071e-05
aF6.841394492584918e-09
aF0.11555014673886152
aF2.4599190867571947e-05
aF0.0006666107687818679
aF2.3141598533440002e-07
aF0.0001930779863015329
aF7.862717511037127e-08
aI0
aF36966.13936894676
aI19
aa(lp182
S'2'
p183
ag91
ag27
aF0.13888468497843953
aF0.00021061244731880493
aF1.7567977727123518
aF0.32767278310348924
aF0.014463967679692689
aF2.953945479664856e-05
aF0.007889948341151976
aF0.0050398004958891185
aF-0.007343678598121815
aF0.00019054307156644745
aF4.679566141307934e-06
aF3.2369841212326333e-06
aF0.13888468497843953
aF0.00021061244731880493
aF0.014463967679692689
aF2.953945479664856e-05
aF0.005035374021302245
aF1.2808609985627415e-05
aI0
aF37.44992825232685
aI19
aa(lp184
g183
ag91
aS'51'
p185
aF0.11710906065679437
aF0.00015181603917259237
aF1.7482724659059488
aF0.28800530522686196
aF0.018026855692475047
aF3.065546223762587e-05
aF0.0050730926356679085
aF0.0036521935204366363
aF-0.007281354540896652
aF0.00016116694487475534
aF7.411184743372212e-06
aF1.1923334943958475e-06
aF0.11710906065679437
aF0.00015181603917259237
aF0.018026855692475047
aF3.065546223762587e-05
aF0.005291763346359409
aF1.1315481911518277e-05
aI0
aF22.9082242168328
aI19
aa(lp186
g183
ag91
aS'91'
p187
aF0.11863429965571602
aF0.00018661067958162085
aF1.3311636166537248
aF0.12537575107033017
aF0.017494340808063696
aF3.920305454331585e-05
aF0.03614887985543652
aF0.03271408826306241
aF-0.0070139564141268726
aF0.0001824078016666781
aF9.446816005675984e-06
aF5.80688112802874e-07
aF0.11863429965571602
aF0.00018661067958162085
aF0.017494340808063696
aF3.920305454331585e-05
aF0.0052023286867831225
aF1.4243297427736007e-05
aI0
aF31.19882544588019
aI19
aa(lp188
g183
ag91
aS'131'
p189
aF0.1173542077044614
aF0.0001907136163638818
aF1.4630630208317443
aF0.1568916888340961
aF0.01758526272604069
aF3.8461377527509305e-05
aF0.02063074094783801
aF0.015769562874827475
aF-0.007403287286602229
aF0.00019369472983852306
aF9.988152900347602e-06
aF9.610708979757021e-07
aF0.1173542077044614
aF0.0001907136163638818
aF0.01758526272604069
aF3.8461377527509305e-05
aF0.0051729402369002225
aF1.4095245347824208e-05
aI0
aF26.685647244079462
aI19
aa(lp190
g183
ag91
aS'171'
p191
aF0.11793605129576291
aF0.0001860904832204593
aF1.340461038552865
aF0.09933719357093773
aF0.01735939609951609
aF3.674100712002318e-05
aF0.041545112791814
aF0.028986361492918306
aF-0.007245722389807896
aF0.00018799609518069146
aF9.637196478423649e-06
aF6.222617952023057e-07
aF0.11793605129576291
aF0.0001860904832204593
aF0.01735939609951609
aF3.674100712002318e-05
aF0.005131816629703718
aF1.3547686046179317e-05
aI0
aF25.76910159805982
aI19
aa(lp192
g183
ag91
aS'211'
p193
aF0.11778981747893023
aF0.0001247440565944978
aF3.3531303259177982
aF0.3241990976178817
aF0.017835176765467118
aF3.1786013966068546e-05
aF0.0014152057422547326
aF0.00026420494051196397
aF-0.007103533590735877
aF0.0001563924096735339
aF2.199351811782435e-13
aF1.9268297456354055e-05
aF0.11778981747893023
aF0.0001247440565944978
aF0.017835176765467118
aF3.1786013966068546e-05
aF0.005265930233804531
aF1.0916914304714042e-05
aI0
aF49.26973696318862
aI19
aa(lp194
g183
ag91
aS'251'
p195
aF0.11704505462324621
aF0.00017063978739184686
aF1.4480486961576375
aF0.10450170287819893
aF0.017886083892242704
aF3.923686089541377e-05
aF0.026995573244518234
aF0.01470144513806601
aF-0.006914235678214718
aF0.00018769931530819212
aF8.338721527695325e-06
aF7.50580229247344e-07
aF0.11704505462324621
aF0.00017063978739184686
aF0.017886083892242704
aF3.923686089541377e-05
aF0.005247570310313976
aF1.3821970793536564e-05
aI0
aF42.969815683228674
aI19
aa(lp196
g183
ag91
aS'291'
p197
aF0.11675919083941418
aF0.00014774291399672658
aF1.5665443340114855
aF0.15048864314910337
aF0.017911032247318496
aF3.4528907346825094e-05
aF0.01363222018823207
aF0.007826760766943025
aF-0.006874833571515977
aF0.00016090784761717326
aF8.306780342220987e-06
aF9.476122828505629e-07
aF0.11675919083941418
aF0.00014774291399672658
aF0.017911032247318496
aF3.4528907346825094e-05
aF0.005242055643215427
aF1.208809833091377e-05
aI0
aF18.338051551449816
aI19
aa(lp198
g183
ag91
aS'771'
p199
aF0.11749811850615059
aF0.0001550071828485331
aF2.121756266022826
aF1.0603593675284553
aF0.017998697217343495
aF2.6499705531833617e-05
aF0.0013663329847408145
aF0.0016775686965883607
aF-0.007078933153223371
aF0.00014523821350565205
aF6.887581091380435e-06
aF2.663532842839267e-06
aF0.11749811850615059
aF0.0001550071828485331
aF0.017998697217343495
aF2.6499705531833617e-05
aF0.0053010502082449975
aF1.0479567320866128e-05
aI0
aF65.92495001037825
aI19
aa(lp200
g183
ag91
aS'811'
p201
aF0.11798217634255663
aF0.00013270931579042688
aF1.644118658701727
aF0.18351970153753894
aF0.017844419685542758
aF2.5673277449810017e-05
aF0.008587261374934207
aF0.004953480770621993
aF-0.007131165799874879
aF0.00014941743946804452
aF7.2155161514597665e-06
aF9.786872624678589e-07
aF0.11798217634255663
aF0.00013270931579042688
aF0.017844419685542758
aF2.5673277449810017e-05
aF0.005277263337322453
aF9.637576964959857e-06
aI0
aF67.4700689032454
aI19
aa(lp202
g183
ag91
aS'851'
p203
aF0.11702177360470777
aF0.00016874557816795553
aF1.4251940889192842
aF0.08466834876900509
aF0.017926173779524913
aF3.878732927761058e-05
aF0.03292212913062703
aF0.01539178999885002
aF-0.007268650927385466
aF0.00016661753408151765
aF8.278980183962226e-06
aF7.07616289521984e-07
aF0.11702177360470777
aF0.00016874557816795553
aF0.017926173779524913
aF3.878732927761058e-05
aF0.005258286104735163
aF1.3672634815732842e-05
aI0
aF47.40106515870723
aI19
aa(lp204
g183
ag91
aS'891'
p205
aF0.1168606993087517
aF0.0001716272052799717
aF1.4455062709900075
aF0.24315208158327295
aF0.017941632764633574
aF3.652620590026759e-05
aF0.013038625820103455
aF0.01568935431519136
aF-0.006618674319805913
aF0.00018159453293701433
aF9.023649137213097e-06
aF9.028227432456015e-07
aF0.1168606993087517
aF0.0001716272052799717
aF0.017941632764633574
aF3.652620590026759e-05
aF0.0052555766952205
aF1.319301636352612e-05
aI0
aF32.59576720661375
aI19
aa(lp206
g183
ag91
aS'931'
p207
aF0.11618698085099188
aF0.00013717138317652947
aF1.4738215108521933
aF0.4752875235560059
aF0.0184060117008965
aF3.186404825868648e-05
aF0.004275858234932095
aF0.009505113590122377
aF-0.0074825443936525245
aF0.00015745707129227474
aF8.974938474071159e-06
aF6.407869626440243e-07
aF0.11618698085099188
aF0.00013717138317652947
aF0.0184060117008965
aF3.186404825868648e-05
aF0.005360522145918716
aF1.123257500370919e-05
aI0
aF64.71552587348599
aI19
aa(lp208
g183
ag91
aS'971'
p209
aF0.11622017469931789
aF0.00017199924473276025
aF1.4760420799251284
aF0.15574673529902527
aF0.018224425534011296
aF3.665993012143265e-05
aF0.016290977667963946
aF0.012094938071392697
aF-0.0071776388303068095
aF0.0001791522130379617
aF9.089080429208751e-06
aF7.245407897260581e-07
aF0.11622017469931789
aF0.00017199924473276025
aF0.018224425534011296
aF3.665993012143265e-05
aF0.005309153788428327
aF1.325874878494343e-05
aI0
aF24.36320054072737
aI19
aa(lp210
g183
ag91
aS'1011'
p211
aF0.11653560506964554
aF0.0001664965704256527
aF1.3218690395372077
aF0.11517607107456973
aF0.018136988482812543
aF3.6569622782161096e-05
aF0.03965534423029787
aF0.03373410748094066
aF-0.007110254057151081
aF0.0001706643600236108
aF9.730303223320913e-06
aF5.875157977203171e-07
aF0.11653560506964554
aF0.0001664965704256527
aF0.018136988482812543
aF3.6569622782161096e-05
aF0.005298021871381877
aF1.3092338256561256e-05
aI0
aF16.05999257528671
aI19
aa(lp212
g183
ag91
aS'1631'
p213
aF0.1153084080249757
aF0.00012600790866514934
aF4.012324990674901
aF0.4751041068272852
aF0.01873534174544448
aF2.9114654597343567e-05
aF0.0010780751084317752
aF0.0001870705626917657
aF-0.006774931858905208
aF0.0001716472446319444
aF3.720995733758059e-12
aF2.1698112400395098e-05
aF0.1153084080249757
aF0.00012600790866514934
aF0.01873534174544448
aF2.9114654597343567e-05
aF0.005415175419103847
aF1.02875443906794e-05
aI0
aF56.87800059151471
aI19
aa(lp214
g183
ag91
aS'1671'
p215
aF0.1150400883788856
aF0.0001603594498457303
aF1.442653220936726
aF0.11123903507530819
aF0.018663796621929907
aF3.7058634439167404e-05
aF0.025755701875663395
aF0.014970941203077903
aF-0.007558830838215837
aF0.00015849584379932816
aF8.698384024397043e-06
aF7.049647165607853e-07
aF0.1150400883788856
aF0.0001603594498457303
aF0.018663796621929907
aF3.7058634439167404e-05
aF0.005381943499976676
aF1.305678224077705e-05
aI0
aF24.902370455341426
aI19
aa(lp216
g183
ag91
aS'1711'
p217
aF0.11474710203876085
aF0.00016413126097324616
aF1.3590953783434572
aF0.07288789613536029
aF0.018590094766236825
aF3.665613674984011e-05
aF0.04696771570296837
aF0.022790653433795188
aF-0.007349585192578009
aF0.0001719754274057373
aF8.306334104091206e-06
aF6.23687334153078e-07
aF0.11474710203876085
aF0.00016413126097324616
aF0.018590094766236825
aF3.665613674984011e-05
aF0.005347037919633725
aF1.3025284081553933e-05
aI0
aF68.45735422309869
aI19
aa(lp218
g183
ag91
aS'1751'
p219
aF0.11485206838770222
aF0.0001629751608862075
aF1.4212059921290139
aF0.07433267002429866
aF0.018317795649093086
aF4.208757075161579e-05
aF0.03623467294838695
aF0.015456699076961039
aF-0.007161811756828221
aF0.0001750907025043604
aF8.21479960325111e-06
aF6.388869241008566e-07
aF0.11485206838770222
aF0.0001629751608862075
aF0.018317795649093086
aF4.208757075161579e-05
aF0.0052735366040536575
aF1.4241165847803376e-05
aI0
aF32.80606094344271
aI19
aa(lp220
g183
ag91
aS'1791'
p221
aF0.11591269508413973
aF0.00018528877901743718
aF2.3227050941314595
aF1.1758820845934777
aF0.01846513605470856
aF3.360241694740085e-05
aF0.001325057792672002
aF0.0012930827506957565
aF-0.007377818256522545
aF0.00016140601891821352
aF6.066449151770348e-06
aF3.4909782502395847e-06
aF0.11591269508413973
aF0.00018528877901743718
aF0.01846513605470856
aF3.360241694740085e-05
aF0.005365045998741681
aF1.2994992495857436e-05
aI0
aF54.35384590032914
aI19
aa(lp222
g183
ag91
aS'1831'
p223
aF0.11514262796373427
aF0.00016868942977204106
aF1.3721660392428765
aF0.08726966181139562
aF0.018629199183078086
aF3.851155670351811e-05
aF0.04269676101520825
aF0.024368960857768962
aF-0.007396096909208414
aF0.00017109343650836546
aF8.605401363215304e-06
aF5.874071271894099e-07
aF0.11514262796373427
aF0.00016868942977204106
aF0.018629199183078086
aF3.851155670351811e-05
aF0.005376755125180157
aF1.3623432286772594e-05
aI0
aF28.88330177909135
aI19
aa(lp224
g183
ag91
aS'1871'
p225
aF0.11584618549434617
aF0.00014090181096216764
aF1.3056530264429584
aF0.10661427449855676
aF0.018327093346692826
aF3.331268687300527e-05
aF0.04102835449137765
aF0.03379236845648226
aF-0.007388483910312639
aF0.0001480687889002591
aF8.908627730286334e-06
aF5.772476951854122e-07
aF0.11584618549434617
aF0.00014090181096216764
aF0.018327093346692826
aF3.331268687300527e-05
aF0.005321882286522243
aF1.163934178905732e-05
aI0
aF29.41063618499907
aI19
aa(lp226
g183
ag91
aS'2211'
p227
aF0.11574001203620941
aF0.00014347833160930517
aF1.81082275697995
aF0.46099022538212553
aF0.018474976361978864
aF3.3543964890763237e-05
aF0.0028188896681664577
aF0.002872732838744313
aF-0.007451082824063217
aF0.0001730965756270408
aF7.548379799798832e-06
aF1.288994561893242e-06
aF0.11574001203620941
aF0.00014347833160930517
aF0.018474976361978864
aF3.3543964890763237e-05
aF0.005359908166044661
aF1.1783656069330055e-05
aI0
aF57.72910871241949
aI19
aa(lp228
g183
ag91
aS'2251'
p229
aF0.11584971759175301
aF0.0001478224997525551
aF1.3985761659697624
aF0.07937389776762394
aF0.018413732731313515
aF3.0913287010112325e-05
aF0.03737679594098087
aF0.017944355376380366
aF-0.0071963081485472815
aF0.00017153250234456366
aF8.178971997174767e-06
aF6.481564669424955e-07
aF0.11584971759175301
aF0.0001478224997525551
aF0.018413732731313515
aF3.0913287010112325e-05
aF0.005347203947864706
aF1.127558354814893e-05
aI0
aF38.29768254835519
aI19
aa(lp230
g183
ag91
aS'2291'
p231
aF0.11545825922338801
aF0.00017304537099497235
aF1.3941920085079957
aF0.12485596553326972
aF0.018486594523348297
aF3.7437443500903944e-05
aF0.026144460423509208
aF0.019377876888196754
aF-0.0072294349765746795
aF0.00018059320898746774
aF9.513157933821459e-06
aF6.606750920790105e-07
aF0.11545825922338801
aF0.00017304537099497235
aF0.018486594523348297
aF3.7437443500903944e-05
aF0.005350222644956705
aF1.3479369874152849e-05
aI0
aF45.424520328918014
aI19
aa(lp232
g183
ag91
aS'2331'
p233
aF0.1152366818060011
aF0.0001599030580691711
aF1.4282481811017032
aF0.13600227729285252
aF0.01837601736443072
aF3.661141621385568e-05
aF0.024156103044008836
aF0.017452404419270984
aF-0.007263882503829265
aF0.00017647228282986665
aF9.095489572202853e-06
aF8.143889231870816e-07
aF0.1152366818060011
aF0.0001599030580691711
aF0.01837601736443072
aF3.661141621385568e-05
aF0.005308014141182637
aF1.2887546313834615e-05
aI0
aF32.58522699064253
aI19
aa(lp234
g183
ag91
aS'2371'
p235
aF0.11519060245785852
aF1.1558948436951036e-05
aF0.9999457950134008
aF9.294694602240103
aF0.018702016191855853
aF3.30603770211553e-06
aF4.326477924254668e-07
aF0.90126830357278
aF-0.007499801666053265
aF1.9839460613930076e-05
aF9.37700655395668e-06
aF4.42220653845693e-08
aF0.11519060245785852
aF1.1558948436951036e-05
aF0.018702016191855853
aF3.30603770211553e-06
aF0.005400020549711491
aF1.097660472876048e-06
aI0
aF39.71266152537468
aI19
aa(lp236
g183
ag91
aS'2411'
p237
aF0.11543831820658826
aF0.00015488227046967458
aF1.3955317634167337
aF0.1034428901819835
aF0.018561845931095243
aF3.304990486867679e-05
aF0.031237648714488586
aF0.0188797839526815
aF-0.007503746092826633
aF0.0001647341940153125
aF9.299006502316853e-06
aF7.273247917688463e-07
aF0.11543831820658826
aF0.00015488227046967458
aF0.018561845931095243
aF3.304990486867679e-05
aF0.005371073416784286
aF1.1974496720435668e-05
aI0
aF43.64314476203161
aI19
aa(lp238
g183
ag91
aS'2451'
p239
aF0.11451762846858306
aF0.00014987657482094544
aF1.4233674201647644
aF0.09721665274642488
aF0.01864672967358851
aF3.488027955307095e-05
aF0.029730663060722085
aF0.015997135448038186
aF-0.006979671941199139
aF0.00016783265567698238
aF9.043260986441037e-06
aF6.865728075095001e-07
aF0.11451762846858306
aF0.00014987657482094544
aF0.01864672967358851
aF3.488027955307095e-05
aF0.005352602032467961
aF1.2219826749131142e-05
aI0
aF61.17795645782436
aI19
aa(lp240
g183
ag91
aS'2674'
p241
aF0.11198804050846171
aF0.0001610433824601923
aF2.0129023196700846
aF0.6115152538601972
aF0.020669412589091676
aF3.9553385469445757e-05
aF0.0019774204435064058
aF0.001944144488905758
aF-0.007380618425383653
aF0.00017970074211380116
aF9.250726389298247e-06
aF1.660035024456108e-06
aF0.11198804050846171
aF0.0001610433824601923
aF0.020669412589091676
aF3.9553385469445757e-05
aF0.0058021601821299324
aF1.3888752638535511e-05
aI0
aF43.474860312998516
aI19
aa(lp242
g183
ag91
aS'sum'
p243
aF0.11989690672702273
aF1.987713901981721e-05
aF9.385644247025969
aF7.082670343276767
aF0.0006300524530200225
aF1.9482395599324269e-07
aF0.9999999999999999
aF2.3657522266740116e-06
aF-0.006524584193468052
aF3.594503042629195e-05
aF1.3519516742888094e-05
aF7.844259103384488e-09
aF0.11989690672702273
aF1.987713901981721e-05
aF0.0006300524530200225
aF1.9482395599324269e-07
aF0.00018935405923097595
aF6.643627176165652e-08
aI0
aF36692.73102678519
aI19
aa(lp244
S'3'
p245
ag91
ag27
aF0.13920780780224848
aF0.00016549645659155927
aF2.2899777896077977
aF0.20837589642741605
aF0.014466027529654682
aF2.616628586821646e-05
aF0.0046340614864322505
aF0.0013156513556426552
aF-0.0004547948802759034
aF0.0001793118415692793
aF6.466494006929224e-13
aF4.241711979921514e-05
aF0.13920780780224848
aF0.00016549645659155927
aF0.014466027529654682
aF2.616628586821646e-05
aF0.005047807863292527
aF1.0926076439659209e-05
aI0
aF77.19709563226074
aI19
aa(lp246
g245
ag91
aS'51'
p247
aF0.11664100207473993
aF0.00016459248730939726
aF1.5442057213135194
aF0.17222323728354838
aF0.018027019784537402
aF3.6681392806450774e-05
aF0.011481485262045954
aF0.007831275456264358
aF-0.0003915709928901272
aF0.0001721678100157111
aF7.933357921374729e-06
aF8.250925103009399e-07
aF0.11664100207473993
aF0.00016459248730939726
aF0.018027019784537402
aF3.6681392806450774e-05
aF0.005270661334701825
aF1.3051275099571181e-05
aI0
aF36.71943894318944
aI19
aa(lp248
g245
ag91
aS'91'
p249
aF0.11805943856868534
aF0.00016094014098851455
aF1.5663978253148576
aF0.1317807154580598
aF0.017495872952865116
aF3.4368234337861514e-05
aF0.015176266299259333
aF0.007661828999775078
aF-0.00041491083998471964
aF0.00016343498790026537
aF8.653482339859853e-06
aF8.698364047793339e-07
aF0.11805943856868534
aF0.00016094014098851455
aF0.017495872952865116
aF3.4368234337861514e-05
aF0.0051775733973492485
aF1.2379781223386054e-05
aI0
aF21.372056418164405
aI19
aa(lp250
g245
ag91
aS'131'
p251
aF0.11699249315992527
aF0.00016539897782737924
aF1.4301447736321151
aF0.09900567908352242
aF0.017558803252304613
aF3.142828270868807e-05
aF0.03159074891215513
aF0.016722644495229477
aF-0.0006523358851537654
aF0.0001956566311685717
aF9.830709017749628e-06
aF7.727976297777772e-07
aF0.11699249315992527
aF0.00016539897782737924
aF0.017558803252304613
aF3.142828270868807e-05
aF0.005149236544506261
aF1.1744782882046459e-05
aI0
aF32.12048636192991
aI19
aa(lp252
g245
ag91
aS'171'
p253
aF0.11745789467511701
aF0.00017447048141324233
aF1.4592351704335116
aF0.11633038324846068
aF0.01744238350579712
aF3.821717179384662e-05
aF0.029908029490786303
aF0.017294504529324628
aF-0.0002683570668761224
aF0.000182845067019124
aF8.370901109805429e-06
aF8.67899466058808e-07
aF0.11745789467511701
aF0.00017447048141324233
aF0.01744238350579712
aF3.821717179384662e-05
aF0.005135443760549474
aF1.3593981706874572e-05
aI0
aF17.640899648403387
aI19
aa(lp254
g245
ag91
aS'211'
p255
aF0.11751460208196092
aF0.00041244713874016836
aF2.7426528148041736
aF2.37910855768601
aF0.01780597359201448
aF3.511408030298924e-05
aF0.001332857010768962
aF0.0009839273862164988
aF-0.00017350945923484971
aF0.0001729471221691322
aF4.312505360898333e-06
aF1.053804165683514e-05
aF0.11751460208196092
aF0.00041244713874016836
aF0.01780597359201448
aF3.511408030298924e-05
aF0.005245024165505751
aF2.111557093476532e-05
aI0
aF27.397054570128308
aI19
aa(lp256
g245
ag91
aS'251'
p257
aF0.11673438685113469
aF0.0001691175110876077
aF1.3289038166112703
aF0.07869632096255463
aF0.017893315162395184
aF3.4543242141006625e-05
aF0.0569094596029604
aF0.03381458598661166
aF-0.0003963235381117493
aF0.00017693101316523612
aF8.453484851234094e-06
aF5.683404175338413e-07
aF0.11673438685113469
aF0.0001691175110876077
aF0.017893315162395184
aF3.4543242141006625e-05
aF0.005235757844755158
aF1.2637295062539215e-05
aI0
aF23.458966821037286
aI19
aa(lp258
g245
ag91
aS'291'
p259
aF0.11637643205529284
aF0.00015601097713598084
aF1.521191907893917
aF0.10918798677306407
aF0.017990172073636693
aF3.377561759589087e-05
aF0.02270748688075891
aF0.010530554000590442
aF-2.587175140375642e-06
aF0.00016926785413544354
aF7.609132176983335e-06
aF8.977772507218207e-07
aF0.11637643205529284
aF0.00015601097713598084
aF0.017990172073636693
aF3.377561759589087e-05
aF0.0052479572631005805
aF1.2106691764292486e-05
aI0
aF29.676080047113395
aI19
aa(lp260
g245
ag91
aS'771'
p261
aF0.11670915961761093
aF0.00014410383704801827
aF1.789832299078377
aF0.303122368275343
aF0.01802855406388702
aF3.338051781332993e-05
aF0.004292921011350481
aF0.0030242865576880495
aF-0.000607690494807503
aF0.00015761577287514615
aF6.232097514630164e-06
aF1.1388342308904509e-06
aF0.11670915961761093
aF0.00014410383704801827
aF0.01802855406388702
aF3.338051781332993e-05
aF0.005274190020169549
aF1.1737572275486224e-05
aI0
aF34.07442984097108
aI19
aa(lp262
g245
ag91
aS'811'
p263
aF0.1172881661193716
aF0.00014600746274050187
aF1.459024280082768
aF0.09344489519982613
aF0.017889713818565668
aF2.99151947856114e-05
aF0.024990486931550482
aF0.011619448646077696
aF-0.00044650419706650685
aF0.00015287640428789906
aF7.1429884950235945e-06
aF6.754064818259575e-07
aF0.1172881661193716
aF0.00014600746274050187
aF0.017889713818565668
aF2.99151947856114e-05
aF0.00525953710413596
aF1.0964507179477822e-05
aI0
aF29.249551933175027
aI19
aa(lp264
g245
ag91
aS'851'
p265
aF0.11687699848890358
aF0.00016386205633933356
aF1.4272572262995051
aF0.0797404219791813
aF0.017965377867197138
aF3.3952334468264136e-05
aF0.036465921589295014
aF0.016122610539078375
aF-0.0002789911057599271
aF0.00016277849744463424
aF7.818096512540729e-06
aF6.156419881386821e-07
aF0.11687699848890358
aF0.00016386205633933356
aF0.017965377867197138
aF3.3952334468264136e-05
aF0.005263266254266493
aF1.2385179001023438e-05
aI0
aF15.15782209646568
aI19
aa(lp266
g245
ag91
aS'891'
p267
aF0.11593913946130086
aF0.00015594846499735127
aF1.5123917850229731
aF0.12351523680207155
aF0.018076719743054765
aF3.94491340702241e-05
aF0.01917359022012699
aF0.010238857372505794
aF0.00012564589748740841
aF0.0001550204432076122
aF7.709381184134445e-06
aF8.373114322307584e-07
aF0.11593913946130086
aF0.00015594846499735127
aF0.018076719743054765
aF3.94491340702241e-05
aF0.005253389861771468
aF1.3467310878421853e-05
aI0
aF30.111846621620288
aI19
aa(lp268
g245
ag91
aS'931'
p269
aF0.1157723955421497
aF0.0001295038702132676
aF1.6292076460197287
aF0.2908235832990992
aF0.018363326320844205
aF3.0028813304388766e-05
aF0.003972784955983133
aF0.003880318431643437
aF-9.819176518086569e-05
aF0.00015225230600746808
aF7.871567567652171e-06
aF6.862087541248396e-07
aF0.1157723955421497
aF0.0001295038702132676
aF0.018363326320844205
aF3.0028813304388766e-05
aF0.0053290071840645875
aF1.0558104229891817e-05
aI0
aF38.86599512455702
aI19
aa(lp270
g245
ag91
aS'971'
p271
aF0.11556322318095365
aF0.0001487920400598772
aF1.4826007335536282
aF0.09299671820787203
aF0.01828536631893111
aF3.5595867009362986e-05
aF0.024988939524744347
aF0.01070524139827872
aF-0.0005060085990809292
aF0.00015831458215483083
aF7.665425417996419e-06
aF7.735839819555945e-07
aF0.11556322318095365
aF0.0001487920400598772
aF0.01828536631893111
aF3.5595867009362986e-05
aF0.005296795984456252
aF1.236247734311798e-05
aI0
aF21.3963369304043
aI19
aa(lp272
g245
ag91
aS'1011'
p273
aF0.11662396698258957
aF0.00017256501162399635
aF1.4675357431167293
aF0.1390052266007047
aF0.018058163499676733
aF3.762938299570369e-05
aF0.018669701040754716
aF0.012580793603782614
aF-0.00041798564689038344
aF0.00018702872592929308
aF8.08103947486094e-06
aF7.580982565869032e-07
aF0.11662396698258957
aF0.00017256501162399635
aF0.018058163499676733
aF3.762938299570369e-05
aF0.005278995902949524
aF1.3491523212099602e-05
aI0
aF41.06677428117355
aI19
aa(lp274
g245
ag91
aS'1631'
p275
aF0.11473975911765145
aF0.00018453142051138544
aF2.2530581912697056
aF0.6980514048507184
aF0.018734154485601534
aF3.4010934574285265e-05
aF0.0022316615162539244
aF0.0015049915743931275
aF-0.00031107436756236455
aF0.0001833333232251865
aF5.322279998304369e-06
aF3.1441388233521828e-06
aF0.11473975911765145
aF0.00018453142051138544
aF0.018734154485601534
aF3.4010934574285265e-05
aF0.00538812875583861
aF1.3068143110599395e-05
aI0
aF27.489770969959828
aI19
aa(lp276
g245
ag91
aS'1671'
p277
aF0.11451906549120965
aF0.00014940418170002526
aF1.4153349359426841
aF0.07085323833348622
aF0.01870233299155084
aF4.012298315667594e-05
aF0.03787703683278015
aF0.015314593397376397
aF-0.0006739628694072436
aF0.0001545534226109079
aF8.037716085956825e-06
aF6.211784321086267e-07
aF0.11451906549120965
aF0.00014940418170002526
aF0.01870233299155084
aF4.012298315667594e-05
aF0.00536863050600372
aF1.3480022772922504e-05
aI0
aF35.33337772008515
aI19
aa(lp278
g245
ag91
aS'1711'
p279
aF0.11411049836442529
aF0.00015393247931450935
aF1.3841790194592907
aF0.056048464607189485
aF0.01863227040567459
aF3.845586718206895e-05
aF0.06076070770678499
aF0.02200761778186186
aF-0.00043400911808540366
aF0.00016036002592973244
aF8.414662975214648e-06
aF6.143360684190968e-07
aF0.11411049836442529
aF0.00015393247931450935
aF0.01863227040567459
aF3.845586718206895e-05
aF0.005329436778455394
aF1.3140691877290009e-05
aI0
aF26.44509091203031
aI19
aa(lp280
g245
ag91
aS'1751'
p281
aF0.1148519539337281
aF0.0001729532043445721
aF1.364307544787477
aF0.06890172034461572
aF0.018295824766280416
aF3.7819466793763065e-05
aF0.05491771035038284
aF0.02512515645542615
aF-0.000971078291141148
aF0.00018508977344669375
aF9.624544875547203e-06
aF7.180780411397691e-07
aF0.1148519539337281
aF0.0001729532043445721
aF0.018295824766280416
aF3.7819466793763065e-05
aF0.005267206125963814
aF1.3470681021054087e-05
aI0
aF41.35670181099793
aI19
aa(lp282
g245
ag91
aS'1791'
p283
aF0.11563426093483989
aF0.00013985563167850452
aF1.6110454372688128
aF0.2716614273903283
aF0.018460440018155087
aF3.7378471490687876e-05
aF0.004219120454388825
aF0.004013211623737023
aF-0.0007759764230037464
aF0.00015973864739608727
aF8.212765005843892e-06
aF7.085015460844835e-07
aF0.11563426093483989
aF0.00013985563167850452
aF0.018460440018155087
aF3.7378471490687876e-05
aF0.005350797453414365
aF1.2619911743183807e-05
aI0
aF36.144077380905635
aI19
aa(lp284
g245
ag91
aS'1831'
p285
aF0.11476467697636841
aF0.00017132841519540464
aF1.6265830107152357
aF0.16301791640797403
aF0.018647248956356794
aF3.8237790848825656e-05
aF0.012831878525625784
aF0.0068420971164821764
aF-0.0003163116930363382
aF0.0001795881270333692
aF8.054279889979643e-06
aF1.1113933931355957e-06
aF0.11476467697636841
aF0.00017132841519540464
aF0.018647248956356794
aF3.8237790848825656e-05
aF0.005364298566752076
aF1.3606251143465296e-05
aI0
aF20.751700477652324
aI19
aa(lp286
g245
ag91
aS'1871'
p287
aF0.11508820368307625
aF0.00015711960158010252
aF1.3373145853282515
aF0.06166292887692426
aF0.018376151417508164
aF3.331047220144455e-05
aF0.06313269250574005
aF0.02868384725465753
aF-0.000481221740104668
aF0.00017204755357640698
aF9.363629619757452e-06
aF6.442683672808203e-07
aF0.11508820368307625
aF0.00015711960158010252
aF0.018376151417508164
aF3.331047220144455e-05
aF0.0053012136370232535
aF1.2030000211293072e-05
aI0
aF42.506886731982824
aI19
aa(lp288
g245
ag91
aS'2211'
p289
aF0.11523765945400123
aF0.0001651565199620984
aF2.628000851476243
aF1.0665642238920914
aF0.018630385997647825
aF2.821006664763953e-05
aF0.0011371120383202316
aF0.0005756337992220695
aF-2.3063170641208198e-05
aF0.00015585039045135944
aF5.580634360347059e-06
aF3.7424589978962697e-06
aF0.11523765945400123
aF0.0001651565199620984
aF0.018630385997647825
aF2.821006664763953e-05
aF0.005381535581872166
aF1.1219955042076805e-05
aI0
aF36.31477783421867
aI19
aa(lp290
g245
ag91
aS'2251'
p291
aF0.11506084648333728
aF0.00017147406721371205
aF1.4434001350354333
aF0.08092782196500292
aF0.018552691792666175
aF3.943181850783045e-05
aF0.037208447273293865
aF0.01593780826064456
aF-0.0004551713329485897
aF0.0001770268021459124
aF8.375487381945268e-06
aF7.438482205607277e-07
aF0.11506084648333728
aF0.00017147406721371205
aF0.018552691792666175
aF3.943181850783045e-05
aF0.005350870356635602
aF1.3889888377152292e-05
aI0
aF12.452551944457158
aI19
aa(lp292
g245
ag91
aS'2291'
p293
aF0.11469026608793578
aF0.0001592015292326085
aF1.3872455079907013
aF0.10843778274701754
aF0.018574752756655506
aF3.311922011342387e-05
aF0.03531947508456196
aF0.02313033339711082
aF-0.00021971536740077624
aF0.0001714491846348948
aF9.252629610240204e-06
aF6.849190778424052e-07
aF0.11469026608793578
aF0.0001592015292326085
aF0.018574752756655506
aF3.311922011342387e-05
aF0.005339978841136609
aF1.2066454211954289e-05
aI0
aF23.98653148702662
aI19
aa(lp294
g245
ag91
aS'2331'
p295
aF0.11494015512881728
aF0.00016139142685998363
aF1.5770873598906556
aF0.12243090738085072
aF0.018390033824967747
aF3.2132828854758086e-05
aF0.0162443673726283
aF0.0075587382701314265
aF-0.0003544465777623181
aF0.00016862778794159272
aF7.941344190270927e-06
aF7.697019268892991e-07
aF0.11494015512881728
aF0.00016139142685998363
aF0.018390033824967747
aF3.2132828854758086e-05
aF0.005298393889309102
aF1.1876720774141385e-05
aI0
aF26.481274841472516
aI19
aa(lp296
g245
ag91
aS'2371'
p297
aF0.11495285767029695
aF0.00015269834068587631
aF1.8557256566892266
aF0.35507547095306935
aF0.018684643566338456
aF3.2496840244382666e-05
aF0.0034773043517294377
aF0.002599159829922676
aF-0.0004874581911535533
aF0.00017660859455669042
aF6.517445306941649e-06
aF1.2660010431236879e-06
aF0.11495285767029695
aF0.00015269834068587631
aF0.018684643566338456
aF3.2496840244382666e-05
aF0.005383869491948241
aF1.1782486661835285e-05
aI0
aF22.46900682870598
aI19
aa(lp298
g245
ag91
aS'2411'
p299
aF0.11504598548662878
aF0.00017698749033817718
aF1.3277130431951287
aF0.07424979947847521
aF0.0184574698912684
aF3.9142435154649116e-05
aF0.059711624944431774
aF0.034012257305270244
aF-7.371269595274574e-05
aF0.00017898627662959977
aF9.975697690400853e-06
aF6.553966575562065e-07
aF0.11504598548662878
aF0.00017698749033817718
aF0.0184574698912684
aF3.9142435154649116e-05
aF0.005322719394630316
aF1.3945107511487871e-05
aI0
aF32.40602891015845
aI19
aa(lp300
g245
ag91
aS'2451'
p301
aF0.11420404115588308
aF0.0001719120529564685
aF0.7265815949770557
aF0.0604182172897999
aF0.01866141774059618
aF3.928871192318377e-05
aF0.966743962771824
aF0.0243149456436908
aF-4.830698676716207e-05
aF0.00018226197219839
aF9.481536573846538e-06
aF6.307417705908591e-07
aF0.11420404115588308
aF0.0001719120529564685
aF0.01866141774059618
aF3.928871192318377e-05
aF0.00534214953985238
aF1.3826182731138263e-05
aI0
aF32.480839576352544
aI19
aa(lp302
g245
ag91
aS'2674'
p303
aF0.11152971929314157
aF0.00016311734396999664
aF1.4591833085720127
aF0.1796044703128945
aF0.020628497009349944
aF4.062713850899562e-05
aF0.012903174734805067
aF0.011880668417471735
aF-0.0003155442084136609
aF0.00017996346070831763
aF9.18125120513702e-06
aF7.006366123940566e-07
aF0.11152971929314157
aF0.00016311734396999664
aF0.020628497009349944
aF4.062713850899562e-05
aF0.005766975810578805
aF1.4147133348296518e-05
aI0
aF23.85078776311768
aI19
aa(lp304
g245
ag91
aS'sum'
p305
aF0.11998850471197738
aF2.0892768047484762e-05
aF0.12665862420953494
aF9.83681374442951
aF0.0006322823024115182
aF1.5116116539590826e-07
aF1.0
aF0.07914864988850928
aF0.0003193633634627241
aF3.5063474284816634e-05
aF1.341651022507273e-05
aF7.46517914151923e-09
aF0.11998850471197738
aF2.0892768047484762e-05
aF0.0006322823024115182
aF1.5116116539590826e-07
aF0.0001901693847688045
aF5.624463221890119e-08
aI0
aF65486.80225098051
aI19
aa(lp306
S'4'
p307
ag28
ag27
aF0.13613932313219138
aF1.154305249795724e-05
aF1.0000011114095626
aF1.119280163014171
aF0.01452294300398747
aF1.992295695661672e-06
aF0.9994520490184206
aF0.5795905827626
aF-0.007220643258365485
aF1.9952498376794475e-05
aF9.509075914376774e-06
aF4.2003208369778555e-08
aF0.13613932313219138
aF1.154305249795724e-05
aF0.01452294300398747
aF1.992295695661672e-06
aF0.004955964127093177
aF7.992507709010994e-07
aI0
aF62.26882114169778
aI19
aa(lp308
g307
ag28
aS'51'
p309
aF0.12766579299006392
aF0.00015644949424395888
aF1.6636534668728804
aF0.16338495179320467
aF0.01803258293397368
aF2.9821545569415353e-05
aF0.013627789624576392
aF0.00606631893551976
aF-0.0052228359373396715
aF0.00016646536111962295
aF4.54980312372677e-06
aF1.9669110945530477e-06
aF0.12766579299006392
aF0.00015644949424395888
aF0.01803258293397368
aF2.9821545569415353e-05
aF0.00577061924248372
aF1.1877771152074309e-05
aI0
aF33.24191674344104
aI19
aa(lp310
g307
ag28
aS'91'
p311
aF0.1294245635140905
aF0.000180390877795483
aF1.34643091534716
aF0.07434173878446515
aF0.017507740423486365
aF3.0268508357019636e-05
aF0.06941249600544153
aF0.035320161337956624
aF-0.005443375250698534
aF0.0001834512109990079
aF8.513364879753071e-06
aF1.162017997588527e-06
aF0.1294245635140905
aF0.000180390877795483
aF0.017507740423486365
aF3.0268508357019636e-05
aF0.005679848373422953
aF1.2613391044937263e-05
aI0
aF28.66673948367745
aI19
aa(lp312
g307
ag28
aS'131'
p313
aF0.12901125536432345
aF0.00020735812587408043
aF1.4488329436667142
aF0.0682896203192731
aF0.01771744433931973
aF3.557087392754184e-05
aF0.056158150442970955
aF0.019042953386607497
aF-0.005797909682783315
aF0.00019212356862453634
aF6.799812692193097e-06
aF1.4841364238959986e-06
aF0.12901125536432345
aF0.00020735812587408043
aF0.01771744433931973
aF3.557087392754184e-05
aF0.005729524917146275
aF1.473516583497397e-05
aI0
aF44.038551431052284
aI19
aa(lp314
g307
ag28
aS'171'
p315
aF0.12962357587711748
aF0.0002013290967952101
aF1.2808405366432822
aF0.04100260210361417
aF0.017510485747501518
aF3.842747499684454e-05
aF0.14525900671394276
aF0.06080543735012611
aF-0.005358919380804371
aF0.00019165189919524692
aF8.993899928311233e-06
aF9.788389160048094e-07
aF0.12962357587711748
aF0.0002013290967952101
aF0.017510485747501518
aF3.842747499684454e-05
aF0.005689474115534975
aF1.529652519877001e-05
aI0
aF46.93100671880446
aI19
aa(lp316
g307
ag28
aS'211'
p317
aF0.12820167488310527
aF0.0001784312163418893
aF1.8484434828508998
aF0.23529714866519613
aF0.017925821030992165
aF2.8103572746405667e-05
aF0.009307071451502447
aF0.003911492575711412
aF-0.005763553166038736
aF0.00016410633251565297
aF2.205137247468514e-06
aF2.8955463447916108e-06
aF0.12820167488310527
aF0.0001784312163418893
aF0.017925821030992165
aF2.8103572746405667e-05
aF0.005760533271919743
aF1.207654850314917e-05
aI0
aF59.635462026665216
aI19
aa(lp318
g307
ag28
aS'251'
p319
aF0.12732816820781886
aF0.00020536936340689996
aF1.3295679878754911
aF0.04169735566468957
aF0.017994485810639848
aF4.286970647129733e-05
aF0.11905454451211034
aF0.04191581028871519
aF-0.005847163173659991
aF0.00018705686793657995
aF8.251525473068622e-06
aF9.654568681183306e-07
aF0.12732816820781886
aF0.00020536936340689996
aF0.017994485810639848
aF4.286970647129733e-05
aF0.005743199025695778
aF1.652328079135599e-05
aI0
aF19.892131054341892
aI19
aa(lp320
g307
ag28
aS'291'
p321
aF0.12745376913098747
aF0.0001952966670062359
aF1.3405997964700136
aF0.049868888886876905
aF0.01808134028994689
aF4.083640780586616e-05
aF0.08984142310257742
aF0.033431341564182426
aF-0.005929989259074945
aF0.0001948319797022789
aF8.404348736362754e-06
aF9.226818074442589e-07
aF0.12745376913098747
aF0.0001952966670062359
aF0.01808134028994689
aF4.083640780586616e-05
aF0.005776612517918111
aF1.576567933069155e-05
aI0
aF31.606650830256388
aI19
aa(lp322
g307
ag28
aS'771'
p323
aF0.12685509773806883
aF0.00016511055694978707
aF1.5090918163902725
aF0.08830146992516719
aF0.0181495490252689
aF3.2761128052383875e-05
aF0.028281047350498745
aF0.010787412637300542
aF-0.0051997384030800856
aF0.0001653551957289258
aF4.6017445662349665e-06
aF1.0460278233592746e-06
aF0.12685509773806883
aF0.00016511055694978707
aF0.0181495490252689
aF3.2761128052383875e-05
aF0.005771167731797248
aF1.2843074514495513e-05
aI0
aF66.53245791881024
aI19
aa(lp324
g307
ag28
aS'811'
p325
aF0.12706037147447172
aF0.00016499968429406088
aF1.3516470489956192
aF0.03636462546831809
aF0.017955418082421362
aF3.333331452013387e-05
aF0.10829882731688822
aF0.029582511985796617
aF-0.005500174517603788
aF0.000154812562204431
aF7.149859772598299e-06
aF8.591722073930663e-07
aF0.12706037147447172
aF0.00016499968429406088
aF0.017955418082421362
aF3.333331452013387e-05
aF0.005718677121001666
aF1.2955985115920497e-05
aI0
aF43.517132866903765
aI19
aa(lp326
g307
ag28
aS'851'
p327
aF0.1273891301515741
aF0.00018971272876407082
aF1.4071888935477663
aF0.044888188237072524
aF0.017897794772749887
aF3.435912499813454e-05
aF0.09093472539792591
aF0.025252982971277843
aF-0.006001557761882051
aF0.0001891174670084556
aF5.903499991355421e-06
aF1.1199867682443188e-06
aF0.1273891301515741
aF0.00018971272876407082
aF0.017897794772749887
aF3.435912499813454e-05
aF0.005715073632801668
aF1.3885669733808786e-05
aI0
aF42.98798192273705
aI19
aa(lp328
g307
ag28
aS'891'
p329
aF0.12710531840628392
aF0.00018956986155418037
aF1.329927273686199
aF0.038927366613307424
aF0.01821014331726428
aF3.636515819209138e-05
aF0.11299752224949339
aF0.03456466162571445
aF-0.006180592475697321
aF0.00017280699212839795
aF8.22010265405515e-06
aF9.694286482453407e-07
aF0.12710531840628392
aF0.00018956986155418037
aF0.01821014331726428
aF3.636515819209138e-05
aF0.005801857006070863
aF1.4460819669150091e-05
aI0
aF63.000572297474115
aI19
aa(lp330
g307
ag28
aS'931'
p331
aF0.1254205355275673
aF0.00015981975332621508
aF1.5440499270983432
aF0.10536678652113318
aF0.018538995680730558
aF3.1797963829674133e-05
aF0.022020036116807917
aF0.008772469231951158
aF-0.005686240912050141
aF0.00017057064866945928
aF7.110840331003843e-06
aF1.2887985104959032e-06
aF0.1254205355275673
aF0.00015981975332621508
aF0.018538995680730558
aF3.1797963829674133e-05
aF0.005828338786455017
aF1.2453640994963414e-05
aI0
aF28.61101401670332
aI19
aa(lp332
g307
ag28
aS'971'
p333
aF0.1262950707342085
aF0.00017575919137252107
aF1.466427958966213
aF0.0713732371883733
aF0.018319556130590366
aF3.394684539357283e-05
aF0.046490578553059714
aF0.015753870223110145
aF-0.005776022074620232
aF0.00017928505494792365
aF5.426060868257698e-06
aF1.2193773482604975e-06
aF0.1262950707342085
aF0.00017575919137252107
aF0.018319556130590366
aF3.394684539357283e-05
aF0.005799509731092178
aF1.3439926032596609e-05
aI0
aF38.31644937108259
aI19
aa(lp334
g307
ag28
aS'1011'
p335
aF0.12660660026415485
aF0.0001709085212743516
aF1.3561031565105017
aF0.049590944978821994
aF0.018173811705979197
aF3.54178498607749e-05
aF0.09001397325171773
aF0.03135192368536552
aF-0.005480721180039274
aF0.00016685155202279402
aF8.28207260153424e-06
aF1.0486186834135491e-06
aF0.12660660026415485
aF0.0001709085212743516
aF0.018173811705979197
aF3.54178498607749e-05
aF0.005767562444420877
aF1.3673205315929415e-05
aI0
aF33.79176400835891
aI19
aa(lp336
g307
ag28
aS'1631'
p337
aF0.12479753316567598
aF0.00016629248172756502
aF1.6053275526733717
aF0.1367196047559902
aF0.01881929620951816
aF3.5182198090476235e-05
aF0.017814677619782893
aF0.007896204553558911
aF-0.0058576950073813095
aF0.00017140555344395062
aF5.298011951038184e-06
aF1.6653959392792794e-06
aF0.12479753316567598
aF0.00016629248172756502
aF0.01881929620951816
aF3.5182198090476235e-05
aF0.005887071534505592
aF1.3515268701849352e-05
aI0
aF26.606326091892512
aI19
aa(lp338
g307
ag28
aS'1671'
p339
aF0.12442033639855633
aF0.00017983442066430536
aF1.3973339554562976
aF0.02682299446217129
aF0.018771708920418628
aF3.8377529350838366e-05
aF0.12759528771017314
aF0.02429366201896943
aF-0.005793073395618184
aF0.0001699306825508334
aF6.058832024868899e-06
aF8.364720011644344e-07
aF0.12442033639855633
aF0.00017983442066430536
aF0.018771708920418628
aF3.8377529350838366e-05
aF0.005854436727799581
aF1.4658123134899818e-05
aI0
aF38.52112178831444
aI19
aa(lp340
g307
ag28
aS'1711'
p341
aF0.12460675050265828
aF0.0002023469316177141
aF1.4135688430478839
aF0.04442700784881348
aF0.018810973355359667
aF4.367247171072064e-05
aF0.09799995516387172
aF0.026324805390741224
aF-0.005742936424842723
aF0.0001773679559345992
aF8.23980374206612e-06
aF1.1142011939191399e-06
aF0.12460675050265828
aF0.0002023469316177141
aF0.018810973355359667
aF4.367247171072064e-05
aF0.005875472164155797
aF1.6646419117114135e-05
aI0
aF22.648543175236462
aI19
aa(lp342
g307
ag28
aS'1751'
p343
aF0.12631568272393756
aF0.00022343550106564792
aF1.3448573995146913
aF0.04244903209552331
aF0.018345343630646715
aF4.4322585363710046e-05
aF0.11824557762924076
aF0.03913425985909472
aF-0.005850345900523955
aF0.00020606928375565094
aF9.044042715344869e-06
aF1.1273768376202087e-06
aF0.12631568272393756
aF0.00022343550106564792
aF0.018345343630646715
aF4.4322585363710046e-05
aF0.005808621245104953
aF1.7392921368499737e-05
aI0
aF14.18424517928764
aI19
aa(lp344
g307
ag28
aS'1791'
p345
aF0.12555431623935365
aF0.00016057302119462606
aF1.4431224781606165
aF0.06327426324315466
aF0.018556063599591534
aF3.33052339747484e-05
aF0.047723154402098455
aF0.015513030778070369
aF-0.005692066165789442
aF0.00015977675845285224
aF5.806911248268376e-06
aF1.0460984359306202e-06
aF0.12555431623935365
aF0.00016057302119462606
aF0.018556063599591534
aF3.33052339747484e-05
aF0.005839927207004323
aF1.2870491894411556e-05
aI0
aF43.7703800999736
aI19
aa(lp346
g307
ag28
aS'1831'
p347
aF0.12451431789379433
aF0.00018353255814612473
aF1.3779259321331803
aF0.030979234589798788
aF0.018760750387422184
aF3.755989703052402e-05
aF0.11891717094467108
aF0.02669361027057704
aF-0.005775222736342675
aF0.0001755672691963216
aF7.942548979178454e-06
aF8.439835774698423e-07
aF0.12451431789379433
aF0.00018353255814612473
aF0.018760750387422184
aF3.755989703052402e-05
aF0.005855438624642759
aF1.4557367150356944e-05
aI0
aF27.007764415431573
aI19
aa(lp348
g307
ag28
aS'1871'
p349
aF0.12562591661811218
aF0.0001765339426819232
aF1.3756264934383364
aF0.02969856902393586
aF0.018432945965258404
aF3.496144702498302e-05
aF0.12890876571501642
aF0.027772123468016163
aF-0.005960638249089618
aF0.00016635693605706911
aF6.882132703250887e-06
aF9.145126694809491e-07
aF0.12562591661811218
aF0.0001765339426819232
aF0.018432945965258404
aF3.496144702498302e-05
aF0.00580448813429253
aF1.3701654122094675e-05
aI0
aF25.554437073834155
aI19
aa(lp350
g307
ag28
aS'2211'
p351
aF0.12493757820227308
aF0.00016653170584814473
aF1.460469336391073
aF0.06511838056175678
aF0.01867432801723376
aF3.486980624932065e-05
aF0.04379209839950299
aF0.014046596829068309
aF-0.005540026845494506
aF0.00017498503584036679
aF5.54540878630605e-06
aF9.70720411372361e-07
aF0.12493757820227308
aF0.00016653170584814473
aF0.01867432801723376
aF3.486980624932065e-05
aF0.005848277887919907
aF1.3417088742171762e-05
aI0
aF52.95966509666602
aI19
aa(lp352
g307
ag28
aS'2251'
p353
aF0.12479588934853537
aF0.0001797380065161629
aF1.3934140870159253
aF0.036963273601684055
aF0.01859135991547791
aF3.684426439231128e-05
aF0.10514167213463721
aF0.02551576112313611
aF-0.00534027378638658
aF0.00017855973593482063
aF7.017778555662435e-06
aF1.0291685934582517e-06
aF0.12479588934853537
aF0.0001797380065161629
aF0.01859135991547791
aF3.684426439231128e-05
aF0.005815691664759545
aF1.4247671093807208e-05
aI0
aF39.567831724282364
aI19
aa(lp354
g307
ag28
aS'2291'
p355
aF0.12504029626460175
aF0.0001998252264632978
aF1.3315833593437205
aF0.03294733996811672
aF0.01863349903164089
aF4.2365765024322474e-05
aF0.1343299315853942
aF0.0365017533141295
aF-0.005866558355667071
aF0.00018493956098976022
aF9.465937099828459e-06
aF8.976555637002503e-07
aF0.12504029626460175
aF0.0001998252264632978
aF0.01863349903164089
aF4.2365765024322474e-05
aF0.005840289068930131
aF1.623063978217931e-05
aI0
aF38.183351442252025
aI19
aa(lp356
g307
ag28
aS'2331'
p357
aF0.126290370295861
aF0.00017165030873335943
aF1.442424449198349
aF0.05242882517924741
aF0.01839777698572065
aF3.319466937844878e-05
aF0.06363281194944853
aF0.01733743433049481
aF-0.0057558168333983915
aF0.00017609809790831627
aF6.359939414418703e-06
aF1.129680677461331e-06
aF0.126290370295861
aF0.00017165030873335943
aF0.01839777698572065
aF3.319466937844878e-05
aF0.005824055715050717
aF1.3156128337054507e-05
aI0
aF61.366318507429575
aI19
aa(lp358
g307
ag28
aS'2371'
p359
aF0.12470259652108123
aF0.00015383931440760693
aF1.4753161780617312
aF0.07775664339792931
aF0.018791141245272064
aF3.364139397944721e-05
aF0.036757700825276685
aF0.013425961740079179
aF-0.005770510184366457
aF0.00015290505435708855
aF5.769371049901828e-06
aF1.0740307256201787e-06
aF0.12470259652108123
aF0.00015383931440760693
aF0.018791141245272064
aF3.364139397944721e-05
aF0.005873792325350619
aF1.2770591680314173e-05
aI0
aF41.218684118577
aI19
aa(lp360
g307
ag28
aS'2411'
p361
aF0.12532794836183198
aF0.0002000046719975127
aF1.39364934889452
aF0.03592414156093704
aF0.018520735363522563
aF4.107358549685497e-05
aF0.11686882905458967
aF0.02798862514887987
aF-0.0056894842655192705
aF0.00018298079706068675
aF7.008945264536104e-06
aF1.0846384355389649e-06
aF0.12532794836183198
aF0.0002000046719975127
aF0.018520735363522563
aF4.107358549685497e-05
aF0.005818299737313014
aF1.5896813301827972e-05
aI0
aF36.070074926372996
aI19
aa(lp362
g307
ag28
aS'2451'
p363
aF0.12505941684440525
aF0.00016886279670145875
aF1.48698306792937
aF0.05228798288021863
aF0.018700211264654553
aF3.4890263609588246e-05
aF0.055475896800190605
aF0.013648385266641028
aF-0.005365331740238609
aF0.00016801263774025534
aF5.820901419734126e-06
aF1.1839261158247405e-06
aF0.12505941684440525
aF0.00016886279670145875
aF0.018700211264654553
aF3.4890263609588246e-05
aF0.0058620949207781135
aF1.3501023558738543e-05
aI0
aF33.63931518380029
aI19
aa(lp364
g307
ag28
aS'2674'
p365
aF0.12165073991911848
aF0.0001853969841086684
aF1.473225704346708
aF0.07459719397437481
aF0.0207086063153618
aF4.4352648926573174e-05
aF0.036199695673324594
aF0.013146111235935481
aF-0.007358200273756732
aF0.00018111226194474225
aF7.64643898173989e-06
aF1.0195435790200102e-06
aF0.12165073991911848
aF0.0001853969841086684
aF0.0207086063153618
aF4.4352648926573174e-05
aF0.00631474126638708
aF1.6599122032125803e-05
aI0
aF35.94897637273677
aI19
aa(lp366
g307
ag28
aS'sum'
p367
aF0.13017441066335797
aF0.000696956357777151
aF0.29390009391433625
aF0.05636731608927682
aF0.0006542504378376837
aF6.585644380221523e-07
aF0.9944247972849272
aF0.0006163577896797223
aF-0.00548662489757574
aF3.411745643089502e-05
aF1.1896730088889473e-05
aF6.755136103958614e-07
aF0.13017441066335797
aF0.000696956357777151
aF0.0006542504378376837
aF6.585644380221523e-07
aF0.0002134811709755759
aF1.1630072901709832e-06
aI0
aF26545.372041259892
aI19
aa(lp368
S'5'
p369
ag28
ag27
aF0.13370951541827522
aF0.0001694475699153503
aF1.0000000081685563
aF0.06321039086318686
aF0.014780787418287438
aF2.530871677679583e-05
aF0.08264587172140742
aF0.5401462644563484
aF-0.011975621107777347
aF0.00020134953179045743
aF2.2906399414240886e-05
aF2.2553031287231295e-06
aF0.13370951541827522
aF0.0001694475699153503
aF0.014780787418287438
aF2.530871677679583e-05
aF0.004953929478748362
aF1.05530031098163e-05
aI0
aF27.7141359112793
aI13
aa(lp370
g369
ag28
aS'51'
p371
aF0.12620461407310254
aF0.0001777776032223381
aF0.59276523963508
aF0.03249057040748865
aF0.018199322063825876
aF3.289662351685027e-05
aF0.973707014221249
aF0.007250958830687049
aF-0.009460188203381008
aF0.00017313760038924217
aF8.326672684688674e-17
aF4.849365078177237e-06
aF0.12620461407310254
aF0.0001777776032223381
aF0.018199322063825876
aF3.289662351685027e-05
aF0.00575732011945705
aF1.319369675278511e-05
aI0
aF38.934646569120574
aI13
aa(lp372
g369
ag28
aS'91'
p373
aF0.12767075521136093
aF0.00019139478224903573
aF0.5717111524234484
aF0.04259695694304627
aF0.017686991555236585
aF3.736724129896167e-05
aF0.9770224217956267
aF0.007900473849380363
aF-0.009595885100346244
aF0.00018681232052350822
aF1.3580803148727227e-13
aF1.1231679242829085e-05
aF0.12767075521136093
aF0.00019139478224903573
aF0.017686991555236585
aF3.736724129896167e-05
aF0.0056602463068136325
aF1.4663064249491825e-05
aI0
aF20.620373680056847
aI13
aa(lp374
g369
ag28
aS'131'
p375
aF0.12748239235106287
aF0.00019876332585562628
aF0.5528719721426721
aF0.04808143772592066
aF0.017844958009728087
aF3.9993947811555255e-05
aF0.9810735007734224
aF0.00697052761406608
aF-0.009682293820220652
aF0.0001996319336936173
aF2.76667577736589e-13
aF1.4811563736491506e-05
aF0.12748239235106287
aF0.00019876332585562628
aF0.017844958009728087
aF3.9993947811555255e-05
aF0.005702373627070259
aF1.556848492463101e-05
aI0
aF11.530491596169076
aI13
aa(lp376
g369
ag28
aS'171'
p377
aF0.1276627268704684
aF0.0002001907765825148
aF0.6760390279498233
aF0.030033802925459374
aF0.01765619755826112
aF4.190900947005985e-05
aF0.9373219522913336
aF0.02046281634159547
aF-0.00951513258114955
aF0.00019572211754065736
aF4.440892098500626e-16
aF6.0133675541529374e-06
aF0.1276627268704684
aF0.0002001907765825148
aF0.01765619755826112
aF4.190900947005985e-05
aF0.00565003620118482
aF1.607338910057849e-05
aI0
aF27.851892814907195
aI13
aa(lp378
g369
ag28
aS'211'
p379
aF0.12635684570043637
aF0.00015911059227582898
aF0.570048143700737
aF0.049867200530752775
aF0.018077697435342984
aF2.861096754390967e-05
aF0.9828368069950546
aF0.006828296335015471
aF-0.009690019205525601
aF0.00018756604178514735
aF1.2735645871231327e-12
aF1.0923194006667858e-05
aF0.12635684570043637
aF0.00015911059227582898
aF0.018077697435342984
aF2.861096754390967e-05
aF0.00572574263915649
aF1.1580247661073352e-05
aI0
aF23.831899700739438
aI13
aa(lp380
g369
ag28
aS'251'
p381
aF0.12578491979369888
aF0.00013059898725110964
aF0.6642607665888776
aF0.004335222814438766
aF0.018118611246667075
aF2.63455495510493e-05
aF0.9348496768276289
aF0.0021251397132990846
aF-0.009268816829764697
aF0.00016304397844363032
aF1.0408340855860843e-14
aF2.5592847237715377e-06
aF0.12578491979369888
aF0.00013059898725110964
aF0.018118611246667075
aF2.63455495510493e-05
aF0.005712726312543141
aF1.0206932987163936e-05
aI0
aF54.329664539431455
aI13
aa(lp382
g369
ag28
aS'291'
p383
aF0.12606983677513794
aF0.00017934615964032913
aF0.630234760723123
aF0.030804281195696226
aF0.018147152815838164
aF3.366317343074347e-05
aF0.9597763021896937
aF0.011635973278597722
aF-0.010005813699250654
aF0.00018407374082956356
aF5.551115123125783e-17
aF3.813243089956231e-06
aF0.12606983677513794
aF0.00017934615964032913
aF0.018147152815838164
aF3.366317343074347e-05
aF0.0057346857072258966
aF1.3405972985787964e-05
aI0
aF41.412430533831696
aI13
aa(lp384
g369
ag28
aS'771'
p385
aF0.1256314210775637
aF0.00016651065599207444
aF1.571274382803369
aF0.08813127311293578
aF0.018229475063431706
aF3.2838884810815205e-05
aF0.03388006772459817
aF0.011691960637991744
aF-0.009563430725461354
aF0.00017778891966919574
aF3.608224830031759e-16
aF6.760648452674989e-06
aF0.1256314210775637
aF0.00016651065599207444
aF0.018229475063431706
aF3.2838884810815205e-05
aF0.005740667184767792
aF1.2838783830869939e-05
aI0
aF34.508466923467225
aI13
aa(lp386
g369
ag28
aS'811'
p387
aF0.12545498340856523
aF0.00018233643818211617
aF0.6609596616546578
aF0.01713517765543776
aF0.018080372319070122
aF3.398258823551249e-05
aF0.9249630804696958
aF0.014459704722632694
aF-0.009772959481086009
aF0.0001733507371464229
aF2.5790480862042386e-13
aF3.2083438782359863e-06
aF0.12545498340856523
aF0.00018233643818211617
aF0.018080372319070122
aF3.398258823551249e-05
aF0.005685716758392195
aF1.3508819724139904e-05
aI0
aF41.85832252890716
aI13
aa(lp388
g369
ag28
aS'851'
p389
aF0.12599461135373116
aF0.00018158025879447994
aF1.4578152965044837
aF0.03796636806719167
aF0.018080377093235865
aF3.5241037760931626e-05
aF0.10147603051364906
aF0.021238875393688433
aF-0.009604056992801294
aF0.00016906251158698365
aF1.1254885912137524e-13
aF4.427789493402501e-06
aF0.12599461135373116
aF0.00018158025879447994
aF0.018080377093235865
aF3.5241037760931626e-05
aF0.005710174621498892
aF1.3841844352445589e-05
aI0
aF20.596294428281286
aI13
aa(lp390
g369
ag28
aS'891'
p391
aF0.12556938747230464
aF0.00017107137140487305
aF1.5607668426643588
aF0.05518259954609417
aF0.01826212733813149
aF3.5260001439600674e-05
aF0.05724049591943192
aF0.013281896620750994
aF-0.01037964604509101
aF0.0001740814260210607
aF2.220446049250313e-16
aF4.598331899641206e-06
aF0.12556938747230464
aF0.00017107137140487305
aF0.01826212733813149
aF3.5260001439600674e-05
aF0.005748110081195007
aF1.358296662741491e-05
aI0
aF39.80563559419957
aI13
aa(lp392
g369
ag28
aS'931'
p393
aF0.12412962505115628
aF0.0001635406497177959
aF0.5889770622467891
aF0.037647904622535255
aF0.018637464694931112
aF3.7207224987295326e-05
aF0.9762405123029156
aF0.007586011721511854
aF-0.009234347840137921
aF0.00016421190183059392
aF1.1102230246251565e-16
aF5.074958145376285e-06
aF0.12412962505115628
aF0.0001635406497177959
aF0.018637464694931112
aF3.7207224987295326e-05
aF0.005798988019414884
aF1.3870720945052202e-05
aI0
aF27.630074095869606
aI13
aa(lp394
g369
ag28
aS'971'
p395
aF0.12463808248521771
aF0.0002029790246868952
aF0.6397916969270653
aF0.03114577665104773
aF0.018445405010435643
aF4.069978390904526e-05
aF0.9570002878768871
aF0.013038560984256486
aF-0.009491615075152528
aF0.00020024499610689454
aF5.350164755668629e-13
aF5.339192841137541e-05
aF0.12463808248521771
aF0.0002029790246868952
aF0.018445405010435643
aF4.069978390904526e-05
aF0.005762738180697655
aF1.580378632335027e-05
aI0
aF29.02525046288883
aI13
aa(lp396
g369
ag28
aS'1011'
p397
aF0.1253275086711307
aF0.00017663390429261747
aF1.596431955002144
aF0.07693799524304079
aF0.018277808724676263
aF3.747612188219687e-05
aF0.04454716266420339
aF0.012230415970884062
aF-0.009340427736317086
aF0.00016765877078862948
aF1.27675647831893e-15
aF8.366926688249676e-06
aF0.1253275086711307
aF0.00017663390429261747
aF0.018277808724676263
aF3.747612188219687e-05
aF0.005741964048348349
aF1.4286223135720657e-05
aI0
aF19.63956210540423
aI13
aa(lp398
g369
ag28
aS'1631'
p399
aF0.12311324635886912
aF0.00016046824794465977
aF0.6117601886494716
aF0.03206287788944734
aF0.018987089972870897
aF3.5058180060575095e-05
aF0.9689348019298805
aF0.009110887789611832
aF-0.009545670177252635
aF0.00016471857425887264
aF2.220446049250313e-16
aF6.221903407155338e-06
aF0.12311324635886912
aF0.00016046824794465977
aF0.018987089972870897
aF3.5058180060575095e-05
aF0.0058593997184653215
aF1.3242991802971908e-05
aI0
aF26.003274120574382
aI13
aa(lp400
g369
ag28
aS'1671'
p401
aF0.12350975332833396
aF0.00018817870129900783
aF0.6798771719983562
aF0.015196579546788047
aF0.018732997449269536
aF3.544328108806907e-05
aF0.8963426638619112
aF0.019920500729453283
aF-0.009499673432341474
aF0.00019418587561588442
aF1.166289287368727e-13
aF5.312488348077626e-06
aF0.12350975332833396
aF0.00018817870129900783
aF0.018732997449269536
aF3.544328108806907e-05
aF0.005799605626486714
aF1.408849805751609e-05
aI0
aF20.31775363465145
aI13
aa(lp402
g369
ag28
aS'1711'
p403
aF0.12395385543281023
aF0.0001571946832000572
aF0.6687030575421534
aF0.004528116379811431
aF0.01878273252414705
aF3.7181946894233875e-05
aF0.9336452764979584
aF0.0024660643227515933
aF-0.009338714439960703
aF0.00018018771064212712
aF2.3148150063434514e-14
aF3.4537401387008115e-06
aF0.12395385543281023
aF0.0001571946832000572
aF0.01878273252414705
aF3.7181946894233875e-05
aF0.005835912176539774
aF1.3719979990596604e-05
aI0
aF36.31792717126716
aI13
aa(lp404
g369
ag28
aS'1751'
p405
aF0.12509408828405996
aF0.0001946664017566159
aF0.6038217053336106
aF0.029191167133070073
aF0.018487290057565574
aF4.0544432541327405e-05
aF0.9631358195125423
aF0.00968790130894115
aF-0.009938579147496017
aF0.00019125197965145835
aF5.551115123125783e-17
aF7.903729962011052e-06
aF0.12509408828405996
aF0.0001946664017566159
aF0.018487290057565574
aF4.0544432541327405e-05
aF0.005796955620414673
aF1.55886495275919e-05
aI0
aF46.290221626701985
aI13
aa(lp406
g369
ag28
aS'1791'
p407
aF0.12424582144750598
aF0.00016728830669477263
aF1.6390081075419802
aF0.062278586845998185
aF0.0186669889102985
aF3.4232795533727794e-05
aF0.036703709696060904
aF0.008103914813879731
aF-0.009850372171291543
aF0.000173688258323732
aF9.43689570931383e-16
aF5.3468602468215165e-06
aF0.12424582144750598
aF0.00016728830669477263
aF0.0186669889102985
aF3.4232795533727794e-05
aF0.005813611354448939
aF1.3226376071652006e-05
aI0
aF33.783877139875585
aI13
aa(lp408
g369
ag28
aS'1831'
p409
aF0.12309952405951681
aF0.00016461644209861517
aF1.5455090725701957
aF0.040475257096154516
aF0.01886447594229444
aF3.767090611824474e-05
aF0.0733467671060935
aF0.013143812412159644
aF-0.009337997307365226
aF0.0001669182991670547
aF9.29034627006331e-13
aF8.660742355684481e-06
aF0.12309952405951681
aF0.00016461644209861517
aF0.01886447594229444
aF3.767090611824474e-05
aF0.005820912257763067
aF1.3989547417918847e-05
aI0
aF19.292217439950157
aI13
aa(lp410
g369
ag28
aS'1871'
p411
aF0.12439876696139729
aF0.0001826678534227242
aF1.4931770671923013
aF0.032743471802175295
aF0.018494217980162434
aF3.765036671539608e-05
aF0.098729091256617
aF0.017485916780835165
aF-0.009494204664495834
aF0.0001650179226951893
aF3.9335201762469296e-13
aF1.148960975730362e-05
aF0.12439876696139729
aF0.0001826678534227242
aF0.018494217980162434
aF3.765036671539608e-05
aF0.005766894174095787
aF1.4475548945859609e-05
aI0
aF19.158887816466127
aI13
aa(lp412
g369
ag28
aS'2211'
p413
aF0.1236014512099749
aF0.00012371960638960167
aF1.5573144765063787
aF0.010816856570216915
aF0.018704312201996698
aF2.9784878804646822e-05
aF0.05555821656883575
aF0.0018829281652494312
aF-0.009632639645604265
aF0.0001649937362824991
aF2.450817326860033e-14
aF2.709616042137486e-06
aF0.1236014512099749
aF0.00012371960638960167
aF0.018704312201996698
aF2.9784878804646822e-05
aF0.005795024106557272
aF1.0899688648299789e-05
aI0
aF44.90242985231269
aI13
aa(lp414
g369
ag28
aS'2251'
p415
aF0.12348650054153484
aF0.000164583153630684
aF0.6695614278149433
aF0.01854979598601053
aF0.018708217057201458
aF3.4433581334966656e-05
aF0.9220615149118134
aF0.016055270277910205
aF-0.00968490144843281
aF0.00016167010622984105
aF2.7755575615628914e-17
aF3.2820248847542643e-06
aF0.12348650054153484
aF0.000164583153630684
aF0.018708217057201458
aF3.4433581334966656e-05
aF0.0057908433607002634
aF1.3159392478042615e-05
aI0
aF28.187881656366166
aI13
aa(lp416
g369
ag28
aS'2291'
p417
aF0.12427107420680562
aF0.00017075564021552103
aF1.699204607366744
aF0.08008241056781773
aF0.018648588571543518
aF3.430365003486563e-05
aF0.029802372597141524
aF0.007240223684869346
aF-0.0094531984621274
aF0.00017694912640730287
aF1.3877787807814457e-16
aF6.156208194038615e-06
aF0.12427107420680562
aF0.00017075564021552103
aF0.018648588571543518
aF3.430365003486563e-05
aF0.00580906123034772
aF1.3337724201678152e-05
aI0
aF36.56593655713966
aI13
aa(lp418
g369
ag28
aS'2331'
p419
aF0.1250946933649798
aF0.00017581447915029512
aF0.6543418413426961
aF0.02773709240740424
aF0.018509857995606265
aF3.3179390187763544e-05
aF0.9509695960695121
aF0.014449601556994263
aF-0.009891229852386382
aF0.0001908251796509503
aF1.5265566588595902e-15
aF2.116411844564625e-05
aF0.1250946933649798
aF0.00017581447915029512
aF0.018509857995606265
aF3.3179390187763544e-05
aF0.005804060196025715
aF1.3220574044658368e-05
aI0
aF24.694851702569704
aI13
aa(lp420
g369
ag28
aS'2371'
p421
aF0.12308457928945946
aF0.00015827172971362078
aF1.3713529470163515
aF0.03398338186739647
aF0.01885218639004782
aF2.911587037639045e-05
aF0.10476596357960749
aF0.02686226047299664
aF-0.009634667281047251
aF0.00016804375622444753
aF4.188316360398403e-14
aF2.0724869589233696e-06
aF0.12308457928945946
aF0.00015827172971362078
aF0.01885218639004782
aF2.911587037639045e-05
aF0.005816413913738626
aF1.1689029608674437e-05
aI0
aF63.61009113544561
aI13
aa(lp422
g369
ag28
aS'2411'
p423
aF0.12400694486885641
aF0.00019668055147411455
aF0.6566707482457476
aF0.017814825494727793
aF0.018578796039402726
aF3.5175601706839005e-05
aF0.9227271509785766
aF0.015231129982865854
aF-0.009502781499608185
aF0.00019404019692470764
aF2.7755575615628914e-16
aF4.775818006036436e-06
aF0.12400694486885641
aF0.00019668055147411455
aF0.018578796039402726
aF3.5175601706839005e-05
aF0.005775020220643597
aF1.426347850692007e-05
aI0
aF28.27918686741809
aI13
aa(lp424
g369
ag28
aS'2451'
p425
aF0.12338097309204372
aF0.00018334880889933017
aF0.6616458173880526
aF0.01885364034016218
aF0.018855059275271844
aF3.689363080527919e-05
aF0.9259419205970172
aF0.01539055205717832
aF-0.009550157225191203
aF0.0001735483539969062
aF1.4102330414544895e-12
aF4.3916186578535354e-06
aF0.12338097309204372
aF0.00018334880889933017
aF0.018855059275271844
aF3.689363080527919e-05
aF0.005831308626276279
aF1.4327669446416725e-05
aI0
aF18.252799670932443
aI13
aa(lp426
g369
ag28
aS'2674'
p427
aF0.12053319012113982
aF0.00018179340278181745
aF0.6486837552213159
aF0.025589374054907132
aF0.020688701642371903
aF4.3660469646331426e-05
aF0.9550615400979567
aF0.01216213138729838
aF-0.011286606045854677
aF0.0001873801623716617
aF2.1649348980190553e-15
aF4.245345184172855e-06
aF0.12053319012113982
aF0.00018179340278181745
aF0.020688701642371903
aF4.3660469646331426e-05
aF0.006250716785170796
aF1.621382141152367e-05
aI0
aF21.327619852463023
aI13
aa(lp428
g369
ag28
aS'sum'
p429
aF0.12841968874161094
aF2.2934726737346686e-08
aF0.9931977808161921
aF5.271092904985711
aF0.0006367113189925745
aF1.9784999138149073e-10
aF0.9999999999999958
aF2.5603655189332386e-05
aF-0.009065885774679289
aF4.0304079010238885e-08
aF1.4356127931713925e-05
aF1.8678322777354595e-11
aF0.12841968874161094
aF2.2934726737346686e-08
aF0.0006367113189925745
aF1.9784999138149073e-10
aF0.00020495764279737476
aF7.345745967788924e-11
aI0
aF35967.867052340625
aI13
aa(lp430
S'6'
p431
ag91
ag27
aF0.13589640772105135
aF1.4104454554176975e-05
aF0.9995476684663509
aF9.372913361047708
aF0.01477293945580685
aF2.5341933978396264e-06
aF0.9999999615802468
aF0.5484787754553329
aF-0.007768200418151616
aF2.3245612179167105e-05
aF2.9870486830479992e-05
aF2.5240634396461736e-07
aF0.13589640772105135
aF1.4104454554176975e-05
aF0.01477293945580685
aF2.5341933978396264e-06
aF0.005032280362724684
aF1.0089563495230604e-06
aI0
aF31.678714821486942
aI13
aa(lp432
g431
ag91
aS'51'
p433
aF0.11517988633544494
aF0.00015977010759208435
aF2.4903565073761604
aF0.46654733033131746
aF0.018155353589891204
aF3.7723087782985665e-05
aF0.003289469883294427
aF0.0014845808495214108
aF-0.007402877070462637
aF0.00015848252184256703
aF5.1542464740705896e-11
aF8.454823206527351e-05
aF0.11517988633544494
aF0.00015977010759208435
aF0.018155353589891204
aF3.7723087782985665e-05
aF0.005241689501446915
aF1.3095177096990636e-05
aI0
aF19.712224306355786
aI13
aa(lp434
g431
ag91
aS'91'
p435
aF0.1168257768326253
aF0.00017699145171085453
aF0.5616814696356011
aF0.039445788036030216
aF0.01762348110146002
aF3.791639737680576e-05
aF0.9845428849092047
aF0.0051865128532022076
aF-0.007411883314050492
aF0.00018843057295187037
aF1.7819079545233762e-14
aF1.0659196033033225e-05
aF0.1168257768326253
aF0.00017699145171085453
aF0.01762348110146002
aF3.791639737680576e-05
aF0.005160838976759816
aF1.3580029825302235e-05
aI0
aF26.127219596477236
aI13
aa(lp436
g431
ag91
aS'131'
p437
aF0.11550277561829796
aF0.0003653216702652538
aF1.489024546060599
aF0.384244590545084
aF0.017829446325771103
aF4.641763515956035e-05
aF0.03342535960109272
aF0.0443444389150604
aF-0.0076046594567027205
aF0.00019654365911867078
aF6.385768049232965e-06
aF1.1560983792013868e-05
aF0.11550277561829796
aF0.0003653216702652538
aF0.017829446325771103
aF4.641763515956035e-05
aF0.005162026286839841
aF2.114645220830594e-05
aI0
aF23.33301101479497
aI13
aa(lp438
g431
ag91
aS'171'
p439
aF0.1161295965184851
aF0.000600635217015479
aF1.7275765326869739
aF0.6941986796519813
aF0.017605796254349947
aF4.1130074320876175e-05
aF0.017375925956374494
aF0.02076469025496236
aF-0.007209378801615043
aF0.00021030842666473298
aF2.1389094998214286e-06
aF6.368964627911922e-05
aF0.1161295965184851
aF0.000600635217015479
aF0.017605796254349947
aF4.1130074320876175e-05
aF0.005124936904022803
aF2.9085275173565964e-05
aI0
aF12.620200857107923
aI13
aa(lp440
g431
ag91
aS'211'
p441
aF0.11546578721718827
aF0.0001434873114417709
aF2.3446711247244516
aF0.3085334322903637
aF0.0181319743153204
aF3.911949876732497e-05
aF0.0042018784908722795
aF0.0015565693624752797
aF-0.007215483346669939
aF0.00015273053058919986
aF1.529332216421153e-14
aF9.555573467615042e-06
aF0.11546578721718827
aF0.0001434873114417709
aF0.0181319743153204
aF3.911949876732497e-05
aF0.0052479338264513255
aF1.3066206417747397e-05
aI0
aF39.671821911678585
aI13
aa(lp442
g431
ag91
aS'251'
p443
aF0.11532651419006082
aF0.00015393812705290623
aF1.6551216258616412
aF0.09617897486824478
aF0.01802395241692717
aF2.9822540739550887e-05
aF0.021054870036745332
aF0.007229621064629016
aF-0.007389036357558799
aF0.00015955659361766922
aF5.767608612927688e-13
aF6.763031194206848e-06
aF0.11532651419006082
aF0.00015393812705290623
aF0.01802395241692717
aF2.9822540739550887e-05
aF0.005210376804584654
aF1.1076701159359808e-05
aI0
aF25.04413586623712
aI13
aa(lp444
g431
ag91
aS'291'
p445
aF0.1147512328955893
aF0.00017792717725513375
aF1.5939608487405794
aF0.06400516102373166
aF0.01818224440731802
aF4.4261395303309484e-05
aF0.03196257493595939
aF0.008543791940997608
aF-0.007400056061152587
aF0.0001779810361219279
aF6.38378239159465e-16
aF5.731397385216885e-06
aF0.1147512328955893
aF0.00017792717725513375
aF0.01818224440731802
aF4.4261395303309484e-05
aF0.005229916870303184
aF1.509454780914444e-05
aI0
aF12.206176270697721
aI13
aa(lp446
g431
ag91
aS'771'
p447
aF0.11483118415812849
aF0.00014107751757434466
aF1.9032296118859793
aF0.17553693846513896
aF0.018279457985814873
aF3.468928476436234e-05
aF0.007809458704818917
aF0.003044846938080603
aF-0.007063765274710734
aF0.0001545919466994105
aF4.3798298321462426e-14
aF7.478325536505737e-06
aF0.11483118415812849
aF0.00014107751757434466
aF0.018279457985814873
aF3.468928476436234e-05
aF0.005261542607536421
aF1.1894706246084618e-05
aI0
aF26.13763555410225
aI13
aa(lp448
g431
ag91
aS'811'
p449
aF0.11541374604153946
aF0.00023730680811056125
aF1.441754213477951
aF0.19295683420246168
aF0.018060613874400486
aF3.623504843936788e-05
aF0.047847167322293604
aF0.037724375686422756
aF-0.007165204575906812
aF0.00014333725483810296
aF3.6168935023395132e-06
aF7.206434242484905e-06
aF0.11541374604153946
aF0.00023730680811056125
aF0.018060613874400486
aF3.623504843936788e-05
aF0.005224924018975643
aF1.5010143315070142e-05
aI0
aF19.14250617288904
aI13
aa(lp450
g431
ag91
aS'851'
p451
aF0.11531274857450931
aF0.00016264953726198784
aF1.6095460839300184
aF0.07420061586815874
aF0.017990311722578915
aF3.703347781801314e-05
aF0.02773921741640417
aF0.00778906863547138
aF-0.006991758300974805
aF0.00016539639013236516
aF6.287192988452261e-13
aF6.1113520150590794e-06
aF0.11531274857450931
aF0.00016264953726198784
aF0.017990311722578915
aF3.703347781801314e-05
aF0.0052000311683066715
aF1.2976188894868853e-05
aI0
aF22.444018801069642
aI13
aa(lp452
g431
ag91
aS'891'
p453
aF0.11459895727671869
aF0.00014951559638947607
aF1.639693060369349
aF0.07327541840193152
aF0.01818257077960464
aF3.533530824348374e-05
aF0.02342019292842945
aF0.006331022894730504
aF-0.006459897463647264
aF0.00016274540516687997
aF8.432143872028064e-14
aF5.0588931098660694e-06
aF0.11459895727671869
aF0.00014951559638947607
aF0.01818257077960464
aF3.533530824348374e-05
aF0.005223070489936826
aF1.2225620674640287e-05
aI0
aF16.177507292325053
aI13
aa(lp454
g431
ag91
aS'931'
p455
aF0.11416965134990319
aF0.0001392587047024627
aF2.131001743849887
aF0.26881855703711477
aF0.0185416318336072
aF3.51181250822126e-05
aF0.004464100406546878
aF0.002009619305850474
aF-0.007066092415743784
aF0.00016216099778461953
aF3.969047313034935e-15
aF9.902170066800053e-06
aF0.11416965134990319
aF0.0001392587047024627
aF0.0185416318336072
aF3.51181250822126e-05
aF0.0053062604439195905
aF1.1953920093593453e-05
aI0
aF33.534091624020256
aI13
aa(lp456
g431
ag91
aS'971'
p457
aF0.11428534080144717
aF0.00037289090330308025
aF1.6564144112140435
aF0.4110476259342122
aF0.018398876103290808
aF3.715773182970915e-05
aF0.022617242738246834
aF0.01966643826563877
aF-0.007349945704039415
aF0.00015184502808618155
aF2.121528631410241e-06
aF2.6422053106850418e-05
aF0.11428534080144717
aF0.00037289090330308025
aF0.018398876103290808
aF3.715773182970915e-05
aF0.005270741982304668
aF2.022519580163801e-05
aI0
aF23.75529427578368
aI13
aa(lp458
g431
ag91
aS'1011'
p459
aF0.1144207005294425
aF0.00016794765430364587
aF1.654447597228257
aF0.09090362180380152
aF0.01827197629135164
aF3.8733665169356224e-05
aF0.022803524003356224
aF0.0074929349486112795
aF-0.007481665741665438
aF0.00017616407074751134
aF2.7755575615628914e-17
aF1.688581993258831e-05
aF0.1144207005294425
aF0.00016794765430364587
aF0.01827197629135164
aF3.8733665169356224e-05
aF0.00524058850119891
aF1.3512370013612118e-05
aI0
aF21.327843439757107
aI13
aa(lp460
g431
ag91
aS'1631'
p461
aF0.11290410304992492
aF0.00014533235152222617
aF1.9015270410985852
aF0.16376236497018082
aF0.018876096019179545
aF3.4234513156920776e-05
aF0.008062129647354366
aF0.00304539030718487
aF-0.007489849668169326
aF0.0001753220829970384
aF1.9872992140790302e-14
aF4.203959512005806e-06
aF0.11290410304992492
aF0.00014533235152222617
aF0.018876096019179545
aF3.4234513156920776e-05
aF0.005342097829252974
aF1.1880899254486969e-05
aI0
aF33.279051635529235
aI13
aa(lp462
g431
ag91
aS'1671'
p463
aF0.11309683988668524
aF0.0002552222249884045
aF1.3808291603444995
aF0.14997913749070035
aF0.018708983885332514
aF3.6857513891359536e-05
aF0.08301908515111978
aF0.06709065307299458
aF-0.007684673170131654
aF0.00018072924820077078
aF8.370112197453317e-06
aF6.666531318172408e-06
aF0.11309683988668524
aF0.0002552222249884045
aF0.018708983885332514
aF3.6857513891359536e-05
aF0.005303842332261424
aF1.5888199893936118e-05
aI0
aF19.745725708952726
aI13
aa(lp464
g431
ag91
aS'1711'
p465
aF0.11299073717650579
aF0.00016793484551191722
aF1.5643337469306982
aF0.06634506365072412
aF0.01875045618616071
aF4.197973722707207e-05
aF0.03836786526170144
aF0.01083045832154736
aF-0.007232319691652692
aF0.0001727623428180418
aF1.512290292993157e-12
aF5.5819239364554574e-05
aF0.11299073717650579
aF0.00016793484551191722
aF0.01875045618616071
aF4.197973722707207e-05
aF0.005310612514517685
aF1.427114550131906e-05
aI0
aF47.825314818385
aI13
aa(lp466
g431
ag91
aS'1751'
p467
aF0.11370388118896688
aF0.0001834835025851704
aF1.6345497724220506
aF0.07525995948890651
aF0.01837806350477969
aF4.067947305836858e-05
aF0.02579032311378915
aF0.007449152399522735
aF-0.0074810502771643075
aF0.00020421530750307232
aF1.0529355165544985e-12
aF6.2995397296788935e-06
aF0.11370388118896688
aF0.0001834835025851704
aF0.01837806350477969
aF4.067947305836858e-05
aF0.00523799369454663
aF1.4348190807448614e-05
aI0
aF15.254985415648216
aI13
aa(lp468
g431
ag91
aS'1791'
p469
aF0.11386223407931727
aF0.0001386344298699902
aF2.060815957689804
aF0.20361087524827481
aF0.018642220567744797
aF3.54449542159848e-05
aF0.006124643208612335
aF0.002137578306642879
aF-0.00736661414716864
aF0.00014046420243437902
aF1.0534073613399642e-12
aF8.850284298825284e-06
aF0.11386223407931727
aF0.0001386344298699902
aF0.018642220567744797
aF3.54449542159848e-05
aF0.00532068167832932
aF1.2012849231218772e-05
aI0
aF44.39035759506585
aI13
aa(lp470
g431
ag91
aS'1831'
p471
aF0.11246538016365339
aF0.00019737365452211425
aF1.4082895015690753
aF0.1112983963503601
aF0.01881588016369422
aF3.974595365995558e-05
aF0.058390364379810156
aF0.031411452477872776
aF-0.00744552122091663
aF0.00018487303918070382
aF7.518971623710069e-06
aF4.21740659856118e-06
aF0.11246538016365339
aF0.00019737365452211425
aF0.01881588016369422
aF3.974595365995558e-05
aF0.005304364114012358
aF1.456721961514765e-05
aI0
aF20.831424186448135
aI13
aa(lp472
g431
ag91
aS'1871'
p473
aF0.11415239848082293
aF0.00016220021955906904
aF1.6076165219275431
aF0.06953709585677492
aF0.018451241980695678
aF3.5538472083262995e-05
aF0.0261003688038956
aF0.0069785207465821175
aF-0.007041454145487393
aF0.00016387771123950774
aF3.011479954295737e-14
aF5.097919085442215e-06
aF0.11415239848082293
aF0.00016220021955906904
aF0.018451241980695678
aF3.5538472083262995e-05
aF0.00527959464443593
aF1.2636605523621947e-05
aI0
aF21.6511956695824
aI13
aa(lp474
g431
ag91
aS'2211'
p475
aF0.11376345236068658
aF0.00014087814982084037
aF1.744626106221044
aF0.11672703181592292
aF0.0186336949184375
aF3.604832473555822e-05
aF0.011528268885611204
aF0.004119009355124714
aF-0.00741251080455272
aF0.00015518816946892222
aF1.5626389071599078e-14
aF2.7305585592191095e-06
aF0.11376345236068658
aF0.00014087814982084037
aF0.0186336949184375
aF3.604832473555822e-05
aF0.005313634498765499
aF1.2205272112621912e-05
aI0
aF27.759869968038313
aI13
aa(lp476
g431
ag91
aS'2251'
p477
aF0.11375764673793144
aF0.00016243795200402575
aF1.5991833983775334
aF0.06175442307359402
aF0.018650313910029456
aF3.956643339933161e-05
aF0.032814839148924524
aF0.008181835070127569
aF-0.007095416552206206
aF0.00016131687646324497
aF1.0212664047770659e-12
aF7.997204839335637e-06
aF0.11375764673793144
aF0.00016243795200402575
aF0.018650313910029456
aF3.956643339933161e-05
aF0.005318102205646891
aF1.3599895127811883e-05
aI0
aF20.74733106139768
aI13
aa(lp478
g431
ag91
aS'2291'
p479
aF0.11362687863557702
aF0.00015990155381461637
aF1.5744587235014635
aF0.058459574857577246
aF0.01862088042965358
aF3.8393929902636945e-05
aF0.03331620393632839
aF0.00843239961845954
aF-0.007220213968629011
aF0.0001762459842232679
aF3.938516179857743e-14
aF2.2181550608929568e-06
aF0.11362687863557702
aF0.00015990155381461637
aF0.01862088042965358
aF3.8393929902636945e-05
aF0.005303605620689784
aF1.323957240168776e-05
aI0
aF20.9960583452807
aI13
aa(lp480
g431
ag91
aS'2331'
p481
aF0.11378836065582845
aF0.0003637872735535556
aF1.6665666293575352
aF0.5387355921399182
aF0.018447808504415634
aF3.805417644444503e-05
aF0.016245179645293262
aF0.0182508000563959
aF-0.006946227774487201
aF0.00017918360134120052
aF4.353341260643351e-06
aF1.4286301081412045e-05
aF0.11378836065582845
aF0.0003637872735535556
aF0.018447808504415634
aF3.805417644444503e-05
aF0.005261778433957553
aF2.0019868516363777e-05
aI0
aF18.216659675969456
aI13
aa(lp482
g431
ag91
aS'2371'
p483
aF0.1132962799578396
aF0.00012853734827655226
aF1.7071660380355032
aF0.1083739233399148
aF0.01884604548052151
aF2.940532204557915e-05
aF0.013652483880369437
aF0.0047101132184082795
aF-0.007227309771406096
aF0.00014390190429204805
aF6.492584248007915e-13
aF7.971644498756814e-05
aF0.1132962799578396
aF0.00012853734827655226
aF0.01884604548052151
aF2.940532204557915e-05
aF0.005352119716944583
aF1.0325089084585437e-05
aI0
aF30.11555159926491
aI13
aa(lp484
g431
ag91
aS'2411'
p485
aF0.11378599511504368
aF0.00015362453111114122
aF1.5884482528351964
aF0.06948771016466682
aF0.018575107867440915
aF3.706528727276566e-05
aF0.03188780224738996
aF0.008851912497085584
aF-0.0070592946808031775
aF0.00017029714904706505
aF3.901046152776644e-13
aF5.499296273460408e-05
aF0.11378599511504368
aF0.00015362453111114122
aF0.018575107867440915
aF3.706528727276566e-05
aF0.005297977268639614
aF1.2764223812813507e-05
aI0
aF19.178516479254494
aI13
aa(lp486
g431
ag91
aS'2451'
p487
aF0.11274833512447519
aF0.00016606030141404595
aF1.6845487776318597
aF0.08176854640274167
aF0.018832428211043174
aF4.039044629529191e-05
aF0.02224538879729082
aF0.006199683369105036
aF-0.007421529742227115
aF0.0001760817448178783
aF5.2735593669694936e-15
aF4.91806324432742e-05
aF0.11274833512447519
aF0.00016606030141404595
aF0.018832428211043174
aF4.039044629529191e-05
aF0.005322386298613766
aF1.3847535181622629e-05
aI0
aF13.569489315047084
aI13
aa(lp488
g431
ag91
aS'2674'
p489
aF0.11052552357944237
aF0.00014414988405811438
aF0.4842534551506953
aF0.04320981802632351
aF0.020603415765971515
aF3.992737586737925e-05
aF0.9938913591559562
aF0.0021392423754963974
aF-0.0074764290739151315
aF0.00017924991390373245
aF3.7192471324942744e-15
aF5.6236408105259095e-06
aF0.11052552357944237
aF0.00014414988405811438
aF0.020603415765971515
aF3.992737586737925e-05
aF0.005708102216610183
aF1.333358925776481e-05
aI0
aF28.75093943479197
aI13
aa(lp490
g431
ag91
aS'sum'
p491
aF0.11685963214515653
aF1.8210587519576785e-05
aF0.12960213775749405
aF9.773477093410277
aF0.0006517046473370446
aF1.7797233750404618e-07
aF0.0
aF0.006435711670458061
aF-0.007618228621359361
aF3.214701481962466e-05
aF1.361716076672681e-05
aF1.2035519261766048e-08
aF0.11685963214515653
aF1.8210587519576785e-05
aF0.0006517046473370446
aF1.7797233750404618e-07
aF0.00019089970929745176
aF6.002290668003688e-08
aI0
aF39020.7031719247
aI13
aa(lp492
S'7'
p493
ag28
ag27
aF0.13539252154480194
aF1.1487790596411798e-05
aF0.1000000245674238
aF9.52536377019105
aF0.014882341073014085
aF2.2937919230900383e-06
aF7.204292717943872e-12
aF0.20071472027920242
aF0.020189343081089155
aF1.947310372851676e-05
aF2.6910904325216922e-05
aF2.0362998841283453e-07
aF0.13539252154480194
aF1.1487790596411798e-05
aF0.014882341073014085
aF2.2937919230900383e-06
aF0.005050749903814692
aF8.886272312329856e-07
aI0
aF41.67944041636023
aI13
aa(lp494
g493
ag28
aS'51'
p495
aF0.1280973376759325
aF0.00016727788000188572
aF0.5822301166823401
aF0.04260058056172272
aF0.018228651237670278
aF2.8526559619920788e-05
aF0.9765016128355916
aF0.007924001546435355
aF0.018205366089565567
aF0.0001775440843019181
aF1.1102230246251565e-16
aF1.0455154213495632e-05
aF0.1280973376759325
aF0.00016727788000188572
aF0.018228651237670278
aF2.8526559619920788e-05
aF0.005853081530037468
aF1.192979453020975e-05
aI0
aF25.446245035249724
aI13
aa(lp496
g493
ag28
aS'91'
p497
aF0.1293456684101031
aF0.00018646332886919289
aF0.63688631445877
aF0.04809817838344632
aF0.01775736977791059
aF3.786774564270255e-05
aF0.9680567966744908
aF0.014071106642776443
aF0.01806639773566822
aF0.0001837804682865289
aF1.5962231536548188e-13
aF2.9253187934993874e-05
aF0.1293456684101031
aF0.00018646332886919289
aF0.01775736977791059
aF3.786774564270255e-05
aF0.005757321236590997
aF1.481967704544616e-05
aI0
aF26.250515945912362
aI13
aa(lp498
g493
ag28
aS'131'
p499
aF0.12933060188713502
aF0.00019308818373799507
aF0.5720802830600411
aF0.04698508622440689
aF0.01792970688454268
aF3.296848673496264e-05
aF0.9792272141040965
aF0.007673347644310657
aF0.018556028257004257
aF0.000198003825226645
aF8.881784197001252e-16
aF1.0720321789517429e-05
aF0.12933060188713502
aF0.00019308818373799507
aF0.01792970688454268
aF3.296848673496264e-05
aF0.00581251949706729
aF1.3767261206043129e-05
aI0
aF36.22191092259372
aI13
aa(lp500
g493
ag28
aS'171'
p501
aF0.12961183819482255
aF0.00017468898775627512
aF0.6148659992310989
aF0.041537624416578656
aF0.01773425208940552
aF3.258683950051362e-05
aF0.9666480821528074
aF0.012014307320654338
aF0.0184841837618724
aF0.0001830612018886885
aF5.255629265121797e-12
aF1.1303940092452502e-05
aF0.12961183819482255
aF0.00017468898775627512
aF0.01773425208940552
aF3.258683950051362e-05
aF0.0057616580774675075
aF1.3129710132226349e-05
aI0
aF20.051949749395046
aI13
aa(lp502
g493
ag28
aS'211'
p503
aF0.12807685518212755
aF0.00017427316137175276
aF0.545541247086243
aF0.04712813394451326
aF0.018159702525003096
aF3.553127066698372e-05
aF0.9853955421618614
aF0.005173185787440193
aF0.01813379146424661
aF0.00017521114682872543
aF6.938893903907228e-16
aF7.659931309161871e-06
aF0.12807685518212755
aF0.00017427316137175276
aF0.018159702525003096
aF3.553127066698372e-05
aF0.00583001026640992
aF1.3894231553401247e-05
aI0
aF37.80953906113268
aI13
aa(lp504
g493
ag28
aS'251'
p505
aF0.12742589298222332
aF0.00018461696197412874
aF0.6640668987151633
aF0.02479849158281161
aF0.01823014170666557
aF3.588377183186796e-05
aF0.9362938960554288
aF0.01624412765867045
aF0.018555513818180103
aF0.00018769033540373356
aF1.3877787807814457e-16
aF3.8417465725443245e-06
aF0.12742589298222332
aF0.00018461696197412874
aF0.01823014170666557
aF3.588377183186796e-05
aF0.00582287764492357
aF1.4231639633083729e-05
aI0
aF29.388565415898825
aI13
aa(lp506
g493
ag28
aS'291'
p507
aF0.127872050211815
aF0.0001445831946788093
aF0.672748098576459
aF0.00577303908222232
aF0.01823307948353343
aF3.279852902655575e-05
aF0.944883284676002
aF0.002378245369273224
aF0.018412318947426717
aF0.0001858406280758361
aF2.6117996654306808e-14
aF4.138942630044218e-06
aF0.127872050211815
aF0.0001445831946788093
aF0.01823307948353343
aF3.279852902655575e-05
aF0.005844206968708217
aF1.2417123291553024e-05
aI0
aF26.056213365290294
aI13
aa(lp508
g493
ag28
aS'771'
p509
aF0.12717360154054527
aF0.0001824559017029364
aF1.4947947504084542
aF0.0590667870790027
aF0.018326932033868096
aF3.385731912033778e-05
aF0.06054305626131096
aF0.01693514457677142
aF0.018470927323939967
aF0.00017212501785846172
aF4.41591208044656e-14
aF4.5822390748323505e-06
aF0.12717360154054527
aF0.0001824559017029364
aF0.018326932033868096
aF3.385731912033778e-05
aF0.00584220341245993
aF1.3665360375951113e-05
aI0
aF25.064318502322195
aI13
aa(lp510
g493
ag28
aS'811'
p511
aF0.12748484295115034
aF0.00017198052992189628
aF1.5126245247022303
aF0.04282099526820238
aF0.01809435224163077
aF3.351585346137581e-05
aF0.07816288196688709
aF0.01566117732356237
aF0.01867452002402479
aF0.0001628679936686946
aF3.3306690738754696e-16
aF5.586158018752729e-06
aF0.12748484295115034
aF0.00017198052992189628
aF0.01809435224163077
aF3.351585346137581e-05
aF0.005782178944547913
aF1.3249677698271863e-05
aI0
aF35.10549449752062
aI13
aa(lp512
g493
ag28
aS'851'
p513
aF0.12766096315911687
aF0.0001423273037687627
aF0.6809583207674121
aF0.0035633283157605056
aF0.018094896659126586
aF2.7553507890017842e-05
aF0.906180429347218
aF0.0032225506938835524
aF0.018546338085710438
aF0.00017325275156555248
aF6.089573290068984e-14
aF9.957157664206018e-06
aF0.12766096315911687
aF0.0001423273037687627
aF0.018094896659126586
aF2.7553507890017842e-05
aF0.0057903412329331294
aF1.0927729867192424e-05
aI0
aF23.749784534946844
aI13
aa(lp514
g493
ag28
aS'891'
p515
aF0.12748523663362593
aF0.00014251035690412446
aF1.4949176477730706
aF0.010515803104325427
aF0.018363454213214354
aF3.240252785174577e-05
aF0.07347243785495483
aF0.0025839791155444214
aF0.018768385026681038
aF0.0001686263625637303
aF2.0788926136106056e-14
aF4.069095239214726e-06
aF0.12748523663362593
aF0.00014251035690412446
aF0.018363454213214354
aF3.240252785174577e-05
aF0.005868190514744898
aF1.2257506718541982e-05
aI0
aF36.184703046227206
aI13
aa(lp516
g493
ag28
aS'931'
p517
aF0.12621004366896724
aF0.00017359077605954047
aF0.5276149913600315
aF0.04267405036730698
aF0.018676418072638118
aF3.5776678389384114e-05
aF0.9840847475923801
aF0.004845356632513065
aF0.018294390771475016
aF0.00016856487246268392
aF4.163336342344337e-16
aF7.5020678981380096e-06
aF0.12621004366896724
aF0.00017359077605954047
aF0.018676418072638118
aF3.5776678389384114e-05
aF0.005908502699076367
aF1.3933682421311634e-05
aI0
aF38.69834458904446
aI13
aa(lp518
g493
ag28
aS'971'
p519
aF0.1264537053392295
aF0.0001703467212554208
aF1.5393538858266151
aF0.07556248008565425
aF0.018512744134704072
aF3.6957565051932983e-05
aF0.04859983266925044
aF0.01511493914872647
aF0.018470075838438977
aF0.00017548667753275734
aF1.1851630787873546e-14
aF6.864984201174207e-06
aF0.1264537053392295
aF0.0001703467212554208
aF0.018512744134704072
aF3.6957565051932983e-05
aF0.0058680295542372675
aF1.413213018444272e-05
aI0
aF24.94249813818043
aI13
aa(lp520
g493
ag28
aS'1011'
p521
aF0.1267393834088125
aF0.00018013804511404346
aF0.6977782718796421
aF0.02335311758878772
aF0.018422752232502112
aF3.334961141810561e-05
aF0.9184434770795254
aF0.023279198253518374
aF0.01814010020278063
aF0.00018820486520415488
aF1.942890293094024e-16
aF5.619197191872316e-06
aF0.1267393834088125
aF0.00018013804511404346
aF0.018422752232502112
aF3.334961141810561e-05
aF0.0058526969272125725
aF1.3470283701978181e-05
aI0
aF19.675626332509495
aI13
aa(lp522
g493
ag28
aS'1631'
p523
aF0.12492279485692906
aF0.0001555162354190595
aF0.6833721654756414
aF0.020573458509998033
aF0.01897043778128797
aF3.0695244367195604e-05
aF0.9352990774156122
aF0.015433372416262858
aF0.018381182666055967
aF0.00016871872514849124
aF8.326672684688674e-17
aF2.293391107702214e-06
aF0.12492279485692906
aF0.0001555162354190595
aF0.01897043778128797
aF3.0695244367195604e-05
aF0.005940308219307664
aF1.2127369518090449e-05
aI0
aF26.282594927595706
aI13
aa(lp524
g493
ag28
aS'1671'
p525
aF0.12475453374752835
aF0.00020386171738118801
aF1.461764555257744
aF0.024850981707808084
aF0.018938737201313678
aF3.8895465710085675e-05
aF0.13341580798833075
aF0.021057338151839383
aF0.01832218565789552
aF0.00018479162044603392
aF1.6653345369377348e-16
aF3.327753314741333e-06
aF0.12475453374752835
aF0.00020386171738118801
aF0.018938737201313678
aF3.8895465710085675e-05
aF0.005922393903547689
aF1.554353466912953e-05
aI0
aF16.455819408823423
aI13
aa(lp526
g493
ag28
aS'1711'
p527
aF0.1255773825190849
aF0.00018472235668179194
aF1.4664414973249311
aF0.05168187773636501
aF0.018847191294481126
aF4.0290527825113595e-05
aF0.07355064285876994
aF0.019886396046993493
aF0.01843197251319507
aF0.0001804155037337063
aF5.551115123125783e-17
aF3.386163061627756e-06
aF0.1255773825190849
aF0.00018472235668179194
aF0.018847191294481126
aF4.0290527825113595e-05
aF0.005932640050625538
aF1.539489490027185e-05
aI0
aF32.85549979963021
aI13
aa(lp528
g493
ag28
aS'1751'
p529
aF0.1267594727778924
aF0.00019924635020409964
aF1.471573785713187
aF0.06677286424055184
aF0.018641774343412024
aF3.8284295800059334e-05
aF0.059328795925621125
aF0.01996857826701906
aF0.018305953931248824
aF0.00019085351816447438
aF5.76594327839075e-13
aF7.003478817116382e-06
aF0.1267594727778924
aF0.00019924635020409964
aF0.018641774343412024
aF3.8284295800059334e-05
aF0.005923216473915917
aF1.5318488390206635e-05
aI0
aF19.238822211488078
aI13
aa(lp530
g493
ag28
aS'1791'
p531
aF0.12584099620698813
aF0.00014728495099065666
aF0.6737476325270086
aF0.01845218598667997
aF0.018701049936700166
aF3.0133235514802e-05
aF0.9311485853347339
aF0.013651250662678471
aF0.018416400590317215
aF0.00016120852660498854
aF1.101063684671999e-13
aF2.6177985864433984e-06
aF0.12584099620698813
aF0.00014728495099065666
aF0.018701049936700166
aF3.0133235514802e-05
aF0.005898995593505235
aF1.1748003683096439e-05
aI0
aF23.06714920337786
aI13
aa(lp532
g493
ag28
aS'1831'
p533
aF0.12513902965814938
aF0.0003598282142642327
aF0.6847740670338729
aF0.05475266390238093
aF0.01882164670841685
aF4.073485627047527e-05
aF0.896471614753301
aF0.04713893016476073
aF0.01864472008365786
aF0.0001791094044477318
aF9.82383276088017e-07
aF5.182499563873011e-05
aF0.12513902965814938
aF0.0003598282142642327
aF0.01882164670841685
aF4.073485627047527e-05
aF0.005903918239224381
aF2.1247615599902737e-05
aI0
aF31.839097621713844
aI13
aa(lp534
g493
ag28
aS'1871'
p535
aF0.12624642931491464
aF0.0001899494190702538
aF0.693029456871675
aF0.014547883988820898
aF0.018533054308759164
aF3.474703211828363e-05
aF0.8748318397685222
aF0.024246297756551516
aF0.018798948574594583
aF0.00017511932096047836
aF3.9968028886505635e-15
aF9.55397808857783e-06
aF0.12624642931491464
aF0.0001899494190702538
aF0.018533054308759164
aF3.474703211828363e-05
aF0.0058648382127507274
aF1.4098720566277779e-05
aI0
aF12.154632295482799
aI13
aa(lp536
g493
ag28
aS'2211'
p537
aF0.12568303917729498
aF0.0001801453253306339
aF0.6623320440950196
aF0.02244441605179498
aF0.018719278608555805
aF3.8489971329675604e-05
aF0.938467584176246
aF0.015037318482869488
aF0.01861817125496332
aF0.0001809643285734851
aF2.220446049250313e-16
aF3.9698545610394875e-06
aF0.12568303917729498
aF0.0001801453253306339
aF0.018719278608555805
aF3.8489971329675604e-05
aF0.005897333880887321
aF1.4781336167217443e-05
aI0
aF34.95391160455408
aI13
aa(lp538
g493
ag28
aS'2251'
p539
aF0.1251700590527562
aF0.00019271714986676152
aF1.4347132681391188
aF0.03362562798414337
aF0.01876217263790907
aF4.116134800646529e-05
aF0.10696546304673027
aF0.022644213386063927
aF0.018675911079546855
aF0.00017823762178916866
aF6.733502644351574e-14
aF5.559772691718368e-06
aF0.1251700590527562
aF0.00019271714986676152
aF0.01876217263790907
aF4.116134800646529e-05
aF0.005886721895412945
aF1.5777586089923926e-05
aI0
aF25.869837339000135
aI13
aa(lp540
g493
ag28
aS'2291'
p541
aF0.1256990912835915
aF0.00017934883805139807
aF1.5596832510372838
aF0.07547334388017257
aF0.01879173668645998
aF3.873422326432924e-05
aF0.045409164504604804
aF0.01345028876605145
aF0.01836318739600421
aF0.00016241512079896652
aF5.71209746169643e-14
aF1.9969946890116552e-05
aF0.1256990912835915
aF0.00017934883805139807
aF0.01879173668645998
aF3.873422326432924e-05
aF0.0059209172383325685
aF1.4843076421360696e-05
aI0
aF40.45772456086377
aI13
aa(lp542
g493
ag28
aS'2331'
p543
aF0.12616916826010902
aF0.00020131273386294327
aF0.6520955637811545
aF0.028241722971227345
aF0.018674988912612486
aF4.027901339645826e-05
aF0.9432579639850873
aF0.016179227342274838
aF0.01825392673139852
aF0.00018003436188944618
aF2.220446049250313e-16
aF6.4789767013212485e-06
aF0.12616916826010902
aF0.00020131273386294327
aF0.018674988912612486
aF4.027901339645826e-05
aF0.005906137138435561
aF1.5845450689258542e-05
aI0
aF28.97591582220144
aI13
aa(lp544
g493
ag28
aS'2371'
p545
aF0.1250907493269075
aF0.0001669905276977372
aF1.4920034598238952
aF0.057853168065307825
aF0.018920371806327097
aF3.4776163975579893e-05
aF0.05913052055551732
aF0.01629788425566009
aF0.018776760640469972
aF0.00016167478200718375
aF1.0912937220552976e-12
aF9.401304743478223e-05
aF0.1250907493269075
aF0.0001669905276977372
aF0.018920371806327097
aF3.4776163975579893e-05
aF0.0059325962753699925
aF1.347685599222742e-05
aI0
aF30.956951810401375
aI13
aa(lp546
g493
ag28
aS'2411'
p547
aF0.12595443425203684
aF0.00021110410853909824
aF1.4900252213026746
aF0.04827664281886912
aF0.01864584929648337
aF4.1619220140324056e-05
aF0.07842933132050167
aF0.019189916481978153
aF0.01834649010728269
aF0.00019737574494970242
aF7.280287483979464e-14
aF1.5455159510444072e-05
aF0.12595443425203684
aF0.00021110410853909824
aF0.01864584929648337
aF4.1619220140324056e-05
aF0.005886885182799161
aF1.6432027544416087e-05
aI0
aF21.34955888370134
aI13
aa(lp548
g493
ag28
aS'2451'
p549
aF0.12517913115337007
aF0.00018242349360956785
aF1.4642865242718537
aF0.0365547175851938
aF0.01887999067262105
aF3.8987607390409545e-05
aF0.09032596589560088
aF0.01803186923427516
aF0.018382379239458787
aF0.00017422284000511516
aF1.0633161018347437e-13
aF2.410861004248366e-06
aF0.12517913115337007
aF0.00018242349360956785
aF0.01887999067262105
aF3.8987607390409545e-05
aF0.00592411720864557
aF1.49729532320798e-05
aI0
aF23.83626845844461
aI13
aa(lp550
g493
ag28
aS'2674'
p551
aF0.12265694283574759
aF0.0001907066100067833
aF1.493856345392926
aF0.05773019060170925
aF0.02071026946359178
aF3.9048586791191886e-05
aF0.05949697001392906
aF0.01684392334817042
aF0.019642202916100467
aF0.00018674429598533742
aF2.9510838217561286e-12
aF4.999026144161811e-06
aF0.12265694283574759
aF0.0001907066100067833
aF0.02071026946359178
aF3.9048586791191886e-05
aF0.0063674833741677855
aF1.556115622990423e-05
aI0
aF19.353307323831995
aI13
aa(lp552
g493
ag28
aS'sum'
p553
aF0.12918992048381
aF3.170403191393598e-05
aF0.10000000155085945
aF7.053820577114176
aF0.000654650655918585
aF2.3739935828726196e-07
aF3.608224830031759e-15
aF6.303541556701431e-06
aF0.018569449451540515
aF3.708963177270687e-05
aF1.4296819005971129e-05
aF2.0593670754798232e-08
aF0.12918992048381
aF3.170403191393598e-05
aF0.000654650655918585
aF2.3739935828726196e-07
aF0.00021199624691996502
aF9.282641720324351e-08
aI0
aF31473.326231895997
aI13
aa(lp554
S'8'
p555
ag91
ag27
aF0.13529836125031114
aF0.0001165130635914954
aF0.12495950573211444
aF9.856279482177413
aF0.014885140450288123
aF1.8549317890827893e-05
aF1.0
aF0.821104233341252
aF0.009431712231953078
aF0.00018910317595455817
aF2.6679132287793506e-05
aF1.9731118098137435e-06
aF0.13529836125031114
aF0.0001165130635914954
aF0.014885140450288123
aF1.8549317890827893e-05
aF0.0050481866897592155
aF7.646817921677396e-06
aI0
aF33.98247220200739
aI13
aa(lp556
g555
ag91
aS'51'
p557
aF0.11545468488661705
aF0.00014979037558936597
aF2.08058023826606
aF0.23666580707216023
aF0.0181194070960398
aF3.326507312638796e-05
aF0.005781451421327799
aF0.002309832103802506
aF0.00911574024588121
aF0.00015627305041100237
aF4.9404924595819466e-15
aF2.1268835550439236e-05
aF0.11545468488661705
aF0.00014979037558936597
aF0.0181194070960398
aF3.326507312638796e-05
aF0.005243792246087776
aF1.1788265883535657e-05
aI0
aF48.28885431862693
aI13
aa(lp558
g555
ag91
aS'91'
p559
aF0.11633965837925545
aF0.00016819635944309133
aF1.7147261566035243
aF0.10314383902727453
aF0.017755457108959823
aF3.646808127208412e-05
aF0.01797569593817938
aF0.005614502660757442
aF0.008882554654210126
aF0.00018166848641649268
aF1.3108958363261536e-13
aF1.0753881525923936e-05
aF0.11633965837925545
aF0.00016819635944309133
aF0.017755457108959823
aF3.646808127208412e-05
aF0.005177851323117092
aF1.300526411810465e-05
aI0
aF18.96580559986892
aI13
aa(lp560
g555
ag91
aS'131'
p561
aF0.11534866753945884
aF0.00019118251533547696
aF1.8581873771887205
aF0.14712334758234002
aF0.017972921951661273
aF4.2049937536089294e-05
aF0.013559380678842325
aF0.0048869375267779624
aF0.009657865652742544
aF0.00019850739117940075
aF3.7242431361050876e-13
aF1.479212125274354e-05
aF0.11534866753945884
aF0.00019118251533547696
aF0.017972921951661273
aF4.2049937536089294e-05
aF0.005196622922064624
aF1.4899846870155093e-05
aI0
aF11.34932924805358
aI13
aa(lp562
g555
ag91
aS'171'
p563
aF0.11586354877562066
aF0.000436869990024104
aF1.6179792690634294
aF0.39480660673677903
aF0.017739873521047077
aF3.635804198211766e-05
aF0.030730123148731248
aF0.02798675587997057
aF0.009814598885307751
aF0.00016989408637191366
aF3.144434077007041e-07
aF0.00024951404468817606
aF0.11586354877562066
aF0.000436869990024104
aF0.017739873521047077
aF3.635804198211766e-05
aF0.005152135539283888
aF2.2110755542737857e-05
aI0
aF16.62084029173621
aI13
aa(lp564
g555
ag91
aS'211'
p565
aF0.1156133513390528
aF0.00015921865901466294
aF2.604214521049766
aF0.506132100468927
aF0.018045958799342548
aF3.332961164504919e-05
aF0.0029564363596366605
aF0.001299103560825493
aF0.009302583462880534
aF0.00016362248226564207
aF8.465450562766819e-15
aF2.6363938933682274e-05
aF0.1156133513390528
aF0.00015921865901466294
aF0.018045958799342548
aF3.332961164504919e-05
aF0.005229713363093737
aF1.2048482772978282e-05
aI0
aF33.88802495178337
aI13
aa(lp566
g555
ag91
aS'251'
p567
aF0.11509833349448513
aF0.00014918320300640514
aF1.8585373652255917
aF0.14402394980994082
aF0.01812605228410322
aF3.085569368642925e-05
aF0.012127836658439639
aF0.0040731205832871265
aF0.009201089243333788
aF0.00017013573455016193
aF2.6365021277285905e-12
aF1.1300674737493854e-05
aF0.11509833349448513
aF0.00014918320300640514
aF0.01812605228410322
aF3.085569368642925e-05
aF0.005229524453098539
aF1.1188912793787223e-05
aI0
aF20.094212701104816
aI13
aa(lp568
g555
ag91
aS'291'
p569
aF0.11424540394341504
aF0.0001576791685635307
aF1.5669889559965706
aF0.05996001465917811
aF0.018292381424256217
aF3.6822256459097605e-05
aF0.03573079917244604
aF0.009198976141785609
aF0.009245854079614882
aF0.00016714904093974515
aF1.35838090775664e-10
aF7.953752788572577e-05
aF0.11424540394341504
aF0.0001576791685635307
aF0.018292381424256217
aF3.6822256459097605e-05
aF0.005238403166488913
aF1.2785349592334362e-05
aI0
aF41.14816369834922
aI13
aa(lp570
g555
ag91
aS'771'
p571
aF0.11482776643134016
aF0.00014101918757219244
aF1.7863448156573178
aF0.1378839221005692
aF0.018295389553971232
aF3.292169198535616e-05
aF0.011347593424449798
aF0.004189875159933798
aF0.009525167968353511
aF0.0001637569461065459
aF1.3924972286361026e-13
aF5.80844680096726e-06
aF0.11482776643134016
aF0.00014101918757219244
aF0.018295389553971232
aF3.292169198535616e-05
aF0.0052659715996004625
aF1.1472379833891502e-05
aI0
aF54.83138494568111
aI13
aa(lp572
g555
ag91
aS'811'
p573
aF0.11586404178060998
aF0.00013379591687164184
aF1.6820783809337843
aF0.0886141257697668
aF0.017970820018342396
aF2.656851104047321e-05
aF0.019540084929632717
aF0.005415170631305893
aF0.009615376636709666
aF0.00015747982848410706
aF8.881784197001252e-16
aF5.50347975598886e-06
aF0.11586404178060998
aF0.00013379591687164184
aF0.017970820018342396
aF2.656851104047321e-05
aF0.005219230810386595
aF9.791068961520905e-06
aI0
aF42.80949616178455
aI13
aa(lp574
g555
ag91
aS'851'
p575
aF0.11532065143367144
aF0.00015776367198648908
aF1.6002401194589415
aF0.06759594725656803
aF0.018075205039943146
aF3.171409168005977e-05
aF0.026879718484947968
aF0.007247632879831656
aF0.009622854109723323
aF0.00016221077549558805
aF2.4827362388180063e-13
aF5.559579524888614e-06
aF0.11532065143367144
aF0.00015776367198648908
aF0.018075205039943146
aF3.171409168005977e-05
aF0.005224927320077401
aF1.1624771168260676e-05
aI0
aF38.0043395960625
aI13
aa(lp576
g555
ag91
aS'891'
p577
aF0.1145672058083627
aF0.0001549193744327072
aF1.6693094035055138
aF0.07590420999759528
aF0.018226704542163248
aF3.709512095653733e-05
aF0.02245975655682042
aF0.005918039134320513
aF0.009251970631159408
aF0.00016940016626372292
aF6.226963389366347e-13
aF3.1430993350373138e-06
aF0.1145672058083627
aF0.0001549193744327072
aF0.018226704542163248
aF3.709512095653733e-05
aF0.005234297574047599
aF1.2789854907033192e-05
aI0
aF22.16379433019105
aI13
aa(lp578
g555
ag91
aS'931'
p579
aF0.1138974971620507
aF0.00014071130344471764
aF2.036107763285303
aF0.20585503856470466
aF0.018638221395569834
aF3.487301441042201e-05
aF0.006102825902665032
aF0.0023143624731806756
aF0.009481546271420923
aF0.0001491841894145856
aF2.7738922270259536e-13
aF1.3148023991438329e-05
aF0.1138974971620507
aF0.00014071130344471764
aF0.018638221395569834
aF3.487301441042201e-05
aF0.0053211877326501695
aF1.193072228966235e-05
aI0
aF42.68914287364519
aI13
aa(lp580
g555
ag91
aS'971'
p581
aF0.11399811915591654
aF0.0001587041351516978
aF1.6532415747870228
aF0.07604655086960743
aF0.018508595780864938
aF3.9521937177308675e-05
aF0.02377169233220744
aF0.006659503959880131
aF0.009203922167871154
aF0.00017449124758023215
aF4.8405723873656825e-14
aF9.048189629795589e-06
aF0.11399811915591654
aF0.0001587041351516978
aF0.018508595780864938
aF3.9521937177308675e-05
aF0.005288848063716432
aF1.348163680371836e-05
aI0
aF17.86662211988681
aI13
aa(lp582
g555
ag91
aS'1011'
p583
aF0.11436757869093496
aF0.0002591486204891755
aF1.458597575413839
aF0.2475775559360366
aF0.018359843797124777
aF3.786141890695788e-05
aF0.03937451001820513
aF0.037124396115895464
aF0.009216110955758966
aF0.00016590530149737128
aF8.772110392935017e-06
aF8.446530819453124e-06
aF0.11436757869093496
aF0.0002591486204891755
aF0.018359843797124777
aF3.786141890695788e-05
aF0.005263345058608637
aF1.6125981425128814e-05
aI0
aF17.940027148491104
aI13
aa(lp584
g555
ag91
aS'1631'
p585
aF0.11285809002858575
aF0.0001371150368773696
aF2.132394803693066
aF0.2087561004593318
aF0.018943256103021427
aF3.0084995866057687e-05
aF0.005951790917803235
aF0.0019739434859792904
aF0.009326464729038935
aF0.00015575743494244517
aF1.3739009929736312e-14
aF7.248044582325308e-06
aF0.11285809002858575
aF0.0001371150368773696
aF0.018943256103021427
aF3.0084995866057687e-05
aF0.005358919843136464
aF1.0715598404354168e-05
aI0
aF45.59603290310823
aI13
aa(lp586
g555
ag91
aS'1671'
p587
aF0.11317180428882018
aF0.0001481968114516643
aF1.566661512192982
aF0.050309742988098094
aF0.018800383044677196
aF3.2087969866740826e-05
aF0.03678183035676369
aF0.008211064815896868
aF0.009518104796692307
aF0.00015698058235590222
aF6.38378239159465e-16
aF3.2142708797366915e-06
aF0.11317180428882018
aF0.0001481968114516643
aF0.018800383044677196
aF3.2087969866740826e-05
aF0.005333285978979479
aF1.1473164823182284e-05
aI0
aF39.15856999128851
aI13
aa(lp588
g555
ag91
aS'1711'
p589
aF0.11277311863843145
aF0.000164271891540997
aF1.665889547582389
aF0.06812387273583953
aF0.018751124402090275
aF3.462743840478878e-05
aF0.02880948901404684
aF0.007046494185827423
aF0.00942079054563147
aF0.00019604947688565144
aF1.3100631690576847e-14
aF9.32460193606155e-06
aF0.11277311863843145
aF0.000164271891540997
aF0.018751124402090275
aF3.462743840478878e-05
aF0.005300573242507889
aF1.2467171695914025e-05
aI0
aF15.938221588225776
aI13
aa(lp590
g555
ag91
aS'1751'
p591
aF0.1132420402886192
aF0.00027446490381796793
aF1.518099220499768
aF0.2975345096728732
aF0.018485027426568486
aF3.942393951724549e-05
aF0.02919181240524421
aF0.028173293549597106
aF0.009162322941107895
aF0.0001627270274655376
aF1.0242188647674455e-05
aF8.553149095633095e-06
aF0.1132420402886192
aF0.00027446490381796793
aF0.018485027426568486
aF3.942393951724549e-05
aF0.005247080400877414
aF1.6939986721948745e-05
aI0
aF25.142931776406325
aI13
aa(lp592
g555
ag91
aS'1791'
p593
aF0.11349335005051983
aF0.00014708180780023436
aF2.2062590246052225
aF0.24566444341467308
aF0.01874078682206543
aF3.768041451005302e-05
aF0.005222741253452123
aF0.0018301307157937985
aF0.009552563229198133
aF0.00015845224598354734
aF0.0
aF1.4763416275834218e-05
aF0.11349335005051983
aF0.00014708180780023436
aF0.01874078682206543
aF3.768041451005302e-05
aF0.00533148473728733
aF1.2753332204440993e-05
aI0
aF37.21023713185855
aI13
aa(lp594
g555
ag91
aS'1831'
p595
aF0.11288021804746054
aF0.00015854548826253897
aF1.691742697273958
aF0.08202552551289244
aF0.01881641510473106
aF3.738107326473408e-05
aF0.02235963023670562
aF0.006157729446665483
aF0.00972642726376083
aF0.0001609647579096229
aF1.1831646773430293e-12
aF2.8828420507442942e-05
aF0.11288021804746054
aF0.00015854548826253897
aF0.01881641510473106
aF3.738107326473408e-05
aF0.005324081061942875
aF1.295340348424647e-05
aI0
aF27.56193108615982
aI13
aa(lp596
g555
ag91
aS'1871'
p597
aF0.1140403228047508
aF0.00028537115280985356
aF1.551627621312006
aF0.2463285987710847
aF0.0185132013843112
aF4.0861439357942064e-05
aF0.03350910419099673
aF0.02420029488704542
aF0.009266588652229088
aF0.0001607972325458553
aF9.862853862785403e-07
aF2.3532128545097897e-05
aF0.1140403228047508
aF0.00028537115280985356
aF0.0185132013843112
aF4.0861439357942064e-05
aF0.005292122609545865
aF1.7658074322687073e-05
aI0
aF19.58518374444528
aI13
aa(lp598
g555
ag91
aS'2211'
p599
aF0.11360470385746307
aF0.00014648800903374425
aF1.9354307984232229
aF0.1656045575501207
aF0.018745427584456447
aF3.495520830443244e-05
aF0.008494517902997989
aF0.003068925545845508
aF0.009601917318383887
aF0.00015764464508267524
aF0.0
aF7.353653221645051e-06
aF0.11360470385746307
aF0.00014648800903374425
aF0.018745427584456447
aF3.495520830443244e-05
aF0.005338037240050945
aF1.2102071259884907e-05
aI0
aF14.630785473034779
aI13
aa(lp600
g555
ag91
aS'2251'
p601
aF0.11388834129623265
aF0.00015126999315135235
aF1.7102826323280822
aF0.07967590841042138
aF0.018672116202763187
aF3.757976531336936e-05
aF0.022378990104689356
aF0.0056216600787049875
aF0.009068728088005611
aF0.00015845519149168324
aF5.570544026056723e-14
aF5.816764158214638e-06
aF0.11388834129623265
aF0.00015126999315135235
aF0.018672116202763187
aF3.757976531336936e-05
aF0.005330436123951059
aF1.2853772332572725e-05
aI0
aF22.693384699681438
aI13
aa(lp602
g555
ag91
aS'2291'
p603
aF0.1133150030365751
aF0.00016078436145795658
aF1.7156737008719463
aF0.07712006819214823
aF0.018765402081328163
aF4.213588661729044e-05
aF0.02429199421053041
aF0.0058915015856381425
aF0.009433061811240992
aF0.00016409050341274414
aF4.163336342344337e-16
aF4.773044322267661e-06
aF0.1133150030365751
aF0.00016078436145795658
aF0.018765402081328163
aF4.213588661729044e-05
aF0.005330098358310324
aF1.415756166911628e-05
aI0
aF26.995239751739895
aI13
aa(lp604
g555
ag91
aS'2331'
p605
aF0.11322898172019553
aF0.00016553445938387903
aF1.6832286378435648
aF0.07879509030125087
aF0.01862751943103969
aF3.772510247018572e-05
aF0.021890219363937202
aF0.005888797500053583
aF0.009594596933936635
aF0.00017359854428050767
aF8.326672684688674e-17
aF3.3038218953257426e-06
aF0.11322898172019553
aF0.00016553445938387903
aF0.01862751943103969
aF3.772510247018572e-05
aF0.005286917834398094
aF1.3205507338828636e-05
aI0
aF32.62096846746049
aI13
aa(lp606
g555
ag91
aS'2371'
p607
aF0.11303913393410764
aF0.0001258412753189201
aF0.5070418517056813
aF0.038911889860564874
aF0.018877298189242157
aF3.30864119185946e-05
aF0.9931347314414094
aF0.002199594864359722
aF0.009214677981080137
aF0.00015055588899606553
aF3.1086244689504383e-15
aF5.2364851971103965e-06
aF0.11303913393410764
aF0.0001258412753189201
aF0.018877298189242157
aF3.30864119185946e-05
aF0.005348827494996613
aF1.1106159565288635e-05
aI0
aF64.6588407778957
aI13
aa(lp608
g555
ag91
aS'2411'
p609
aF0.11351126700406107
aF0.00014928705485541316
aF1.6120673082746853
aF0.0700800066154984
aF0.01868063325867367
aF3.373559905711469e-05
aF0.029232689422475755
aF0.00789802167151138
aF0.009225861771907106
aF0.0001687761972621997
aF1.4521717162097048e-13
aF3.97691582798565e-06
aF0.11351126700406107
aF0.00014928705485541316
aF0.01868063325867367
aF3.373559905711469e-05
aF0.005315210880873672
aF1.1874476424540009e-05
aI0
aF23.061979061364887
aI13
aa(lp610
g555
ag91
aS'2451'
p611
aF0.11263485875996897
aF0.0001488743822947321
aF1.7401648554152354
aF0.08143420591024353
aF0.0187990269350297
aF3.501086852376531e-05
aF0.020842957689436947
aF0.005098870805705091
aF0.009133043753194648
aF0.00016671636832904843
aF1.8457457784393227e-14
aF3.3118231034939827e-06
aF0.11263485875996897
aF0.0001488743822947321
aF0.0187990269350297
aF3.501086852376531e-05
aF0.005307599238469481
aF1.2121158074229534e-05
aI0
aF26.72243931052523
aI13
aa(lp612
g555
ag91
aS'2674'
p613
aF0.1104245897443763
aF0.0001490680139748234
aF1.8328955283650747
aF0.11245012495295137
aF0.020678609233741534
aF4.337601185420634e-05
aF0.01157706013308668
aF0.00341187745589025
aF0.009958042533418442
aF0.00016918491520502712
aF4.490852134608758e-14
aF4.1955659653286625e-06
aF0.1104245897443763
aF0.0001490680139748234
aF0.020678609233741534
aF4.337601185420634e-05
aF0.005723702533666021
aF1.4277641329085177e-05
aI0
aF23.93904669887655
aI13
aa(lp614
g555
ag91
aS'sum'
p615
aF0.11640468005555266
aF2.5340687895663745e-05
aF0.10000000183032245
aF7.070885331398474
aF0.0006631522290049058
aF1.8115987437857797e-07
aF1.0547118733938987e-15
aF2.1068842832316914e-06
aF0.009568033728288208
aF3.1965356747751006e-05
aF1.3613687331825997e-05
aF1.5479368481452482e-08
aF0.11640468005555266
aF2.5340687895663745e-05
aF0.0006631522290049058
aF1.8115987437857797e-07
aF0.00019349672079822358
aF6.759056074581257e-08
aI0
aF47651.51020738646
aI13
aa(lp616
S'9'
p617
ag28
ag27
aF0.13521452852207744
aF0.0001948901590037382
aF1.4152347055703018
aF0.12860658450822338
aF0.015110252898756704
aF2.704913865433315e-05
aF0.03134351378737493
aF0.020805487303066528
aF-0.022507481967589275
aF0.0002110428774811509
aF7.983772558090019e-06
aF1.161420324913287e-06
aF0.13521452852207744
aF0.0001948901590037382
aF0.015110252898756704
aF2.704913865433315e-05
aF0.00512135670227498
aF1.1770193876747832e-05
aI0
aF49.81242729240297
aI19
aa(lp618
g617
ag28
aS'51'
p619
aF0.12793681998479595
aF0.00017226910062706816
aF1.3380090726242668
aF0.029852276616209594
aF0.018352001564142517
aF2.974956872356209e-05
aF0.13162789651664042
aF0.033509470107963124
aF-0.02003157733736237
aF0.00018355580675697542
aF7.423797041355984e-06
aF7.478669477589683e-07
aF0.12793681998479595
aF0.00017226910062706816
aF0.018352001564142517
aF2.974956872356209e-05
aF0.0058853043054495026
aF1.2402391919321775e-05
aI0
aF32.63106436859886
aI19
aa(lp620
g617
ag28
aS'91'
p621
aF0.12883844951492238
aF0.00018633490551846565
aF1.4418701425780567
aF0.05099240408298178
aF0.01800198183782062
aF3.2917147972339605e-05
aF0.06755366640386395
aF0.01836016970222823
aF-0.020366772071764416
aF0.00018142979474528427
aF5.0439914183464385e-06
aF1.2652913182337189e-06
aF0.12883844951492238
aF0.00018633490551846565
aF0.01800198183782062
aF3.2917147972339605e-05
aF0.0058137418421701885
aF1.3553887698142573e-05
aI0
aF36.64540124750298
aI19
aa(lp622
g617
ag28
aS'131'
p623
aF0.12845333562674568
aF0.00019218271209437218
aF1.4541464523774603
aF0.06273482127984431
aF0.01816994502360143
aF3.482433663706992e-05
aF0.05835215166335955
aF0.018720599406379018
aF-0.019960700290941505
aF0.00020284204218196398
aF7.65600339008854e-06
aF1.1166739794093994e-06
aF0.12845333562674568
aF0.00019218271209437218
aF0.01816994502360143
aF3.482433663706992e-05
aF0.00585044544310428
aF1.4224788068538076e-05
aI0
aF27.960561686849097
aI19
aa(lp624
g617
ag28
aS'171'
p625
aF0.1290686984778944
aF0.00018593509230311258
aF1.3691711385593552
aF0.053039416237726233
aF0.01800628634377908
aF3.3159488287939215e-05
aF0.0858810428156534
aF0.03046979723679974
aF-0.02015670823430657
aF0.000186993736230608
aF8.485337036290286e-06
aF1.1458549487031178e-06
aF0.1290686984778944
aF0.00018593509230311258
aF0.01800628634377908
aF3.3159488287939215e-05
aF0.005825524285050192
aF1.3620530119775082e-05
aI0
aF32.643910525844
aI19
aa(lp626
g617
ag28
aS'211'
p627
aF0.12792701846961435
aF0.0001825021751850128
aF1.4521272042374709
aF0.06609905984334952
aF0.018291159366484736
aF3.59890656989794e-05
aF0.052210661858835106
aF0.017527152439565624
aF-0.02005035196328271
aF0.00017409285613407454
aF4.850583135596054e-06
aF1.1780927700183463e-06
aF0.12792701846961435
aF0.0001825021751850128
aF0.018291159366484736
aF3.59890656989794e-05
aF0.005865343427005058
aF1.4254760375642542e-05
aI0
aF25.906299986919713
aI19
aa(lp628
g617
ag28
aS'251'
p629
aF0.1275408170300131
aF0.00019019567978368945
aF1.4054908592290452
aF0.04053041519408951
aF0.01834652623954903
aF3.407529435464282e-05
aF0.09389951387691436
aF0.024365107181171658
aF-0.020289342834305203
aF0.00019053261767508698
aF6.079283949911307e-06
aF1.0700287278453402e-06
aF0.1275408170300131
aF0.00019019567978368945
aF0.01834652623954903
aF3.407529435464282e-05
aF0.005865337070565995
aF1.3970660404879054e-05
aI0
aF23.21389315421823
aI19
aa(lp630
g617
ag28
aS'291'
p631
aF0.12762776793684374
aF0.00019819906219196493
aF1.4543519421161522
aF0.056193562415977505
aF0.018440994737462815
aF4.258565321388352e-05
aF0.06094590079336665
aF0.018202282098591677
aF-0.020115891064495763
aF0.00019071717789631313
aF6.225675069498893e-06
aF9.912361997876928e-07
aF0.12762776793684374
aF0.00019819906219196493
aF0.018440994737462815
aF4.258565321388352e-05
aF0.005899557686663809
aF1.6417817667398235e-05
aI0
aF32.35290982491468
aI19
aa(lp632
g617
ag28
aS'771'
p633
aF0.12719955975935512
aF0.00017329639127348524
aF1.384158203976784
aF0.02656134516221842
aF0.018493007872965428
aF3.313685429591831e-05
aF0.12807561351101782
aF0.02508895713943432
aF-0.02025588554281831
aF0.0001703263579930051
aF5.620221088104005e-06
aF9.621784730629024e-07
aF0.12719955975935512
aF0.00017329639127348524
aF0.018493007872965428
aF3.313685429591831e-05
aF0.005896347856889232
aF1.3272526623904962e-05
aI0
aF37.72025752950848
aI19
aa(lp634
g617
ag28
aS'811'
p635
aF0.12702595770980507
aF0.0001779739938995877
aF1.3914601486691356
aF0.01649833101212328
aF0.0182887897228334
aF3.404110056745395e-05
aF0.18875659323622723
aF0.027130824938755904
aF-0.02004920817784605
aF0.0001673823960118792
aF6.13648484712459e-06
aF7.996754189665278e-07
aF0.12702595770980507
aF0.0001779739938995877
aF0.0182887897228334
aF3.404110056745395e-05
aF0.005823276057775825
aF1.3566494857907868e-05
aI0
aF45.659851960304586
aI19
aa(lp636
g617
ag28
aS'851'
p637
aF0.12776497850065202
aF0.00018822587199285488
aF1.4176792979943755
aF0.02328709057046563
aF0.0182541298781965
aF3.5425687822299504e-05
aF0.14523871596106608
aF0.023693923211933754
aF-0.02005103225533888
aF0.00017678105044907795
aF6.192592323567281e-06
aF1.0323134716355709e-06
aF0.12776497850065202
aF0.00018822587199285488
aF0.0182541298781965
aF3.5425687822299504e-05
aF0.005846054995948506
aF1.4244079234968958e-05
aI0
aF34.07680435833867
aI19
aa(lp638
g617
ag28
aS'891'
p639
aF0.12761889783646416
aF0.00018221816939798449
aF1.3876884804553453
aF0.026032235012930727
aF0.018377562828135137
aF4.005246523738036e-05
aF0.1302639835570934
aF0.024326018616635914
aF-0.020206334690333113
aF0.00016727285686827693
aF6.645613090605629e-06
aF8.731482114554545e-07
aF0.12761889783646416
aF0.00018221816939798449
aF0.018377562828135137
aF4.005246523738036e-05
aF0.0058788562362630855
aF1.5317303954117266e-05
aI0
aF30.678311841021632
aI19
aa(lp640
g617
ag28
aS'931'
p641
aF0.12615659334810655
aF0.0001566626262218683
aF1.4154001522095527
aF0.04140631950652518
aF0.018768807123829716
aF3.094072147185982e-05
aF0.07700274713843364
aF0.018579148282832053
aF-0.01982639813788621
aF0.00016590823449248542
aF5.517166421442621e-06
aF9.053863449931532e-07
aF0.12615659334810655
aF0.0001566626262218683
aF0.018768807123829716
aF3.094072147185982e-05
aF0.00593521640666274
aF1.224972687929944e-05
aI0
aF43.94706439262439
aI19
aa(lp642
g617
ag28
aS'971'
p643
aF0.12618818649318195
aF0.00018359925367617707
aF1.3992282850060076
aF0.04156277343290604
aF0.018651814729773127
aF3.7346604088300817e-05
aF0.09942175908674705
aF0.026547219967435698
aF-0.02025007330819616
aF0.00016317346274731547
aF6.28181269082817e-06
aF1.0762453567514374e-06
aF0.12618818649318195
aF0.00018359925367617707
aF0.018651814729773127
aF3.7346604088300817e-05
aF0.0058996972524159585
aF1.4602366148155366e-05
aI0
aF29.698839066801703
aI19
aa(lp644
g617
ag28
aS'1011'
p645
aF0.12666680513225634
aF0.00018351872144126757
aF1.3931117107524544
aF0.030741286282129687
aF0.018617812492665798
aF3.515310472774688e-05
aF0.12052343921050734
aF0.025965830307035448
aF-0.020528872252843132
aF0.00016325614569496146
aF6.908201021282867e-06
aF1.0897669601300786e-06
aF0.12666680513225634
aF0.00018351872144126757
aF0.018617812492665798
aF3.515310472774688e-05
aF0.005911278254649785
aF1.4068589040321233e-05
aI0
aF21.0778281531744
aI19
aa(lp646
g617
ag28
aS'1631'
p647
aF0.12509579800641255
aF0.00017763297897571188
aF1.3305813166296696
aF0.026916028577332107
aF0.019121771673438835
aF3.329988688428008e-05
aF0.15163882198041695
aF0.03727912057890928
aF-0.019717639315649543
aF0.0001801911041551212
aF7.834864764688643e-06
aF8.226463809324347e-07
aF0.12509579800641255
aF0.00017763297897571188
aF0.019121771673438835
aF3.329988688428008e-05
aF0.005995988403079914
aF1.3473013064755274e-05
aI0
aF27.855104160865487
aI19
aa(lp648
g617
ag28
aS'1671'
p649
aF0.12483264813332992
aF0.0002098425837693838
aF1.3925436014594514
aF0.0100001327542254
aF0.019063050439107804
aF4.203314546504314e-05
aF0.25783803377045417
aF0.02906063815238427
aF-0.02007200586638166
aF0.0001828209069791602
aF7.098778130709693e-06
aF8.440071237458824e-07
aF0.12483264813332992
aF0.0002098425837693838
aF0.019063050439107804
aF4.203314546504314e-05
aF0.005965000915467066
aF1.653882177771265e-05
aI0
aF31.459363850157253
aI19
aa(lp650
g617
ag28
aS'1711'
p651
aF0.12519305909084025
aF0.0001703241237619838
aF1.4038433723195456
aF0.0361722983216326
aF0.01899167104532552
aF3.6112488291779876e-05
aF0.10378153752896085
aF0.02423985558811617
aF-0.02034776692843169
aF0.00017489400135842144
aF7.428886786425837e-06
aF9.990193302888972e-07
aF0.12519305909084025
aF0.0001703241237619838
aF0.01899167104532552
aF3.6112488291779876e-05
aF0.005959823042618519
aF1.3934526588006819e-05
aI0
aF25.26513533537408
aI19
aa(lp652
g617
ag28
aS'1751'
p653
aF0.12669880374768297
aF0.0001863435806685373
aF1.430930104177995
aF0.04776960384619677
aF0.018718914656260258
aF3.4356043611767986e-05
aF0.0791014266513293
aF0.02129114595560841
aF-0.019924833754547514
aF0.0001976245191347298
aF6.052643087894882e-06
aF1.3282446539725212e-06
aF0.12669880374768297
aF0.0001863435806685373
aF0.018718914656260258
aF3.4356043611767986e-05
aF0.005944880276958048
aF1.398210227441283e-05
aI0
aF36.19492287131718
aI19
aa(lp654
g617
ag28
aS'1791'
p655
aF0.12604679864027896
aF0.0001725419417366912
aF1.4470379432534397
aF0.03348099314212172
aF0.018782349804217488
aF3.6913823536405266e-05
aF0.09394106468717595
aF0.0176142388692562
aF-0.019876654433251956
aF0.0001717956296711584
aF4.193156535270415e-06
aF1.0567785086318393e-06
aF0.12604679864027896
aF0.0001725419417366912
aF0.018782349804217488
aF3.6913823536405266e-05
aF0.005934329801747888
aF1.42131809852996e-05
aI0
aF41.29765765214406
aI19
aa(lp656
g617
ag28
aS'1831'
p657
aF0.12527061722851432
aF0.0001913808814845737
aF1.3840466420085715
aF0.015558298247084323
aF0.018988875514232492
aF3.483910019316805e-05
aF0.2047937094093516
aF0.03070526326493392
aF-0.020098312735808675
aF0.00019128532738220354
aF9.08685568054568e-06
aF9.65694958221519e-07
aF0.12527061722851432
aF0.0001913808814845737
aF0.018988875514232492
aF3.483910019316805e-05
aF0.00596263738641522
aF1.4235792680164778e-05
aI0
aF29.270891894523256
aI19
aa(lp658
g617
ag28
aS'1871'
p659
aF0.12622254231667693
aF0.00018216650516153762
aF1.401086066051254
aF0.015417100708177256
aF0.018637256834923663
aF3.6917858154753014e-05
aF0.19923780182000594
aF0.026710320094636086
aF-0.020202746344075335
aF0.00017697423784491896
aF6.762708752439117e-06
aF1.0850705000342575e-06
aF0.12622254231667693
aF0.00018216650516153762
aF0.018637256834923663
aF3.6917858154753014e-05
aF0.005896697480010896
aF1.4451955548607772e-05
aI0
aF36.05612783222721
aI19
aa(lp660
g617
ag28
aS'2211'
p661
aF0.12566550415970332
aF0.00017763171735396974
aF1.398063336865645
aF0.0214727711522259
aF0.01881373990493973
aF3.391370082782459e-05
aF0.14538629717978452
aF0.022846117144950745
aF-0.019992421121049778
aF0.00017361347005663693
aF4.927856575409617e-06
aF8.739925932421677e-07
aF0.12566550415970332
aF0.00017763171735396974
aF0.01881373990493973
aF3.391370082782459e-05
aF0.005926266095197488
aF1.3575468593802422e-05
aI0
aF39.25175598991547
aI19
aa(lp662
g617
ag28
aS'2251'
p663
aF0.1246540560960989
aF0.00018608734152847692
aF1.3740529322607957
aF0.01800450925668262
aF0.01900229168661846
aF4.1061438313024987e-05
aF0.17487355619351863
aF0.02720346810058283
aF-0.01996449393988322
aF0.00017254144382301
aF7.659719966079948e-06
aF8.460171562196805e-07
aF0.1246540560960989
aF0.00018608734152847692
aF0.01900229168661846
aF4.1061438313024987e-05
aF0.005937482313167389
aF1.5594106684781242e-05
aI0
aF45.744686464651565
aI19
aa(lp664
g617
ag28
aS'2291'
p665
aF0.12527247187144858
aF0.00017577480950114476
aF1.336515597101319
aF0.026969947591992782
aF0.018954138499739513
aF3.7267310217773894e-05
aF0.143470917612681
aF0.032916558170543286
aF-0.019754573463897883
aF0.00018495091462448132
aF7.013482142881333e-06
aF8.341484691587464e-07
aF0.12527247187144858
aF0.00017577480950114476
aF0.018954138499739513
aF3.7267310217773894e-05
aF0.005951817841084441
aF1.4376662999946779e-05
aI0
aF76.26160793624574
aI19
aa(lp666
g617
ag28
aS'2331'
p667
aF0.1263701591433185
aF0.00017788314176462144
aF1.3956127862017675
aF0.03436770594714167
aF0.018804583851444387
aF3.6767760052670156e-05
aF0.09694005189655858
aF0.022647063579499582
aF-0.020235005083089563
aF0.0001865939338098152
aF6.146088240122083e-06
aF9.172036632976166e-07
aF0.1263701591433185
aF0.00017788314176462144
aF0.018804583851444387
aF3.6767760052670156e-05
aF0.005956596657390467
aF1.4350900097144198e-05
aI0
aF55.12251585801951
aI19
aa(lp668
g617
ag28
aS'2371'
p669
aF0.12486327477909184
aF0.00017510128370036606
aF1.3411933356895236
aF0.022207088856126433
aF0.019050698870637966
aF3.424323956002784e-05
aF0.1647978980393764
aF0.03328149013243348
aF-0.020099900710435388
aF0.00018206954986270027
aF6.283647403959591e-06
aF7.806622377842798e-07
aF0.12486327477909184
aF0.00017510128370036606
aF0.019050698870637966
aF3.424323956002784e-05
aF0.005962598512808973
aF1.3593549656710867e-05
aI0
aF26.32742527020458
aI19
aa(lp670
g617
ag28
aS'2411'
p671
aF0.12609173682833477
aF0.00019248815579311972
aF1.3971622792675498
aF0.02448029634076032
aF0.018744767581774825
aF3.6825479931669805e-05
aF0.1529337309683826
aF0.02805575034157856
aF-0.02017436277104321
aF0.00019260362280548103
aF7.966387726460189e-06
aF1.1596111045703017e-06
aF0.12609173682833477
aF0.00019248815579311972
aF0.018744767581774825
aF3.6825479931669805e-05
aF0.005924567078854459
aF1.474011978697661e-05
aI0
aF60.89554408317021
aI19
aa(lp672
g617
ag28
aS'2451'
p673
aF0.12520980410407606
aF0.00016940084650616508
aF1.3473723427135134
aF0.017851372246558417
aF0.019008283547032427
aF3.688194299492943e-05
aF0.19494642631581022
aF0.03388887199245924
aF-0.020206234517889193
aF0.00016960845739967263
aF8.394843050346656e-06
aF8.041041711925878e-07
aF0.12520980410407606
aF0.00016940084650616508
aF0.019008283547032427
aF3.688194299492943e-05
aF0.005965834097312978
aF1.4111732066174652e-05
aI0
aF41.408907327110015
aI19
aa(lp674
g617
ag28
aS'2674'
p675
aF0.12224496308639284
aF0.00018609889986645172
aF1.4518685089202639
aF0.03292452734623719
aF0.02095196979512679
aF4.466137505563551e-05
aF0.0947689084299479
aF0.017594940659369118
aF-0.021548099235952124
aF0.00017348410878665797
aF6.265846289210675e-06
aF1.0213508244982794e-06
aF0.12224496308639284
aF0.00018609889986645172
aF0.02095196979512679
aF4.466137505563551e-05
aF0.006420158754833482
aF1.6816995201296243e-05
aI0
aF38.401066430863004
aI19
aa(lp676
g617
ag28
aS'sum'
p677
aF0.13078936700310084
aF3.7327299561191686e-05
aF2.400578683061864
aF0.0222744197950564
aF0.0006598084653069548
aF2.942037592499995e-07
aF0.010493490862858668
aF0.0002741453649563186
aF-0.020768310104687805
aF4.209751845977925e-05
aF1.1900346006427087e-05
aF1.6033231881040777e-08
aF0.13078936700310084
aF3.7327299561191686e-05
aF0.0006598084653069548
aF2.942037592499995e-07
aF0.00021631182193561783
aF1.1451734509941275e-07
aI0
aF24105.44415437326
aI19
aa.