(lp0
(lp1
S'XscanNumber_YscanNumber'
p2
aS'Type'
p3
aS'BCID'
p4
aS'xsec'
p5
aS'xsecErr'
p6
aS'normChange'
p7
aS'normChangeErr'
p8
aa(lp9
S'1_2'
p10
aS'XY'
p11
aS'211'
p12
aF1681.110878305421
aF3.475692333043561
aF0.6557871908505167
aF0.0013558382976171627
aa(lp13
S'1_2'
p14
ag11
aS'2291'
p15
aF1675.9701725277007
aF4.350916297920383
aF0.6577986878665262
aF0.001707683751598394
aa(lp16
S'1_2'
p17
ag11
aS'2451'
p18
aF1667.338417564521
aF4.010270774906781
aF0.6612040895707937
aF0.0015903234812569117
aa(lp19
S'1_2'
p20
ag11
aS'131'
p21
aF1666.446736923262
aF4.648784948965328
aF0.6615578859889619
aF0.0018455077351784731
aa(lp22
S'1_2'
p23
ag11
aS'1871'
p24
aF1665.2810247866269
aF3.6993786082767217
aF0.6620209826346964
aF0.0014706624437175286
aa(lp25
S'1_2'
p26
ag11
aS'251'
p27
aF1671.0219487001987
aF4.147185191050542
aF0.6597465588346678
aF0.001637375954740722
aa(lp28
S'1_2'
p29
ag11
aS'171'
p30
aF1657.8723825294376
aF4.501577696877414
aF0.6649793989029077
aF0.0018056012408006474
aa(lp31
S'1_2'
p32
ag11
aS'1631'
p33
aF1687.7599054182567
aF3.52718516147246
aF0.653203679535775
aF0.0013651054978147694
aa(lp34
S'1_2'
p35
ag11
aS'1711'
p36
aF1664.3742989618431
aF4.185018530849644
aF0.6623816416053846
aF0.001665538482745277
aa(lp37
S'1_2'
p38
ag11
aS'1831'
p39
aF1666.8645456794748
aF4.338541035998672
aF0.6613920628702062
aF0.0017214815763427855
aa(lp40
S'1_2'
p41
ag11
aS'851'
p42
aF1667.006181830119
aF4.2209651035846125
aF0.6613358681020808
aF0.0016745442527052322
aa(lp43
S'1_2'
p44
ag11
aS'971'
p45
aF1671.0809879107326
aF4.399963899758943
aF0.659723250020632
aF0.0017370543408261714
aa(lp46
S'1_2'
p47
ag11
aS'sum'
p48
aF69.4181303195951
aF0.530798868685373
aF15.881311918321158
aF0.1214348810703257
aa(lp49
S'1_2'
p50
ag11
aS'1'
p51
aF1712.2473223689483
aF3.1349403334200314
aF0.6438619970314109
aF0.001178841933218808
aa(lp52
S'1_2'
p53
ag11
aS'811'
p54
aF1673.1349459221829
aF3.372824066075797
aF0.6589133668381532
aF0.0013282842884533932
aa(lp55
S'1_2'
p56
ag11
aS'931'
p57
aF1681.8557466628104
aF3.705759761697675
aF0.6554967526672094
aF0.001444305490989676
aa(lp58
S'1_2'
p59
ag11
aS'1671'
p60
aF1670.50755746804
aF4.213234788996757
aF0.6599497113698325
aF0.0016644780028090018
aa(lp61
S'1_2'
p62
ag11
aS'1751'
p63
aF1664.3212772136048
aF4.4208402454200835
aF0.6624027436805187
aF0.0017595020553015995
aa(lp64
S'1_2'
p65
ag11
aS'891'
p66
aF1671.5845041271862
aF4.109069305890685
aF0.6595245275785798
aF0.0016212354123073388
aa(lp67
S'1_2'
p68
ag11
aS'771'
p69
aF1679.0297367231465
aF3.613887315345069
aF0.6566000329117095
aF0.0014132438981252203
aa(lp70
S'1_2'
p71
ag11
aS'1791'
p72
aF1678.9492520349038
aF4.014226124784702
aF0.6566315086986548
aF0.001569950582711321
aa(lp73
S'1_2'
p74
ag11
aS'91'
p75
aF1675.1317544747858
aF4.664947374284973
aF0.6581279218468491
aF0.0018327705344739775
aa(lp76
S'1_2'
p77
ag11
aS'2331'
p78
aF1670.4799422000792
aF4.107306089214028
aF0.6599606212213427
aF0.0016226835232836503
aa(lp79
S'1_2'
p80
ag11
aS'2211'
p81
aF1672.555820157914
aF3.7172880277781712
aF0.6591415168960216
aF0.0014649549150101235
aa(lp82
S'1_2'
p83
ag11
aS'51'
p84
aF1680.5243200812326
aF3.6391332732871153
aF0.6560160821349298
aF0.0014205863752053754
aa(lp85
S'1_2'
p86
ag11
aS'1011'
p87
aF1674.2407869244746
aF4.226587032699868
aF0.6584781526063065
aF0.001662314789400437
aa(lp88
S'1_2'
p89
ag11
aS'2411'
p90
aF1668.0581431813137
aF4.133616312398735
aF0.6609187964452887
aF0.00163782343518719
aa(lp91
S'1_2'
p92
ag11
aS'2674'
p93
aF1756.8431442449985
aF4.152634723268645
aF0.627518161768468
aF0.0014832591723271421
aa(lp94
S'1_2'
p95
ag11
aS'2371'
p96
aF1681.3396919853433
aF2.614889117310873
aF0.655697944708824
aF0.0010197685976458567
aa(lp97
S'1_2'
p98
ag11
aS'2251'
p99
aF1664.9994507366725
aF3.7798887152605847
aF0.6621329393858849
aF0.00150317696770391
aa(lp100
S'1_2'
p101
ag11
aS'291'
p102
aF1673.9199485597126
aF3.8023478108082878
aF0.6586043623775059
aF0.0014960350150732226
aa(lp103
S'4_3'
p104
ag11
aS'211'
p105
aF1691.1815622700517
aF6.730775051648098
aF0.6518820953276897
aF0.002594441567798424
aa(lp106
S'4_3'
p107
ag11
aS'2291'
p108
aF1676.3538353751317
aF4.296643908172518
aF0.6576481391504392
aF0.0016856106456602587
aa(lp109
S'4_3'
p110
ag11
aS'2451'
p111
aF1676.38415561754
aF4.129166024744588
aF0.6576362444716857
aF0.001619849023395708
aa(lp112
S'4_3'
p113
ag11
aS'131'
p114
aF1672.699211162212
aF4.229181623246508
aF0.6590850124369703
aF0.0016664025451527046
aa(lp115
S'4_3'
p116
ag11
aS'1871'
p117
aF1671.9184711039086
aF3.942166707984556
aF0.6593927870563255
aF0.0015547625901293383
aa(lp118
S'4_3'
p119
ag11
aS'251'
p120
aF1675.7916346138943
aF4.450717637086154
aF0.6578687693748775
aF0.0017472268474591978
aa(lp121
S'4_3'
p122
ag11
aS'171'
p123
aF1671.8561818457679
aF4.430562749763779
aF0.65941735441324
aF0.0017475127338917264
aa(lp124
S'4_3'
p125
ag11
aS'1631'
p126
aF1689.3500803285817
aF4.158679907613184
aF0.6525888229026681
aF0.0016064805378944332
aa(lp127
S'4_3'
p128
ag11
aS'1711'
p129
aF1672.5939080810645
aF4.38461037298271
aF0.6591265070772488
aF0.0017278628757858054
aa(lp130
S'4_3'
p131
ag11
aS'1831'
p132
aF1679.352584516207
aF4.26644332998603
aF0.6564738045821119
aF0.0016677904989658677
aa(lp133
S'4_3'
p134
ag11
aS'851'
p135
aF1677.490238544379
aF4.108174573761384
aF0.6572026203555109
aF0.0016094896010224614
aa(lp136
S'4_3'
p137
ag11
aS'971'
p138
aF1678.399766964237
aF3.9002949489887553
aF0.6568464808513332
aF0.001526391424707629
aa(lp139
S'4_3'
p140
ag11
aS'sum'
p141
aF63.130027265258676
aF0.33979958162850604
aF17.46317922151209
aF0.09399617346021613
aa(lp142
S'4_3'
p143
ag11
ag51
aF1725.956504414013
aF2.5831769357541177
aF0.6387478349383172
aF0.0009559908785393973
aa(lp144
S'4_3'
p145
ag11
aS'811'
p146
aF1678.2025322547975
aF3.6757186012467913
aF0.6569236782826964
aF0.001438840984597297
aa(lp147
S'4_3'
p148
ag11
aS'931'
p149
aF1683.3609073012326
aF3.4824459753231767
aF0.6549106466774308
aF0.0013548437152283203
aa(lp150
S'4_3'
p151
ag11
aS'1671'
p152
aF1677.449975037481
aF4.104213234915656
aF0.6572183950627343
aF0.0016080148292864772
aa(lp153
S'4_3'
p154
ag11
aS'1751'
p155
aF1669.9937597104445
aF4.701302566840178
aF0.6601527544529914
aF0.0018584367881437972
aa(lp156
S'4_3'
p157
ag11
aS'891'
p158
aF1679.9373812991419
aF4.1897055451480325
aF0.6562452819161635
aF0.001636652965299897
aa(lp159
S'4_3'
p160
ag11
aS'771'
p161
aF1682.7071138425072
aF3.7210185153143907
aF0.6551651034948562
aF0.0014487853891134155
aa(lp162
S'4_3'
p163
ag11
aS'1791'
p164
aF1688.353739716938
aF3.747844656119785
aF0.6529739322145779
aF0.0014494858540996408
aa(lp165
S'4_3'
p166
ag11
aS'91'
p167
aF1680.274256449622
aF3.9451680353998593
aF0.6561137124850134
aF0.0015405097329484773
aa(lp168
S'4_3'
p169
ag11
aS'2331'
p170
aF1677.6286437652939
aF3.897040156233889
aF0.6571484008032911
aF0.0015265200174381331
aa(lp171
S'4_3'
p172
ag11
aS'2211'
p173
aF1687.3341638472696
aF3.8758219694683302
aF0.6533684933389081
aF0.0015007933904849088
aa(lp174
S'4_3'
p175
ag11
aS'51'
p176
aF1686.9282049491953
aF3.8511105774692833
aF0.6535257263218023
aF0.0014919424726566749
aa(lp177
S'4_3'
p178
ag11
aS'1011'
p179
aF1680.6839009638722
aF4.132532052400398
aF0.6559537934289139
aF0.0016128851324654213
aa(lp180
S'4_3'
p181
ag11
aS'2411'
p182
aF1675.001114479166
aF4.5155747981974885
aF0.6581792518597571
aF0.001774361590988281
aa(lp183
S'4_3'
p184
ag11
aS'2674'
p185
aF1761.956884949527
aF4.519278638025451
aF0.6256969110931099
aF0.001604862586783787
aa(lp186
S'4_3'
p187
ag11
aS'2371'
p188
aF1687.7024375336885
aF3.714553387339969
aF0.6532259217467361
aF0.0014377194144890115
aa(lp189
S'4_3'
p190
ag11
aS'2251'
p191
aF1675.5870416055
aF4.240990709944771
aF0.6579490966555934
aF0.0016653005407939213
aa(lp192
S'4_3'
p193
ag11
aS'291'
p194
aF1680.8615600635958
aF4.2200852899752475
aF0.6558844622221269
aF0.0016467081148802047
aa(lp195
S'5_6'
p196
ag11
aS'211'
p197
aF1659.6883948421432
aF3.681889390646007
aF0.6642517859486591
aF0.0014735908324734937
aa(lp198
S'5_6'
p199
ag11
aS'2291'
p200
aF1653.309673936218
aF3.9737325743647967
aF0.666814570659004
aF0.0016026899390119843
aa(lp201
S'5_6'
p202
ag11
aS'2451'
p203
aF1647.0447035370798
aF4.194136311845539
aF0.6693509763424205
aF0.0017044766479125553
aa(lp204
S'5_6'
p205
ag11
aS'131'
p206
aF1650.248051722778
aF6.472793820993739
aF0.66805167819544
aF0.0026203095772261206
aa(lp207
S'5_6'
p208
ag11
aS'1871'
p209
aF1648.2081872328197
aF4.083768579459419
aF0.6688784759909877
aF0.001657281479904971
aa(lp210
S'5_6'
p211
ag11
aS'251'
p212
aF1647.1250418539878
aF3.3237261050924105
aF0.6693183288326726
aF0.001350614401232075
aa(lp213
S'5_6'
p214
ag11
aS'171'
p215
aF1642.3426507294419
aF9.287996823514689
aF0.6712673387021316
aF0.0037962412452878943
aa(lp216
S'5_6'
p217
ag11
aS'1631'
p218
aF1653.4137149149026
aF3.7084679008985586
aF0.6667726113841372
aF0.001495514887901874
aa(lp219
S'5_6'
p220
ag11
aS'1711'
p221
aF1651.460599115833
aF4.061923287575911
aF0.6675611764412621
aF0.00164192974989538
aa(lp222
S'5_6'
p223
ag11
aS'1831'
p224
aF1638.8533781454757
aF4.329905996762108
aF0.6726965298382513
aF0.0017772869601328989
aa(lp225
S'5_6'
p226
ag11
aS'851'
p227
aF1646.3933519426687
aF4.057997503751987
aF0.6696157871940598
aF0.0016504556397170383
aa(lp228
S'5_6'
p229
ag11
aS'971'
p230
aF1648.774441199349
aF6.498638525503665
aF0.6686487568246229
aF0.002635476668336616
aa(lp231
S'5_6'
p232
ag11
aS'sum'
p233
aF60.74381981111811
aF0.012649397688184585
aF18.149187585176726
aF0.0037794180905354074
aa(lp234
S'5_6'
p235
ag11
ag51
aF1687.0673467596048
aF2.5903402956525894
aF0.6534718264268845
aF0.0010033472625254084
aa(lp236
S'5_6'
p237
ag11
aS'811'
p238
aF1643.9754452810994
aF4.71606734519392
aF0.6706006367410503
aF0.0019237500010591416
aa(lp239
S'5_6'
p240
ag11
aS'931'
p241
aF1655.2927886678326
aF3.7445191550409946
aF0.666015697005121
aF0.0015066268348820234
aa(lp242
S'5_6'
p243
ag11
aS'1671'
p244
aF1643.086470774035
aF5.005081888101939
aF0.6709634581026084
aF0.0020438529021212107
aa(lp245
S'5_6'
p246
ag11
aS'1751'
p247
aF1647.3290289709653
aF4.497186924834912
aF0.6692354478090048
aF0.0018270041094357113
aa(lp248
S'5_6'
p249
ag11
aS'891'
p250
aF1647.588195515387
aF3.8408007317065356
aF0.669130176698854
aF0.0015598531716039356
aa(lp251
S'5_6'
p252
ag11
aS'771'
p253
aF1654.6537561788157
aF3.6917278194027983
aF0.6662729143637329
aF0.001486533508346477
aa(lp254
S'5_6'
p255
ag11
aS'1791'
p256
aF1658.1637340367643
aF3.722486862875308
aF0.6648625571542706
aF0.0014925800654192708
aa(lp257
S'5_6'
p258
ag11
aS'91'
p259
aF1654.5637632294352
aF4.319506675376369
aF0.6663091534413608
aF0.0017395079598121423
aa(lp260
S'5_6'
p261
ag11
aS'2331'
p262
aF1652.6890221776061
aF6.197614229663879
aF0.6670649865753644
aF0.0025015059684142683
aa(lp263
S'5_6'
p264
ag11
aS'2211'
p265
aF1649.4051254706715
aF3.3413615805265224
aF0.6683930850994315
aF0.0013540293653468136
aa(lp266
S'5_6'
p267
ag11
aS'51'
p268
aF1660.2061785028811
aF3.9996616928575253
aF0.66404461967869
aF0.0015997734872135292
aa(lp269
S'5_6'
p270
ag11
aS'1011'
p271
aF1646.5908907057121
aF4.137897118861148
aF0.669535454504827
aF0.0016825483754398264
aa(lp272
S'5_6'
p273
ag11
aS'2411'
p274
aF1646.983112897651
aF4.110843062509693
aF0.6693760074154852
aF0.001670751627473052
aa(lp275
S'5_6'
p276
ag11
aS'2674'
p277
aF1728.1691899714149
aF4.2432756335503425
aF0.6379300052273194
aF0.001566347127815941
aa(lp278
S'5_6'
p279
ag11
aS'2371'
p280
aF1651.5440046396968
aF3.3626528068003365
aF0.6675274635704722
aF0.0013591300581065999
aa(lp281
S'5_6'
p282
ag11
aS'2251'
p283
aF1648.6928170600397
aF3.9659828304099767
aF0.6686818605530502
aF0.0016085354109136145
aa(lp284
S'5_6'
p285
ag11
aS'291'
p286
aF1651.1123113272529
aF4.296356653877426
aF0.6677019926681714
aF0.0017374262667214386
aa(lp287
S'7_8'
p288
ag11
aS'211'
p289
aF1684.243977521645
aF3.9708876858883877
aF0.6545672688195727
aF0.0015432521309448064
aa(lp290
S'7_8'
p291
ag11
aS'2291'
p292
aF1680.590577643773
aF4.242106692805135
aF0.6559902185919778
aF0.001655834879548864
aa(lp293
S'7_8'
p294
ag11
aS'2451'
p295
aF1668.9917710843004
aF4.021121424596934
aF0.6605490808836783
aF0.001591468638226743
aa(lp296
S'7_8'
p297
ag11
aS'131'
p298
aF1682.6353275641882
aF4.512181038273844
aF0.6551930548065242
aF0.0017569758758045194
aa(lp299
S'7_8'
p300
ag11
aS'1871'
p301
aF1675.6053339174016
aF5.461022755896136
aF0.6579419139319247
aF0.0021443210350971676
aa(lp302
S'7_8'
p303
ag11
aS'251'
p304
aF1675.1550312447778
aF3.9191204581608776
aF0.6581187769665386
aF0.0015397063045518749
aa(lp305
S'7_8'
p306
ag11
aS'171'
p307
aF1673.6054000329116
aF7.086274435448018
aF0.6587281448604774
aF0.00278914516692113
aa(lp308
S'7_8'
p309
ag11
aS'1631'
p310
aF1679.2693452832425
aF3.4866434710213867
aF0.6565063451487031
aF0.0013630949486609916
aa(lp311
S'7_8'
p312
ag11
aS'1711'
p313
aF1672.7663367369048
aF4.19267311061104
aF0.6590585643555739
aF0.0016518847016504334
aa(lp314
S'7_8'
p315
ag11
aS'1831'
p316
aF1670.274099237969
aF5.881298356135313
aF0.6600419541290434
aF0.00232411175002386
aa(lp317
S'7_8'
p318
ag11
aS'851'
p319
aF1672.8800664841335
aF3.534332628668203
aF0.6590137586546544
aF0.0013923136969702832
aa(lp320
S'7_8'
p321
ag11
aS'971'
p322
aF1676.6069086754135
aF4.068676189697935
aF0.6575488712873893
aF0.0015956951043959308
aa(lp323
S'7_8'
p324
ag11
aS'sum'
p325
aF62.25860695877068
aF0.02482291066978986
aF17.707607578213718
aF0.007060138068633271
aa(lp326
S'7_8'
p327
ag11
ag51
aF1713.0860495048607
aF1.8315055894692347
aF0.6435467621202112
aF0.0006880328587397387
aa(lp328
S'7_8'
p329
ag11
aS'811'
p330
aF1673.5747357466694
aF3.5736531584119615
aF0.6587402144908072
aF0.0014066351491842728
aa(lp331
S'7_8'
p332
ag11
aS'931'
p333
aF1685.144783545662
aF3.846673859240768
aF0.6542173652714418
aF0.001493379596710975
aa(lp334
S'7_8'
p335
ag11
aS'1671'
p336
aF1673.925872283428
aF4.158013297983717
aF0.6586020316946811
aF0.001635960140893205
aa(lp337
S'7_8'
p338
ag11
aS'1751'
p339
aF1674.2701005163192
aF5.434529012260168
aF0.6584666237855995
aF0.0021373229859771737
aa(lp340
S'7_8'
p341
ag11
aS'891'
p342
aF1678.93693031956
aF3.7127230095480317
aF0.6566363277162068
aF0.0014520550229084929
aa(lp343
S'7_8'
p344
ag11
aS'771'
p345
aF1680.1174113117772
aF3.8420683577354366
aF0.6561749631124896
aF0.0015005314782996924
aa(lp346
S'7_8'
p347
ag11
aS'1791'
p348
aF1679.962476143128
aF3.6458771691461607
aF0.6562354790942553
aF0.0014241710661932663
aa(lp349
S'7_8'
p350
ag11
aS'91'
p351
aF1678.8611936712327
aF4.2338843884326876
aF0.6566659498403101
aF0.001656031912539793
aa(lp352
S'7_8'
p353
ag11
aS'2331'
p354
aF1674.1668977355596
aF4.3887097272295525
aF0.658507214473842
aF0.0017262299365261207
aa(lp355
S'7_8'
p356
ag11
aS'2211'
p357
aF1680.5258285844436
aF3.9921346586679234
aF0.6560154932702128
aF0.001558382586427207
aa(lp358
S'7_8'
p359
ag11
aS'51'
p360
aF1688.8176258979163
aF3.716171567483938
aF0.6527945726561221
aF0.001436446773832491
aa(lp361
S'7_8'
p362
ag11
aS'1011'
p363
aF1674.9689734919564
aF5.034991998760132
aF0.6581918816643986
aF0.001978538653716165
aa(lp364
S'7_8'
p365
ag11
aS'2411'
p366
aF1676.561047743081
aF4.306792869365898
aF0.6575668579895925
aF0.001689174551044977
aa(lp367
S'7_8'
p368
ag11
aS'2674'
p369
aF1761.130197034219
aF4.395141310240116
aF0.6259906179842398
aF0.0015622452159179084
aa(lp370
S'7_8'
p371
ag11
aS'2371'
p372
aF1679.0704446893437
aF3.614567132310741
aF0.6565841140727892
aF0.0014134412083966878
aa(lp373
S'7_8'
p374
ag11
aS'2251'
p375
aF1676.4831185688113
aF4.225110545383969
aF0.6575974241442425
aF0.0016572918513734101
aa(lp376
S'7_8'
p377
ag11
aS'291'
p378
aF1676.3316453424338
aF3.7506410812902997
aF0.65765684460783
aF0.0014714479593768
aa(lp379
S'9_10'
p380
ag11
aS'211'
p381
aF1678.4862425345502
aF3.875701964874766
aF0.6568126401366461
aF0.001516610607477042
aa(lp382
S'9_10'
p383
ag11
aS'2291'
p384
aF1669.1964674238436
aF4.159838819855831
aF0.6604680766510523
aF0.0016459660669955946
aa(lp385
S'9_10'
p386
ag11
aS'2451'
p387
aF1668.3517471561386
aF3.8359645732990977
aF0.6608024850103629
aF0.001519352814398156
aa(lp388
S'9_10'
p389
ag11
aS'131'
p390
aF1672.2577562814238
aF4.211224548708854
aF0.6592590025377797
aF0.0016602032103101155
aa(lp391
S'9_10'
p392
ag11
aS'1871'
p393
aF1670.793486657945
aF4.020761597693662
aF0.6598367716870669
aF0.0015878960347471517
aa(lp394
S'9_10'
p395
ag11
aS'251'
p396
aF1670.7891753435692
aF3.814738160309331
aF0.6598384743338169
aF0.001506540169655995
aa(lp397
S'9_10'
p398
ag11
aS'171'
p399
aF1669.7811690697629
aF4.127063859453305
aF0.6602368027699904
aF0.0016318542201018103
aa(lp400
S'9_10'
p401
ag11
aS'1631'
p402
aF1680.4253719524856
aF3.844385653731731
aF0.6560547101899679
aF0.0015008862386950168
aa(lp403
S'9_10'
p404
ag11
aS'1711'
p405
aF1671.2492431104642
aF4.107918571079648
aF0.6596568315210232
aF0.0016214317283407497
aa(lp406
S'9_10'
p407
ag11
aS'1831'
p408
aF1672.695756655993
aF4.081690518599119
aF0.6590863736009868
aF0.0016082940315716298
aa(lp409
S'9_10'
p410
ag11
aS'851'
p411
aF1671.322316956742
aF4.100800657594486
aF0.6596279898898108
aF0.001618480688771822
aa(lp412
S'9_10'
p413
ag11
aS'971'
p414
aF1669.9001173631136
aF3.961494299498335
aF0.6601897735853821
aF0.0015661643456707968
aa(lp415
S'9_10'
p416
ag11
aS'sum'
p417
aF62.97578978851389
aF0.02861136030621384
aF17.505949255966808
aF0.007953358319868433
aa(lp418
S'9_10'
p419
ag11
ag51
aF1727.8431033053737
aF3.9227890777435768
aF0.6380503983742285
aF0.0014485905166992468
aa(lp420
S'9_10'
p421
ag11
aS'811'
p422
aF1669.0131078729682
aF3.9649083463025434
aF0.6605406363747184
aF0.0015691806552507017
aa(lp423
S'9_10'
p424
ag11
aS'931'
p425
aF1680.720967760339
aF3.6595936428651195
aF0.655939326955169
aF0.0014282390932678925
aa(lp426
S'9_10'
p427
ag11
aS'1671'
p428
aF1669.0402331879832
aF4.4243188693853375
aF0.660529901239348
aF0.001750943355190727
aa(lp429
S'9_10'
p430
ag11
aS'1751'
p431
aF1672.3358733250866
aF4.182684965686488
aF0.659228207668694
aF0.0016487979222079955
aa(lp432
S'9_10'
p433
ag11
aS'891'
p434
aF1672.3917225418609
aF3.980267284383447
aF0.6592061928628459
aF0.0015689008787528693
aa(lp435
S'9_10'
p436
ag11
aS'771'
p437
aF1678.9102548283004
aF3.679663571922062
aF0.6566467607316527
aF0.0014391711279004547
aa(lp438
S'9_10'
p439
ag11
aS'1791'
p440
aF1675.8118782193628
aF3.643237767765038
aF0.65786082239945
aF0.0014301983565394635
aa(lp441
S'9_10'
p442
ag11
aS'91'
p443
aF1676.1141128441116
aF4.16372532922477
aF0.6577421978277271
aF0.0016339328141257575
aa(lp444
S'9_10'
p445
ag11
aS'2331'
p446
aF1674.598686887968
aF4.378262985264389
aF0.6583374207947841
aF0.0017212329042469042
aa(lp447
S'9_10'
p448
ag11
aS'2211'
p449
aF1672.9516098841045
aF3.6904502552478626
aF0.658985576079233
aF0.0014536902759636552
aa(lp450
S'9_10'
p451
ag11
aS'51'
p452
aF1680.583896116434
aF3.681763299249563
aF0.6559928266239777
aF0.0014371257032846235
aa(lp453
S'9_10'
p454
ag11
aS'1011'
p455
aF1676.5458550237327
aF4.087940823931721
aF0.6575728168058672
aF0.0016033672771153802
aa(lp456
S'9_10'
p457
ag11
aS'2411'
p458
aF1672.3381489393628
aF3.966112785351777
aF0.6592273106317391
aF0.0015634217677853196
aa(lp459
S'9_10'
p460
ag11
aS'2674'
p461
aF1760.0345855589662
aF4.362344055248007
aF0.6263802935679423
aF0.0015525185541185314
aa(lp462
S'9_10'
p463
ag11
aS'2371'
p464
aF1676.5622270800577
aF3.8047613450511237
aF0.6575663954401578
aF0.0014922698142452225
aa(lp465
S'9_10'
p466
ag11
aS'2251'
p467
aF1669.490753843691
aF4.237207982473962
aF0.6603516538525112
aF0.0016759884967926665
aa(lp468
S'9_10'
p469
ag11
aS'291'
p470
aF1673.153817747063
aF4.356364274028097
aF0.6589059348270982
aF0.0017155830169224711
aa.