(lp0
(lp1
S'XscanNumber_YscanNumber'
p2
aS'Type'
p3
aS'BCID'
p4
aS'xsec'
p5
aS'xsecErr'
p6
aS'normChange'
p7
aS'normChangeErr'
p8
aa(lp9
S'1_2'
p10
aS'XY'
p11
aS'1631'
p12
aF9158301.053845288
aF22383.606951348036
aF-999.0
aF-999.0
aa(lp13
S'1_2'
p14
ag11
aS'2211'
p15
aF9163971.040500388
aF23554.026441127568
aF-999.0
aF-999.0
aa(lp16
S'1_2'
p17
ag11
aS'771'
p18
aF9208985.727155324
aF22483.701789945968
aF-999.0
aF-999.0
aa(lp19
S'1_2'
p20
ag11
aS'sum'
p21
aF-113.4387933890088
aF-2553.9019508283245
aF-999.0
aF-999.0
aa(lp22
S'1_2'
p23
ag11
aS'51'
p24
aF9216775.23631879
aF32487.304009176332
aF-999.0
aF-999.0
aa(lp25
S'1_2'
p26
ag11
aS'2674'
p27
aF9186095.063803447
aF34476.969409180245
aF-999.0
aF-999.0
aa(lp28
S'4_3'
p29
ag11
aS'1631'
p30
aF9213309.934877966
aF33693.209684286165
aF-999.0
aF-999.0
aa(lp31
S'4_3'
p32
ag11
aS'2211'
p33
aF9203575.928580478
aF32477.95937355582
aF-999.0
aF-999.0
aa(lp34
S'4_3'
p35
ag11
aS'771'
p36
aF9219810.030653406
aF30597.595874344228
aF-999.0
aF-999.0
aa(lp37
S'4_3'
p38
ag11
aS'sum'
p39
aF-113.4387933890088
aF-2553.9019508283245
aF-999.0
aF-999.0
aa(lp40
S'4_3'
p41
ag11
aS'51'
p42
aF9160995.251937315
aF22599.089723099718
aF-999.0
aF-999.0
aa(lp43
S'4_3'
p44
ag11
aS'2674'
p45
aF9200164.61990147
aF34851.37108461204
aF-999.0
aF-999.0
aa(lp46
S'5_6'
p47
ag11
aS'1631'
p48
aF8940874.534037083
aF24434.833560565752
aF-999.0
aF-999.0
aa(lp49
S'5_6'
p50
ag11
aS'2211'
p51
aF9027774.94121942
aF35346.49546955838
aF-999.0
aF-999.0
aa(lp52
S'5_6'
p53
ag11
aS'771'
p54
aF8928157.015621634
aF532.7045654769113
aF-999.0
aF-999.0
aa(lp55
S'5_6'
p56
ag11
aS'sum'
p57
aF-0.4526700988570703
aF-82030537.50574309
aF-999.0
aF-999.0
aa(lp58
S'5_6'
p59
ag11
aS'51'
p60
aF9088924.327572271
aF43206.14374341496
aF-999.0
aF-999.0
aa(lp61
S'5_6'
p62
ag11
aS'2674'
p63
aF8984961.322189977
aF24932.296738789402
aF-999.0
aF-999.0
aa(lp64
S'7_8'
p65
ag11
aS'1631'
p66
aF9233860.030084334
aF27786.818791151192
aF-999.0
aF-999.0
aa(lp67
S'7_8'
p68
ag11
aS'2211'
p69
aF9170622.168693986
aF35502.16026410554
aF-999.0
aF-999.0
aa(lp70
S'7_8'
p71
ag11
aS'771'
p72
aF9114726.103133854
aF36172.93136965786
aF-999.0
aF-999.0
aa(lp73
S'7_8'
p74
ag11
aS'sum'
p75
aF8516.716578689224
aF81345.5366398787
aF-999.0
aF-999.0
aa(lp76
S'7_8'
p77
ag11
aS'51'
p78
aF9166310.13416824
aF39317.991416072065
aF-999.0
aF-999.0
aa(lp79
S'7_8'
p80
ag11
aS'2674'
p81
aF9182880.789530996
aF27785.164022006502
aF-999.0
aF-999.0
aa(lp82
S'9_10'
p83
ag11
aS'1631'
p84
aF9213891.338165855
aF40991.29008143783
aF-999.0
aF-999.0
aa(lp85
S'9_10'
p86
ag11
aS'2211'
p87
aF9178303.863841716
aF40496.536370498354
aF-999.0
aF-999.0
aa(lp88
S'9_10'
p89
ag11
aS'771'
p90
aF9266190.62250142
aF23711.24881129751
aF-999.0
aF-999.0
aa(lp91
S'9_10'
p92
ag11
aS'sum'
p93
aF-113.4387933890088
aF-2553.9019508283245
aF-999.0
aF-999.0
aa(lp94
S'9_10'
p95
ag11
aS'51'
p96
aF9221171.246516127
aF50306.52428489064
aF-999.0
aF-999.0
aa(lp97
S'9_10'
p98
ag11
aS'2674'
p99
aF9284752.524329724
aF37065.894571422075
aF-999.0
aF-999.0
aa.