(lp0
(lp1
S'XscanNumber_YscanNumber'
p2
aS'Type'
p3
aS'BCID'
p4
aS'xsec'
p5
aS'xsecErr'
p6
aS'normChange'
p7
aS'normChangeErr'
p8
aa(lp9
S'1_2'
p10
aS'XY'
p11
aS'1631'
p12
aF9029855.132096436
aF32784.9260730699
aF-999.0
aF-999.0
aa(lp13
S'1_2'
p14
ag11
aS'2211'
p15
aF9004511.412074884
aF48309.52979514556
aF-999.0
aF-999.0
aa(lp16
S'1_2'
p17
ag11
aS'771'
p18
aF9034538.138397269
aF40884.183682617186
aF-999.0
aF-999.0
aa(lp19
S'1_2'
p20
ag11
aS'sum'
p21
aF-9346495915.408627
aF-25833091.32088948
aF-999.0
aF-999.0
aa(lp22
S'1_2'
p23
ag11
aS'51'
p24
aF9043931.517347304
aF41883.75350887215
aF-999.0
aF-999.0
aa(lp25
S'1_2'
p26
ag11
aS'2674'
p27
aF9040323.40433887
aF34183.517980452365
aF-999.0
aF-999.0
aa(lp28
S'4_3'
p29
ag11
aS'1631'
p30
aF9059726.631634515
aF33204.04237762629
aF-999.0
aF-999.0
aa(lp31
S'4_3'
p32
ag11
aS'2211'
p33
aF9045560.946794279
aF22975.309129267567
aF-999.0
aF-999.0
aa(lp34
S'4_3'
p35
ag11
aS'771'
p36
aF9054789.655770408
aF30958.105186639717
aF-999.0
aF-999.0
aa(lp37
S'4_3'
p38
ag11
aS'sum'
p39
aF-231558623.64685532
aF-847741.2736672435
aF-999.0
aF-999.0
aa(lp40
S'4_3'
p41
ag11
aS'51'
p42
aF9000120.185980795
aF31399.690548140043
aF-999.0
aF-999.0
aa(lp43
S'4_3'
p44
ag11
aS'2674'
p45
aF9045060.65928649
aF34509.25236061913
aF-999.0
aF-999.0
aa(lp46
S'5_6'
p47
ag11
aS'1631'
p48
aF8828930.151491247
aF43747.86250419715
aF-999.0
aF-999.0
aa(lp49
S'5_6'
p50
ag11
aS'2211'
p51
aF8935176.031707857
aF43047.986888790154
aF-999.0
aF-999.0
aa(lp52
S'5_6'
p53
ag11
aS'771'
p54
aF8824092.105999932
aF40685.55930470495
aF-999.0
aF-999.0
aa(lp55
S'5_6'
p56
ag11
aS'sum'
p57
aF-6283839810.722261
aF-2276277732.943914
aF-999.0
aF-999.0
aa(lp58
S'5_6'
p59
ag11
aS'51'
p60
aF8951760.094260195
aF42599.36890859242
aF-999.0
aF-999.0
aa(lp61
S'5_6'
p62
ag11
aS'2674'
p63
aF8821402.058294855
aF24452.702211348922
aF-999.0
aF-999.0
aa(lp64
S'7_8'
p65
ag11
aS'1631'
p66
aF9065842.638925005
aF36580.84317884559
aF-999.0
aF-999.0
aa(lp67
S'7_8'
p68
ag11
aS'2211'
p69
aF9018498.253800932
aF21760.96991209193
aF-999.0
aF-999.0
aa(lp70
S'7_8'
p71
ag11
aS'771'
p72
aF8976147.758524753
aF34344.295792409175
aF-999.0
aF-999.0
aa(lp73
S'7_8'
p74
ag11
aS'sum'
p75
aF-621891616.4695128
aF-797050.1346978836
aF-999.0
aF-999.0
aa(lp76
S'7_8'
p77
ag11
aS'51'
p78
aF9035285.617528867
aF37318.45783139856
aF-999.0
aF-999.0
aa(lp79
S'7_8'
p80
ag11
aS'2674'
p81
aF9014709.523671929
aF26549.508411991716
aF-999.0
aF-999.0
aa(lp82
S'9_10'
p83
ag11
aS'1631'
p84
aF9044956.613223441
aF39205.77370729994
aF-999.0
aF-999.0
aa(lp85
S'9_10'
p86
ag11
aS'2211'
p87
aF9001570.823716681
aF38220.548610610414
aF-999.0
aF-999.0
aa(lp88
S'9_10'
p89
ag11
aS'771'
p90
aF9103837.327688938
aF32655.020674101328
aF-999.0
aF-999.0
aa(lp91
S'9_10'
p92
ag11
aS'sum'
p93
aF-6270607683.192631
aF-642654791.185786
aF-999.0
aF-999.0
aa(lp94
S'9_10'
p95
ag11
aS'51'
p96
aF9045304.214292513
aF41709.18918425017
aF-999.0
aF-999.0
aa(lp97
S'9_10'
p98
ag11
aS'2674'
p99
aF9114088.135001142
aF43545.10544018657
aF-999.0
aF-999.0
aa.