(lp0
(lp1
S'XscanNumber_YscanNumber'
p2
aS'Type'
p3
aS'BCID'
p4
aS'xsec'
p5
aS'xsecErr'
p6
aS'normChange'
p7
aS'normChangeErr'
p8
aa(lp9
S'1_2'
p10
aS'XY'
p11
aS'1631'
p12
aF9029855.132096436
aF32784.9260730699
aF-999.0
aF-999.0
aa(lp13
S'1_2'
p14
ag11
aS'2211'
p15
aF9004511.118059551
aF48274.43633279841
aF-999.0
aF-999.0
aa(lp16
S'1_2'
p17
ag11
aS'771'
p18
aF9034536.992150685
aF40884.21069593266
aF-999.0
aF-999.0
aa(lp19
S'1_2'
p20
ag11
aS'sum'
p21
aF-113.4387933890088
aF-2553.9019508283245
aF-999.0
aF-999.0
aa(lp22
S'1_2'
p23
ag11
aS'51'
p24
aF9043931.856259268
aF41874.10553486753
aF-999.0
aF-999.0
aa(lp25
S'1_2'
p26
ag11
aS'2674'
p27
aF9040321.805245152
aF34182.60351172256
aF-999.0
aF-999.0
aa(lp28
S'4_3'
p29
ag11
aS'1631'
p30
aF9059726.631634515
aF33204.04237762629
aF-999.0
aF-999.0
aa(lp31
S'4_3'
p32
ag11
aS'2211'
p33
aF9045560.946794305
aF22974.78384279419
aF-999.0
aF-999.0
aa(lp34
S'4_3'
p35
ag11
aS'771'
p36
aF9054790.20325154
aF30958.77313136884
aF-999.0
aF-999.0
aa(lp37
S'4_3'
p38
ag11
aS'sum'
p39
aF-113.4387933890088
aF-2553.9019508283245
aF-999.0
aF-999.0
aa(lp40
S'4_3'
p41
ag11
aS'51'
p42
aF9000120.185980795
aF31399.690548140043
aF-999.0
aF-999.0
aa(lp43
S'4_3'
p44
ag11
aS'2674'
p45
aF9045060.65928649
aF34509.25236061913
aF-999.0
aF-999.0
aa(lp46
S'5_6'
p47
ag11
aS'1631'
p48
aF8828928.736672426
aF43750.70627236573
aF-999.0
aF-999.0
aa(lp49
S'5_6'
p50
ag11
aS'2211'
p51
aF8935176.256759683
aF43047.1165709512
aF-999.0
aF-999.0
aa(lp52
S'5_6'
p53
ag11
aS'771'
p54
aF8824093.665280566
aF40682.24049598195
aF-999.0
aF-999.0
aa(lp55
S'5_6'
p56
ag11
aS'sum'
p57
aF-0.4526700988570703
aF-82030537.50574309
aF-999.0
aF-999.0
aa(lp58
S'5_6'
p59
ag11
aS'51'
p60
aF8951760.094260195
aF42599.36890859242
aF-999.0
aF-999.0
aa(lp61
S'5_6'
p62
ag11
aS'2674'
p63
aF8821402.062510172
aF24452.69451857636
aF-999.0
aF-999.0
aa(lp64
S'7_8'
p65
ag11
aS'1631'
p66
aF9065841.902153658
aF27173.325215906432
aF-999.0
aF-999.0
aa(lp67
S'7_8'
p68
ag11
aS'2211'
p69
aF9018499.33264773
aF21744.540084090226
aF-999.0
aF-999.0
aa(lp70
S'7_8'
p71
ag11
aS'771'
p72
aF8976147.600960363
aF34359.158442317545
aF-999.0
aF-999.0
aa(lp73
S'7_8'
p74
ag11
aS'sum'
p75
aF8516.716578689224
aF81345.5366398787
aF-999.0
aF-999.0
aa(lp76
S'7_8'
p77
ag11
aS'51'
p78
aF9035284.470116263
aF37319.43947259914
aF-999.0
aF-999.0
aa(lp79
S'7_8'
p80
ag11
aS'2674'
p81
aF9014709.34043028
aF26562.943574562792
aF-999.0
aF-999.0
aa(lp82
S'9_10'
p83
ag11
aS'1631'
p84
aF9044956.613223441
aF39205.77370729994
aF-999.0
aF-999.0
aa(lp85
S'9_10'
p86
ag11
aS'2211'
p87
aF9001570.823716681
aF38220.548610610414
aF-999.0
aF-999.0
aa(lp88
S'9_10'
p89
ag11
aS'771'
p90
aF9103836.755031858
aF32655.037238868437
aF-999.0
aF-999.0
aa(lp91
S'9_10'
p92
ag11
aS'sum'
p93
aF-113.4387933890088
aF-2553.9019508283245
aF-999.0
aF-999.0
aa(lp94
S'9_10'
p95
ag11
aS'51'
p96
aF9045304.214292513
aF41709.18918425017
aF-999.0
aF-999.0
aa(lp97
S'9_10'
p98
ag11
aS'2674'
p99
aF9114087.471712729
aF43542.49714401692
aF-999.0
aF-999.0
aa.