(lp0
(lp1
S'XscanNumber_YscanNumber'
p2
aS'Type'
p3
aS'BCID'
p4
aS'xsec'
p5
aS'xsecErr'
p6
aS'normChange'
p7
aS'normChangeErr'
p8
aa(lp9
S'1_2'
p10
aS'XY'
p11
aS'211'
p12
aF500.8651897044495
aF2.171259367522182
aF-999.0
aF-999.0
aa(lp13
S'1_2'
p14
ag11
aS'2291'
p15
aF503.14829673758976
aF2.8025132145429756
aF-999.0
aF-999.0
aa(lp16
S'1_2'
p17
ag11
aS'2451'
p18
aF498.04392019807665
aF2.9934184233445564
aF-999.0
aF-999.0
aa(lp19
S'1_2'
p20
ag11
aS'131'
p21
aF498.29842005615706
aF2.2605884005459314
aF-999.0
aF-999.0
aa(lp22
S'1_2'
p23
ag11
aS'1871'
p24
aF499.08492870376017
aF3.040299874848724
aF-999.0
aF-999.0
aa(lp25
S'1_2'
p26
ag11
aS'251'
p27
aF501.0583210738234
aF3.0243816405413173
aF-999.0
aF-999.0
aa(lp28
S'1_2'
p29
ag11
aS'171'
p30
aF496.2898727544595
aF3.0971248673680356
aF-999.0
aF-999.0
aa(lp31
S'1_2'
p32
ag11
aS'1631'
p33
aF505.71895226706687
aF5.97616571790696
aF-999.0
aF-999.0
aa(lp34
S'1_2'
p35
ag11
aS'1711'
p36
aF496.75044851555555
aF3.1604442421636496
aF-999.0
aF-999.0
aa(lp37
S'1_2'
p38
ag11
aS'1831'
p39
aF502.27774836597354
aF2.952610609268626
aF-999.0
aF-999.0
aa(lp40
S'1_2'
p41
ag11
aS'851'
p42
aF501.01870359153526
aF2.824445264604904
aF-999.0
aF-999.0
aa(lp43
S'1_2'
p44
ag11
aS'971'
p45
aF502.2030248800327
aF2.6849555583916396
aF-999.0
aF-999.0
aa(lp46
S'1_2'
p47
ag11
aS'sum'
p48
aF16.425837901788935
aF0.017938102850826407
aF-999.0
aF-999.0
aa(lp49
S'1_2'
p50
ag11
aS'1'
p51
aF506.348613182867
aF23.09309709500802
aF-999.0
aF-999.0
aa(lp52
S'1_2'
p53
ag11
aS'811'
p54
aF501.91631471851116
aF2.6294692980464935
aF-999.0
aF-999.0
aa(lp55
S'1_2'
p56
ag11
aS'931'
p57
aF501.3811375426916
aF2.336104364696944
aF-999.0
aF-999.0
aa(lp58
S'1_2'
p59
ag11
aS'1671'
p60
aF500.27309591985625
aF3.0093951324160337
aF-999.0
aF-999.0
aa(lp61
S'1_2'
p62
ag11
aS'1751'
p63
aF498.16697288758644
aF3.29143632211989
aF-999.0
aF-999.0
aa(lp64
S'1_2'
p65
ag11
aS'891'
p66
aF499.86027777972606
aF2.1326007957973707
aF-999.0
aF-999.0
aa(lp67
S'1_2'
p68
ag11
aS'771'
p69
aF504.6485943323097
aF2.818315261239197
aF-999.0
aF-999.0
aa(lp70
S'1_2'
p71
ag11
aS'1791'
p72
aF501.31518837827633
aF3.171503267171817
aF-999.0
aF-999.0
aa(lp73
S'1_2'
p74
ag11
aS'91'
p75
aF502.15363534997
aF4.145041936878954
aF-999.0
aF-999.0
aa(lp76
S'1_2'
p77
ag11
aS'2331'
p78
aF500.91292704978434
aF2.7408038222102813
aF-999.0
aF-999.0
aa(lp79
S'1_2'
p80
ag11
aS'2211'
p81
aF502.13184460571864
aF2.4496835912050687
aF-999.0
aF-999.0
aa(lp82
S'1_2'
p83
ag11
aS'51'
p84
aF501.8161543095359
aF2.50206018144503
aF-999.0
aF-999.0
aa(lp85
S'1_2'
p86
ag11
aS'1011'
p87
aF503.3589562929185
aF2.891656305354087
aF-999.0
aF-999.0
aa(lp88
S'1_2'
p89
ag11
aS'2411'
p90
aF499.3878256383853
aF3.149418280469151
aF-999.0
aF-999.0
aa(lp91
S'1_2'
p92
ag11
aS'2674'
p93
aF501.10256160171014
aF2.5755608005554143
aF-999.0
aF-999.0
aa(lp94
S'1_2'
p95
ag11
aS'2371'
p96
aF503.1786462224537
aF2.0384765698905944
aF-999.0
aF-999.0
aa(lp97
S'1_2'
p98
ag11
aS'2251'
p99
aF498.8427184769867
aF3.2196716465829343
aF-999.0
aF-999.0
aa(lp100
S'1_2'
p101
ag11
aS'291'
p102
aF501.8137338851428
aF2.9258388654957166
aF-999.0
aF-999.0
aa(lp103
S'4_3'
p104
ag11
aS'211'
p105
aF503.0035854580274
aF2.1971722346302074
aF-999.0
aF-999.0
aa(lp106
S'4_3'
p107
ag11
aS'2291'
p108
aF503.60389637795
aF2.6172520058038424
aF-999.0
aF-999.0
aa(lp109
S'4_3'
p110
ag11
aS'2451'
p111
aF500.81645134264164
aF2.8247097596335013
aF-999.0
aF-999.0
aa(lp112
S'4_3'
p113
ag11
aS'131'
p114
aF507.14759035187603
aF2.943787068542533
aF-999.0
aF-999.0
aa(lp115
S'4_3'
p116
ag11
aS'1871'
p117
aF497.86362109515
aF2.9628860646338624
aF-999.0
aF-999.0
aa(lp118
S'4_3'
p119
ag11
aS'251'
p120
aF500.4207703714946
aF3.2285935927202436
aF-999.0
aF-999.0
aa(lp121
S'4_3'
p122
ag11
aS'171'
p123
aF502.95689625062
aF2.9478140471513243
aF-999.0
aF-999.0
aa(lp124
S'4_3'
p125
ag11
aS'1631'
p126
aF505.3984218894
aF2.473616632664882
aF-999.0
aF-999.0
aa(lp127
S'4_3'
p128
ag11
aS'1711'
p129
aF503.7405413660665
aF3.2284848588337973
aF-999.0
aF-999.0
aa(lp130
S'4_3'
p131
ag11
aS'1831'
p132
aF502.813786558991
aF3.0332182073970815
aF-999.0
aF-999.0
aa(lp133
S'4_3'
p134
ag11
aS'851'
p135
aF499.7798332164433
aF4.1244984424689175
aF-999.0
aF-999.0
aa(lp136
S'4_3'
p137
ag11
aS'971'
p138
aF505.25746700641025
aF2.653403016108395
aF-999.0
aF-999.0
aa(lp139
S'4_3'
p140
ag11
aS'sum'
p141
aF16.494922331733225
aF0.016875025557533722
aF-999.0
aF-999.0
aa(lp142
S'4_3'
p143
ag11
ag51
aF502.42334588791044
aF0.7881217530755187
aF-999.0
aF-999.0
aa(lp144
S'4_3'
p145
ag11
aS'811'
p146
aF502.5311844512516
aF2.594505121325047
aF-999.0
aF-999.0
aa(lp147
S'4_3'
p148
ag11
aS'931'
p149
aF506.6310104957795
aF7.030184247879755
aF-999.0
aF-999.0
aa(lp150
S'4_3'
p151
ag11
aS'1671'
p152
aF501.7613403140295
aF3.0053371225461354
aF-999.0
aF-999.0
aa(lp153
S'4_3'
p154
ag11
aS'1751'
p155
aF501.43448169526516
aF3.110115929524766
aF-999.0
aF-999.0
aa(lp156
S'4_3'
p157
ag11
aS'891'
p158
aF502.8150704845859
aF2.729945669982929
aF-999.0
aF-999.0
aa(lp159
S'4_3'
p160
ag11
aS'771'
p161
aF507.95704614019604
aF2.7099216498687255
aF-999.0
aF-999.0
aa(lp162
S'4_3'
p163
ag11
aS'1791'
p164
aF501.27712694371223
aF2.466764663985568
aF-999.0
aF-999.0
aa(lp165
S'4_3'
p166
ag11
aS'91'
p167
aF502.22136531051854
aF2.8815118293043738
aF-999.0
aF-999.0
aa(lp168
S'4_3'
p169
ag11
aS'2331'
p170
aF506.7165611310322
aF2.666848271017364
aF-999.0
aF-999.0
aa(lp171
S'4_3'
p172
ag11
aS'2211'
p173
aF507.915744477808
aF1.785412514774183
aF-999.0
aF-999.0
aa(lp174
S'4_3'
p175
ag11
aS'51'
p176
aF509.3319193952361
aF5.931900995703954
aF-999.0
aF-999.0
aa(lp177
S'4_3'
p178
ag11
aS'1011'
p179
aF504.22417922248
aF4.20066239339497
aF-999.0
aF-999.0
aa(lp180
S'4_3'
p181
ag11
aS'2411'
p182
aF501.7657589595647
aF2.9654213768597772
aF-999.0
aF-999.0
aa(lp183
S'4_3'
p184
ag11
aS'2674'
p185
aF505.4363039382264
aF3.1750799056682624
aF-999.0
aF-999.0
aa(lp186
S'4_3'
p187
ag11
aS'2371'
p188
aF503.3530171221092
aF1.966142990769781
aF-999.0
aF-999.0
aa(lp189
S'4_3'
p190
ag11
aS'2251'
p191
aF500.64741052882164
aF2.83336853304822
aF-999.0
aF-999.0
aa(lp192
S'4_3'
p193
ag11
aS'291'
p194
aF504.8654626605625
aF2.2918160253794584
aF-999.0
aF-999.0
aa(lp195
S'5_6'
p196
ag11
aS'211'
p197
aF491.89222154825455
aF0.04321618999162121
aF-999.0
aF-999.0
aa(lp198
S'5_6'
p199
ag11
aS'2291'
p200
aF493.3371885665601
aF3.9135618853996887
aF-999.0
aF-999.0
aa(lp201
S'5_6'
p202
ag11
aS'2451'
p203
aF493.80164480071
aF3.067499263875074
aF-999.0
aF-999.0
aa(lp204
S'5_6'
p205
ag11
aS'131'
p206
aF494.4978448236864
aF6.220564622795358
aF-999.0
aF-999.0
aa(lp207
S'5_6'
p208
ag11
aS'1871'
p209
aF493.06252017409065
aF2.797275966382952
aF-999.0
aF-999.0
aa(lp210
S'5_6'
p211
ag11
aS'251'
p212
aF491.54858016460884
aF2.855538255108083
aF-999.0
aF-999.0
aa(lp213
S'5_6'
p214
ag11
aS'171'
p215
aF493.76980337804144
aF3.0632410695958727
aF-999.0
aF-999.0
aa(lp216
S'5_6'
p217
ag11
aS'1631'
p218
aF491.39829275534936
aF1.7376633416655738
aF-999.0
aF-999.0
aa(lp219
S'5_6'
p220
ag11
aS'1711'
p221
aF492.22145131968483
aF3.6356233306299917
aF-999.0
aF-999.0
aa(lp222
S'5_6'
p223
ag11
aS'1831'
p224
aF494.2453483185979
aF3.8429949788274698
aF-999.0
aF-999.0
aa(lp225
S'5_6'
p226
ag11
aS'851'
p227
aF496.93422639398636
aF2.724306795079323
aF-999.0
aF-999.0
aa(lp228
S'5_6'
p229
ag11
aS'971'
p230
aF491.801975746479
aF3.211365717636464
aF-999.0
aF-999.0
aa(lp231
S'5_6'
p232
ag11
aS'sum'
p233
aF16.303015597158925
aF0.04316650141291787
aF-999.0
aF-999.0
aa(lp234
S'5_6'
p235
ag11
ag51
aF492.5610987403369
aF1.8113237082612366
aF-999.0
aF-999.0
aa(lp236
S'5_6'
p237
ag11
aS'811'
p238
aF497.24601560271446
aF2.694868221575354
aF-999.0
aF-999.0
aa(lp239
S'5_6'
p240
ag11
aS'931'
p241
aF494.1841606765896
aF1.900207308182146
aF-999.0
aF-999.0
aa(lp242
S'5_6'
p243
ag11
aS'1671'
p244
aF494.67009482669084
aF4.244158578194419
aF-999.0
aF-999.0
aa(lp245
S'5_6'
p246
ag11
aS'1751'
p247
aF496.9789351034276
aF3.0509708577658134
aF-999.0
aF-999.0
aa(lp248
S'5_6'
p249
ag11
aS'891'
p250
aF494.38994702274624
aF3.252585670598254
aF-999.0
aF-999.0
aa(lp251
S'5_6'
p252
ag11
aS'771'
p253
aF492.9889667201864
aF2.0510289450079475
aF-999.0
aF-999.0
aa(lp254
S'5_6'
p255
ag11
aS'1791'
p256
aF493.2643404465308
aF2.77534382215397
aF-999.0
aF-999.0
aa(lp257
S'5_6'
p258
ag11
aS'91'
p259
aF497.67929820270837
aF3.104312753771864
aF-999.0
aF-999.0
aa(lp260
S'5_6'
p261
ag11
aS'2331'
p262
aF495.5422376702774
aF10.962171879617276
aF-999.0
aF-999.0
aa(lp263
S'5_6'
p264
ag11
aS'2211'
p265
aF495.57204889046426
aF2.657922339123998
aF-999.0
aF-999.0
aa(lp266
S'5_6'
p267
ag11
aS'51'
p268
aF497.720504719961
aF2.474402222125107
aF-999.0
aF-999.0
aa(lp269
S'5_6'
p270
ag11
aS'1011'
p271
aF493.68980052691927
aF2.890077987278966
aF-999.0
aF-999.0
aa(lp272
S'5_6'
p273
ag11
aS'2411'
p274
aF496.8127307768728
aF3.064086155057802
aF-999.0
aF-999.0
aa(lp275
S'5_6'
p276
ag11
aS'2674'
p277
aF496.88146098440785
aF2.724072867214852
aF-999.0
aF-999.0
aa(lp278
S'5_6'
p279
ag11
aS'2371'
p280
aF499.6277203997086
aF2.8131074988846505
aF-999.0
aF-999.0
aa(lp281
S'5_6'
p282
ag11
aS'2251'
p283
aF495.32123821526164
aF2.8339547271433556
aF-999.0
aF-999.0
aa(lp284
S'5_6'
p285
ag11
aS'291'
p286
aF493.68512199036786
aF2.763315804916843
aF-999.0
aF-999.0
aa(lp287
S'7_8'
p288
ag11
aS'211'
p289
aF504.03431763994087
aF2.7175852682142545
aF-999.0
aF-999.0
aa(lp290
S'7_8'
p291
ag11
aS'2291'
p292
aF506.6152812985025
aF39.81906790972285
aF-999.0
aF-999.0
aa(lp293
S'7_8'
p294
ag11
aS'2451'
p295
aF501.4310507249697
aF2.988091294811269
aF-999.0
aF-999.0
aa(lp296
S'7_8'
p297
ag11
aS'131'
p298
aF505.90801305355393
aF3.357956321365963
aF-999.0
aF-999.0
aa(lp299
S'7_8'
p300
ag11
aS'1871'
p301
aF498.72716147689357
aF4.604734173036036
aF-999.0
aF-999.0
aa(lp302
S'7_8'
p303
ag11
aS'251'
p304
aF498.7106769147517
aF2.105921090543118
aF-999.0
aF-999.0
aa(lp305
S'7_8'
p306
ag11
aS'171'
p307
aF505.725640129893
aF3.2377117526257333
aF-999.0
aF-999.0
aa(lp308
S'7_8'
p309
ag11
aS'1631'
p310
aF504.21587393542535
aF2.7324657122022744
aF-999.0
aF-999.0
aa(lp311
S'7_8'
p312
ag11
aS'1711'
p313
aF500.2562521321383
aF4.077652333591689
aF-999.0
aF-999.0
aa(lp314
S'7_8'
p315
ag11
aS'1831'
p316
aF500.18013449314157
aF2.971038500243358
aF-999.0
aF-999.0
aa(lp317
S'7_8'
p318
ag11
aS'851'
p319
aF501.9542674295395
aF2.6246844200650723
aF-999.0
aF-999.0
aa(lp320
S'7_8'
p321
ag11
aS'971'
p322
aF505.6034665512566
aF2.837643263422971
aF-999.0
aF-999.0
aa(lp323
S'7_8'
p324
ag11
aS'sum'
p325
aF16.637085849793575
aF0.017534970751333933
aF-999.0
aF-999.0
aa(lp326
S'7_8'
p327
ag11
ag51
aF502.58647035434956
aF0.14074170675616032
aF-999.0
aF-999.0
aa(lp328
S'7_8'
p329
ag11
aS'811'
p330
aF500.5466130251996
aF2.972751250756117
aF-999.0
aF-999.0
aa(lp331
S'7_8'
p332
ag11
aS'931'
p333
aF503.5827432787849
aF2.677463550954572
aF-999.0
aF-999.0
aa(lp334
S'7_8'
p335
ag11
aS'1671'
p336
aF498.6000212298852
aF3.344079357501467
aF-999.0
aF-999.0
aa(lp337
S'7_8'
p338
ag11
aS'1751'
p339
aF497.06387446198136
aF3.5705293591402505
aF-999.0
aF-999.0
aa(lp340
S'7_8'
p341
ag11
aS'891'
p342
aF503.22663364446174
aF2.6300131856357516
aF-999.0
aF-999.0
aa(lp343
S'7_8'
p344
ag11
aS'771'
p345
aF502.7001517295672
aF1.9136923249846518
aF-999.0
aF-999.0
aa(lp346
S'7_8'
p347
ag11
aS'1791'
p348
aF503.826614106491
aF2.638188758365954
aF-999.0
aF-999.0
aa(lp349
S'7_8'
p350
ag11
aS'91'
p351
aF502.01792332168077
aF8.22688308954111
aF-999.0
aF-999.0
aa(lp352
S'7_8'
p353
ag11
aS'2331'
p354
aF498.7111386427539
aF3.610552314517579
aF-999.0
aF-999.0
aa(lp355
S'7_8'
p356
ag11
aS'2211'
p357
aF502.7064963877187
aF4.742106074609893
aF-999.0
aF-999.0
aa(lp358
S'7_8'
p359
ag11
aS'51'
p360
aF499.10595689324253
aF7.908023517201452
aF-999.0
aF-999.0
aa(lp361
S'7_8'
p362
ag11
aS'1011'
p363
aF507.059646229454
aF6.316459891790246
aF-999.0
aF-999.0
aa(lp364
S'7_8'
p365
ag11
aS'2411'
p366
aF502.8972777243093
aF2.885287754438702
aF-999.0
aF-999.0
aa(lp367
S'7_8'
p368
ag11
aS'2674'
p369
aF501.3328134404864
aF3.612078268866825
aF-999.0
aF-999.0
aa(lp370
S'7_8'
p371
ag11
aS'2371'
p372
aF502.6268929331404
aF2.535647616076289
aF-999.0
aF-999.0
aa(lp373
S'7_8'
p374
ag11
aS'2251'
p375
aF503.69771849327276
aF3.32056903369478
aF-999.0
aF-999.0
aa(lp376
S'7_8'
p377
ag11
aS'291'
p378
aF503.0560157955278
aF3.78873214670354
aF-999.0
aF-999.0
aa(lp379
S'9_10'
p380
ag11
aS'211'
p381
aF500.70475015116494
aF2.6560208042914124
aF-999.0
aF-999.0
aa(lp382
S'9_10'
p383
ag11
aS'2291'
p384
aF501.4317100936524
aF2.9957099067808413
aF-999.0
aF-999.0
aa(lp385
S'9_10'
p386
ag11
aS'2451'
p387
aF502.18891120842727
aF2.9343436741672733
aF-999.0
aF-999.0
aa(lp388
S'9_10'
p389
ag11
aS'131'
p390
aF498.56056259508904
aF2.8956427943273484
aF-999.0
aF-999.0
aa(lp391
S'9_10'
p392
ag11
aS'1871'
p393
aF503.57377033760383
aF2.769383543073814
aF-999.0
aF-999.0
aa(lp394
S'9_10'
p395
ag11
aS'251'
p396
aF500.1347566399258
aF2.8221673326575387
aF-999.0
aF-999.0
aa(lp397
S'9_10'
p398
ag11
aS'171'
p399
aF502.23871771230387
aF2.781956992777624
aF-999.0
aF-999.0
aa(lp400
S'9_10'
p401
ag11
aS'1631'
p402
aF504.60621964078024
aF2.803938498839897
aF-999.0
aF-999.0
aa(lp403
S'9_10'
p404
ag11
aS'1711'
p405
aF500.9398600521596
aF3.153136851159857
aF-999.0
aF-999.0
aa(lp406
S'9_10'
p407
ag11
aS'1831'
p408
aF499.99817751783735
aF3.0169779567218584
aF-999.0
aF-999.0
aa(lp409
S'9_10'
p410
ag11
aS'851'
p411
aF499.67359526574774
aF2.9312713325355437
aF-999.0
aF-999.0
aa(lp412
S'9_10'
p413
ag11
aS'971'
p414
aF500.715717994797
aF3.079994458824552
aF-999.0
aF-999.0
aa(lp415
S'9_10'
p416
ag11
aS'sum'
p417
aF16.444312099550906
aF0.017640903911051463
aF-999.0
aF-999.0
aa(lp418
S'9_10'
p419
ag11
ag51
aF505.35749423492746
aF7.807300190743899
aF-999.0
aF-999.0
aa(lp420
S'9_10'
p421
ag11
aS'811'
p422
aF500.90944102930087
aF2.500851357772781
aF-999.0
aF-999.0
aa(lp423
S'9_10'
p424
ag11
aS'931'
p425
aF504.3743341751235
aF2.932394084977588
aF-999.0
aF-999.0
aa(lp426
S'9_10'
p427
ag11
aS'1671'
p428
aF499.6428610638468
aF2.841154122918179
aF-999.0
aF-999.0
aa(lp429
S'9_10'
p430
ag11
aS'1751'
p431
aF498.0240203748921
aF5.01920265844831
aF-999.0
aF-999.0
aa(lp432
S'9_10'
p433
ag11
aS'891'
p434
aF502.8273773631169
aF3.363097089396525
aF-999.0
aF-999.0
aa(lp435
S'9_10'
p436
ag11
aS'771'
p437
aF504.5880379213378
aF3.9210376288438895
aF-999.0
aF-999.0
aa(lp438
S'9_10'
p439
ag11
aS'1791'
p440
aF501.6557220649504
aF2.7658057921727663
aF-999.0
aF-999.0
aa(lp441
S'9_10'
p442
ag11
aS'91'
p443
aF499.13548657825044
aF2.800007787833167
aF-999.0
aF-999.0
aa(lp444
S'9_10'
p445
ag11
aS'2331'
p446
aF499.99979646647654
aF3.0377322819646424
aF-999.0
aF-999.0
aa(lp447
S'9_10'
p448
ag11
aS'2211'
p449
aF501.0331292011364
aF2.4724593112254234
aF-999.0
aF-999.0
aa(lp450
S'9_10'
p451
ag11
aS'51'
p452
aF503.97074694380257
aF2.479058495039257
aF-999.0
aF-999.0
aa(lp453
S'9_10'
p454
ag11
aS'1011'
p455
aF502.17711269548136
aF3.300305378428939
aF-999.0
aF-999.0
aa(lp456
S'9_10'
p457
ag11
aS'2411'
p458
aF504.61340398289536
aF2.891824399534702
aF-999.0
aF-999.0
aa(lp459
S'9_10'
p460
ag11
aS'2674'
p461
aF502.12670228702723
aF4.157878773961677
aF-999.0
aF-999.0
aa(lp462
S'9_10'
p463
ag11
aS'2371'
p464
aF503.9851398144032
aF2.5559333529287396
aF-999.0
aF-999.0
aa(lp465
S'9_10'
p466
ag11
aS'2251'
p467
aF501.79597473391374
aF3.1779739389833472
aF-999.0
aF-999.0
aa(lp468
S'9_10'
p469
ag11
aS'291'
p470
aF499.3561372923291
aF3.1838802574818095
aF-999.0
aF-999.0
aa.