(lp0
(lp1
S'Scan'
p2
aS'Type'
p3
aS'BCID'
p4
aS'sigma'
p5
aS'sigmaErr'
p6
aS'sigmaRatio'
p7
aS'sigmaRatio_Err'
p8
aS'Amp'
p9
aS'AmpErr'
p10
aS'Frac'
p11
aS'FracErr'
p12
aS'Mean'
p13
aS'MeanErr'
p14
aS'Const'
p15
aS'ConstErr'
p16
aS'CapSigma'
p17
aS'CapSigmaErr'
p18
aS'peak'
p19
aS'peakErr'
p20
aS'area'
p21
aS'areaErr'
p22
aS'fitStatus'
p23
aS'chi2'
p24
aS'ndof'
p25
aa(lp26
S'1'
p27
aS'X'
p28
aS'644'
p29
aF0.13041674464600014
aFnan
aF1.0
aFnan
aFnan
aFnan
aF0.99
aFnan
aF0.0
aFnan
aF0.7
aFnan
aF0.13041674464600014
aFnan
aFnan
aFnan
aFnan
aFnan
aI0
aFinf
aI20
aa(lp30
g27
ag28
aS'1215'
p31
aF0.13041674464600014
aFnan
aF1.0
aFnan
aFnan
aFnan
aF0.99
aFnan
aF0.0
aFnan
aF0.7
aFnan
aF0.13041674464600014
aFnan
aFnan
aFnan
aFnan
aFnan
aI0
aFinf
aI20
aa(lp32
g27
ag28
aS'2269'
p33
aF0.13041674464600014
aFnan
aF1.0
aFnan
aFnan
aFnan
aF0.99
aFnan
aF0.0
aFnan
aF0.7
aFnan
aF0.13041674464600014
aFnan
aFnan
aFnan
aFnan
aFnan
aI0
aFinf
aI20
aa(lp34
g27
ag28
aS'2389'
p35
aF0.13041674464600014
aFnan
aF1.0
aFnan
aFnan
aFnan
aF0.99
aFnan
aF0.0
aFnan
aF0.7
aFnan
aF0.13041674464600014
aFnan
aFnan
aFnan
aFnan
aFnan
aI0
aFinf
aI20
aa(lp36
g27
ag28
aS'2589'
p37
aF0.13041674464600014
aFnan
aF1.0
aFnan
aFnan
aFnan
aF0.99
aFnan
aF0.0
aFnan
aF0.7
aFnan
aF0.13041674464600014
aFnan
aFnan
aFnan
aFnan
aFnan
aI0
aFinf
aI20
aa(lp38
g27
ag28
aS'sum'
p39
aF0.004437070999916149
aF0.004844248207339711
aF1.165356139157149
aF0.0034948869178653315
aF0.22000001334234284
aF8.11594129383955e-05
aF0.9900000012329322
aF0.0004666303830674289
aF0.0
aF0.5224387242781253
aF0.3000000014561251
aF1.2293255962843634e-05
aF0.004437070999916149
aF0.004844248207339711
aF0.22000001334234284
aF8.11594129383955e-05
aF0.00244685942588042
aF0.0026714008102031285
aI0
aF2.43040003635861
aI19
aa(lp40
S'10'
p41
ag28
aS'644'
p42
aF0.10714202442840634
aF0.0007104375574863542
aF0.5000000002407538
aF1.0673921255193715
aF97.99146545145624
aF1.041499593484815
aF0.984253753513652
aF0.006727042524539928
aF0.000713916027335739
aF0.0008913312277298554
aF0.30000140240614237
aF0.5491328288862676
aF0.10714202442840634
aF0.0007104375574863542
aF97.99146545145624
aF1.041499593484815
aF26.31710024470386
aF0.32968086329369856
aI0
aF15.286757664597472
aI13
aa(lp43
S'10'
p44
ag28
aS'1215'
p45
aF0.1059268348298734
aF0.0010221995001509884
aF0.6084136208550653
aF0.28761860543697926
aF97.60708347636775
aF1.0846518741148259
aF0.9547083039544797
aF0.10442241122315649
aF0.0006390861016832412
aF0.000881575145339624
aF0.30000011920841035
aF0.780163202670708
aF0.1059268348298734
aF0.0010221995001509884
aF97.60708347636775
aF1.0846518741148259
aF25.91655464350161
aF0.3814311213415258
aI0
aF14.964048223782543
aI13
aa(lp46
S'10'
p47
ag28
aS'2269'
p48
aF0.10611992617420765
aF2.581948185825777e-06
aF1.0215385628525873
aF0.9503252272137586
aF96.89339779844138
aF0.003809593879594786
aF0.9999999999999922
aF0.6435340877358798
aF-0.0008087992871418262
aF4.313367614642478e-06
aF0.7499852947972651
aF0.0005724562618748541
aF0.10611992617420765
aF2.581948185825777e-06
aF96.89339779844138
aF0.003809593879594786
aF25.77395459511643
aF0.0011917013268083337
aI0
aF13.412189697836052
aI13
aa(lp49
S'10'
p50
ag28
aS'2389'
p51
aF0.10603241279801212
aF0.0010185594247356386
aF0.7639825951361893
aF0.12377455100579438
aF95.09150229325832
aF1.1719384948098721
aF0.7687066482945282
aF0.7938940042736206
aF-0.0034344252486304665
aF0.000932144115788673
aF0.3000007451660419
aF0.7366699800296512
aF0.10603241279801212
aF0.0010185594247356386
aF95.09150229325832
aF1.1719384948098721
aF25.273785006182244
aF0.394923725788084
aI0
aF23.75910909886179
aI13
aa(lp52
S'10'
p53
ag28
aS'2589'
p54
aF0.10527571610433906
aF1.029019027680006e-06
aF1.0007613105885298
aF1.0697514103976755
aF96.11107672298009
aF0.001593801853616128
aF0.9999999414869014
aF0.7592390567695929
aF-0.0008629858486517359
aF1.7750199295434364e-06
aF0.7630627132386838
aF0.00026041281006805583
aF0.10527571610433906
aF1.029019027680006e-06
aF96.11107672298009
aF0.001593801853616128
aF25.36247202825801
aF0.00048820895581265327
aI0
aF40.00144385417721
aI13
aa(lp55
S'10'
p56
ag28
aS'sum'
p57
aF-0.0014069189849587344
aF3843.3843432602944
aF0.5840477140565097
aF0.5379107775824493
aF0.2200000000000015
aF0.3449424388017272
aF0.8823132165323568
aF0.31288210042507475
aF0.0
aF0.5392872789439499
aF0.3
aF0.031089651226955593
aF-0.0014069189849587344
aF3843.3843432602944
aF0.2200000000000015
aF0.3449424388017272
aF-0.0007758570397188017
aF2119.465890320241
aI0
aF1.890400000000002
aI13
aa(lp58
S'2'
p59
aS'Y'
p60
aS'644'
p61
aF0.13041674464600014
aFnan
aF1.0
aFnan
aFnan
aFnan
aF0.99
aFnan
aF0.0
aFnan
aF0.7
aFnan
aF0.13041674464600014
aFnan
aFnan
aFnan
aFnan
aFnan
aI0
aFinf
aI20
aa(lp62
g59
ag60
aS'1215'
p63
aF0.13041674464600014
aFnan
aF1.0
aFnan
aFnan
aFnan
aF0.99
aFnan
aF0.0
aFnan
aF0.7
aFnan
aF0.13041674464600014
aFnan
aFnan
aFnan
aFnan
aFnan
aI0
aFinf
aI20
aa(lp64
g59
ag60
aS'2269'
p65
aF0.13041674464600014
aFnan
aF1.0
aFnan
aFnan
aFnan
aF0.99
aFnan
aF0.0
aFnan
aF0.7
aFnan
aF0.13041674464600014
aFnan
aFnan
aFnan
aFnan
aFnan
aI0
aFinf
aI20
aa(lp66
g59
ag60
aS'2389'
p67
aF0.13041674464600014
aFnan
aF1.0
aFnan
aFnan
aFnan
aF0.99
aFnan
aF0.0
aFnan
aF0.7
aFnan
aF0.13041674464600014
aFnan
aFnan
aFnan
aFnan
aFnan
aI0
aFinf
aI20
aa(lp68
g59
ag60
aS'2589'
p69
aF0.13041674464600014
aFnan
aF1.0
aFnan
aFnan
aFnan
aF0.99
aFnan
aF0.0
aFnan
aF0.7
aFnan
aF0.13041674464600014
aFnan
aFnan
aFnan
aFnan
aFnan
aI0
aFinf
aI20
aa(lp70
g59
ag60
aS'sum'
p71
aF0.004437070999916149
aF0.004844248207339711
aF1.165356139157149
aF0.0034948869178653315
aF0.22000001334234284
aF8.11594129383955e-05
aF0.9900000012329322
aF0.0004666303830674289
aF0.0
aF0.5224387242781253
aF0.3000000014561251
aF1.2293255962843634e-05
aF0.004437070999916149
aF0.004844248207339711
aF0.22000001334234284
aF8.11594129383955e-05
aF0.00244685942588042
aF0.0026714008102031285
aI0
aF2.43040003635861
aI19
aa(lp72
S'3'
p73
ag60
aS'644'
p74
aF0.13041674464600014
aFnan
aF1.0
aFnan
aFnan
aFnan
aF0.99
aFnan
aF0.0
aFnan
aF0.7
aFnan
aF0.13041674464600014
aFnan
aFnan
aFnan
aFnan
aFnan
aI0
aFinf
aI20
aa(lp75
g73
ag60
aS'1215'
p76
aF0.13041674464600014
aFnan
aF1.0
aFnan
aFnan
aFnan
aF0.99
aFnan
aF0.0
aFnan
aF0.7
aFnan
aF0.13041674464600014
aFnan
aFnan
aFnan
aFnan
aFnan
aI0
aFinf
aI20
aa(lp77
g73
ag60
aS'2269'
p78
aF0.13041674464600014
aFnan
aF1.0
aFnan
aFnan
aFnan
aF0.99
aFnan
aF0.0
aFnan
aF0.7
aFnan
aF0.13041674464600014
aFnan
aFnan
aFnan
aFnan
aFnan
aI0
aFinf
aI20
aa(lp79
g73
ag60
aS'2389'
p80
aF0.13041674464600014
aFnan
aF1.0
aFnan
aFnan
aFnan
aF0.99
aFnan
aF0.0
aFnan
aF0.7
aFnan
aF0.13041674464600014
aFnan
aFnan
aFnan
aFnan
aFnan
aI0
aFinf
aI20
aa(lp81
g73
ag60
aS'2589'
p82
aF0.13041674464600014
aFnan
aF1.0
aFnan
aFnan
aFnan
aF0.99
aFnan
aF0.0
aFnan
aF0.7
aFnan
aF0.13041674464600014
aFnan
aFnan
aFnan
aFnan
aFnan
aI0
aFinf
aI20
aa(lp83
g73
ag60
aS'sum'
p84
aF0.004437070999916149
aF0.004844248207339711
aF1.165356139157149
aF0.0034948869178653315
aF0.22000001334234284
aF8.11594129383955e-05
aF0.9900000012329322
aF0.0004666303830674289
aF0.0
aF0.5224387242781253
aF0.3000000014561251
aF1.2293255962843634e-05
aF0.004437070999916149
aF0.004844248207339711
aF0.22000001334234284
aF8.11594129383955e-05
aF0.00244685942588042
aF0.0026714008102031285
aI0
aF2.43040003635861
aI19
aa(lp85
S'4'
p86
ag28
aS'644'
p87
aF0.13041674464600014
aFnan
aF1.0
aFnan
aFnan
aFnan
aF0.99
aFnan
aF0.0
aFnan
aF0.7
aFnan
aF0.13041674464600014
aFnan
aFnan
aFnan
aFnan
aFnan
aI0
aFinf
aI20
aa(lp88
g86
ag28
aS'1215'
p89
aF0.13041674464600014
aFnan
aF1.0
aFnan
aFnan
aFnan
aF0.99
aFnan
aF0.0
aFnan
aF0.7
aFnan
aF0.13041674464600014
aFnan
aFnan
aFnan
aFnan
aFnan
aI0
aFinf
aI20
aa(lp90
g86
ag28
aS'2269'
p91
aF0.13041674464600014
aFnan
aF1.0
aFnan
aFnan
aFnan
aF0.99
aFnan
aF0.0
aFnan
aF0.7
aFnan
aF0.13041674464600014
aFnan
aFnan
aFnan
aFnan
aFnan
aI0
aFinf
aI20
aa(lp92
g86
ag28
aS'2389'
p93
aF0.13041674464600014
aFnan
aF1.0
aFnan
aFnan
aFnan
aF0.99
aFnan
aF0.0
aFnan
aF0.7
aFnan
aF0.13041674464600014
aFnan
aFnan
aFnan
aFnan
aFnan
aI0
aFinf
aI20
aa(lp94
g86
ag28
aS'2589'
p95
aF0.13041674464600014
aFnan
aF1.0
aFnan
aFnan
aFnan
aF0.99
aFnan
aF0.0
aFnan
aF0.7
aFnan
aF0.13041674464600014
aFnan
aFnan
aFnan
aFnan
aFnan
aI0
aFinf
aI20
aa(lp96
g86
ag28
aS'sum'
p97
aF0.004437070999916149
aF0.004844248207339711
aF1.165356139157149
aF0.0034948869178653315
aF0.22000001334234284
aF8.11594129383955e-05
aF0.9900000012329322
aF0.0004666303830674289
aF0.0
aF0.5224387242781253
aF0.3000000014561251
aF1.2293255962843634e-05
aF0.004437070999916149
aF0.004844248207339711
aF0.22000001334234284
aF8.11594129383955e-05
aF0.00244685942588042
aF0.0026714008102031285
aI0
aF2.43040003635861
aI19
aa(lp98
S'5'
p99
ag60
aS'644'
p100
aF0.09665783346631875
aF0.0005302339147391553
aF0.500000038870593
aF0.14441982705859324
aF102.05562099733075
aF0.9104481873511006
aF0.9806884948240029
aF0.007345113077741383
aF-0.00029396882299970954
aF0.0006640392574675738
aF0.5191838948011249
aF0.09172045097481918
aF0.09665783346631875
aF0.0005302339147391553
aF102.05562099733075
aF0.9104481873511006
aF24.72657249749433
aF0.25895542124065357
aI0
aF33.39479001385026
aI19
aa(lp101
g99
ag60
aS'1215'
p102
aF0.09528888947119378
aF0.0007445775195274039
aF1.6835879465008088
aF0.46466205954968054
aF100.73918077053224
aF0.8697287008808132
aF0.03238039839532786
aF0.04375909680653317
aF0.0015219135084173674
aF0.0006264589831274591
aF0.4845014363540494
aF0.09094856249338701
aF0.09528888947119378
aF0.0007445775195274039
aF100.73918077053224
aF0.8697287008808132
aF24.061938614785596
aF0.2801886278448494
aI0
aF23.221222558568098
aI19
aa(lp103
g99
ag60
aS'2269'
p104
aF0.0958683624384903
aF0.0005262460713396731
aF1.9999999981227221
aF1.1577653627277875
aF99.13578424799637
aF0.8784022621572589
aF0.025161922157158956
aF0.005379178029137649
aF0.0005686830139417217
aF0.0006531833941425367
aF0.46950671679601536
aF0.04129396161268034
aF0.0958683624384903
aF0.0005262460713396731
aF99.13578424799637
aF0.8784022621572589
aF23.82295826190089
aF0.24831034745093084
aI0
aF18.671140921043587
aI19
aa(lp105
g99
ag60
aS'2389'
p106
aF0.09513311372243925
aF0.0007211267800674824
aF0.7410795637825592
aF0.055179394107149005
aF98.77417572774928
aF0.9618431651841064
aF0.7623209837840232
aF0.20680428590525823
aF0.0008846051927351986
aF0.0006777146435401008
aF0.6874754087204343
aF0.07322298531596433
aF0.09513311372243925
aF0.0007211267800674824
aF98.77417572774928
aF0.9618431651841064
aF23.55402110524063
aF0.29066461922225106
aI0
aF29.892432845226004
aI19
aa(lp107
g99
ag60
aS'2589'
p108
aF0.09595105415843827
aF0.0007845882671191417
aF0.5792380074757445
aF0.13024402567544907
aF99.53243947338248
aF0.919090564401543
aF0.9575569205739489
aF0.03797523087457039
aF0.0003139107236292347
aF0.0006620866520033632
aF0.5174294484511653
aF0.11443089011844201
aF0.09595105415843827
aF0.0007845882671191417
aF99.53243947338248
aF0.919090564401543
aF23.938907856099235
aF0.2952658081776933
aI0
aF19.12635491987036
aI19
aa(lp109
g99
ag60
aS'sum'
p110
aF0.004437070999916149
aF0.004844248207339711
aF1.165356139157149
aF0.0034948869178653315
aF0.22000001334234284
aF8.11594129383955e-05
aF0.9900000012329322
aF0.0004666303830674289
aF0.0
aF0.5224387242781253
aF0.3000000014561251
aF1.2293255962843634e-05
aF0.004437070999916149
aF0.004844248207339711
aF0.22000001334234284
aF8.11594129383955e-05
aF0.00244685942588042
aF0.0026714008102031285
aI0
aF2.43040003635861
aI19
aa(lp111
S'6'
p112
ag28
aS'644'
p113
aF0.10721340151808315
aF0.0005527555460092463
aF0.9999993007223398
aF0.0392674207622542
aF99.44813827303514
aF0.7731226001066176
aF0.9747053146219289
aF0.5115026784305221
aF0.003645611146374599
aF0.0006981291795312368
aF0.6540771984396716
aF0.03347929825011853
aF0.10721340151808315
aF0.0005527555460092463
aF99.44813827303514
aF0.7731226001066176
aF26.726104759224906
aF0.2493101162459733
aI0
aF27.8797281519755
aI19
aa(lp114
g112
ag28
aS'1215'
p115
aF0.10618771611673682
aF0.0005266399086783257
aF1.0000006899954605
aF0.02795964337735779
aF97.45779364600548
aF0.7399758104954799
aF0.6586185141613011
aF0.7936113471612566
aF0.0022423548835666675
aF0.0006675490360731833
aF0.5617899489073771
aF0.027306121291534258
aF0.10618771611673682
aF0.0005266399086783257
aF97.45779364600548
aF0.7399758104954799
aF25.940646137160805
aF0.23525629564808503
aI0
aF16.15875208599498
aI19
aa(lp116
g112
ag28
aS'2269'
p117
aF0.10613360561860741
aF0.0005548972622621999
aF1.0000001178485032
aF0.03383365430577234
aF98.27008868422728
aF0.7917106747291882
aF0.9922262407375593
aF0.7511088767458367
aF0.0031427214104060045
aF0.0007053052501641379
aF0.6482376204833815
aF0.026622969927262097
aF0.10613360561860741
aF0.0005548972622621999
aF98.27008868422728
aF0.7917106747291882
aF26.14352839719692
aF0.2510892733175333
aI0
aF25.101972337657564
aI19
aa(lp118
g112
ag28
aS'2389'
p119
aF0.1069074907547572
aF0.000576005482688645
aF1.0000013226236912
aF0.011006305953873197
aF96.87532599827735
aF0.7886166931613801
aF0.9999993331306689
aF0.5466881181862671
aF0.0024990299689330087
aF0.0007110571934345444
aF0.6513944152881823
aF0.026691470555884278
aF0.1069074907547572
aF0.000576005482688645
aF96.87532599827735
aF0.7886166931613801
aF25.96039208504943
aF0.2534266029854785
aI0
aF24.6164283336579
aI19
aa(lp120
g112
ag28
aS'2589'
p121
aF0.1069052865165216
aF0.0005600539850055351
aF0.9999996524444543
aF0.03629963568312278
aF96.92501040059759
aF0.7906828795066403
aF0.9920422803018888
aF0.7515373965348958
aF0.0021553335757738155
aF0.0007167401598986138
aF0.6293207660408793
aF0.02113057283573616
aF0.1069052865165216
aF0.0005600539850055351
aF96.92501040059759
aF0.7906828795066403
aF25.97317084833987
aF0.2518092834361299
aI0
aF23.897281726543845
aI19
aa(lp122
g112
ag28
aS'sum'
p123
aF0.004437070999916149
aF0.004844248207339711
aF1.165356139157149
aF0.0034948869178653315
aF0.22000001334234284
aF8.11594129383955e-05
aF0.9900000012329322
aF0.0004666303830674289
aF0.0
aF0.5224387242781253
aF0.3000000014561251
aF1.2293255962843634e-05
aF0.004437070999916149
aF0.004844248207339711
aF0.22000001334234284
aF8.11594129383955e-05
aF0.00244685942588042
aF0.0026714008102031285
aI0
aF2.43040003635861
aI19
aa(lp124
S'7'
p125
ag60
aS'644'
p126
aF0.09676127231386811
aF4.671588477279321e-05
aF1.0012424461485983
aF1.1909606560968231
aF99.85124573110586
aF0.07735869940262319
aF0.9999999748314994
aF0.8918115854745177
aF0.0021542113839391696
aF7.706630238508612e-05
aF0.9130012308118047
aF0.01058488159496862
aF0.09676127231386811
aF4.671588477279321e-05
aF99.85124573110586
aF0.07735869940262319
aF24.21837457123985
aF0.022107973651224456
aI0
aF19.082415111997157
aI13
aa(lp127
g125
ag60
aS'1215'
p128
aF0.095477525569049
aF0.0007211636755762027
aF1.000002990383733
aF0.1732321643792129
aF98.60811224430313
aF1.0175550172949173
aF0.9861805658672068
aF0.9865779828990847
aF0.002225815847350397
aF0.0007821880023317303
aF0.7218377455933227
aF0.10468080809394265
aF0.095477525569049
aF0.0007211636755762027
aF98.60811224430313
aF1.0175550172949173
aF23.599550663438013
aF0.30179459967276295
aI0
aF18.140522092889938
aI13
aa(lp129
g125
ag60
aS'2269'
p130
aF0.09768649817869575
aF0.0009426888556647322
aF0.5316147118415104
aF0.3044482099713248
aF99.24083121693181
aF1.181916091775193
aF0.9645843746788941
aF0.04961315827366869
aF0.0007207633473171883
aF0.000858364002125212
aF0.300000304555834
aF0.791024335953717
aF0.09768649817869575
aF0.0009426888556647322
aF99.24083121693181
aF1.181916091775193
aF24.300480932154027
aF0.37249020127750887
aI0
aF18.707022943877192
aI13
aa(lp131
g125
ag60
aS'2389'
p132
aF0.09350419503565371
aF0.001144245028539888
aF0.5000000048620806
aF0.14049439716010997
aF97.83347057147579
aF1.5255740439151495
aF0.11744689268761621
aF0.04071816372284556
aF0.0019111391918600206
aF0.0008665097555853535
aF0.9716163384668313
aF0.17448557023069133
aF0.09350419503565371
aF0.001144245028539888
aF97.83347057147579
aF1.5255740439151495
aF22.930234178551377
aF0.4545237788419921
aI0
aF14.979805900426808
aI13
aa(lp133
g125
ag60
aS'2589'
p134
aF0.09634886527274406
aF0.0007507027627062556
aF0.9999980794538426
aF0.2936903516944721
aF96.70265734790095
aF1.0312512409013195
aF0.9900000005434826
aF0.7559345290432053
aF0.001965450104052056
aF0.0008413076965635825
aF0.787838762749483
aF0.10503102536413894
aF0.09634886527274406
aF0.0007507027627062556
aF96.70265734790095
aF1.0312512409013195
aF23.354735163577768
aF0.30845193189448067
aI0
aF24.987666418269416
aI13
aa(lp135
g125
ag60
aS'sum'
p136
aF-0.0014069189849587344
aF3843.3843432602944
aF0.5840477140565097
aF0.5379107775824493
aF0.2200000000000015
aF0.3449424388017272
aF0.8823132165323568
aF0.31288210042507475
aF0.0
aF0.5392872789439499
aF0.3
aF0.031089651226955593
aF-0.0014069189849587344
aF3843.3843432602944
aF0.2200000000000015
aF0.3449424388017272
aF-0.0007758570397188017
aF2119.465890320241
aI0
aF1.890400000000002
aI13
aa(lp137
S'8'
p138
ag28
aS'644'
p139
aF0.10748210750790933
aF0.0008796591228973388
aF0.546527585611832
aF1.1753197132580417
aF98.87305751261675
aF0.968297477086935
aF0.9999999998571409
aF0.06150381047211778
aF-0.00023297847058593456
aF0.0008591836713724295
aF0.5435116146267858
aF0.1630386245287562
aF0.10748210750790933
aF0.0008796591228973388
aF98.87305751261675
aF0.968297477086935
aF26.6381507282541
aF0.3399796795606832
aI0
aF14.644241735881401
aI13
aa(lp140
g138
ag28
aS'1215'
p141
aF0.10605515700371601
aF0.0008459422538943559
aF1.0000000115617071
aF0.9942141550328217
aF97.58405871438197
aF0.9255420573500999
aF0.9999733521156348
aF0.7136221154448554
aF0.0003518537015552821
aF0.0008363504826083199
aF0.7416756737116257
aF0.16682989526229863
aF0.10605515700371601
aF0.0008459422538943559
aF97.58405871438197
aF0.9255420573500999
aF25.941829624074245
aF0.3214908265086821
aI0
aF19.348412719332114
aI13
aa(lp142
g138
ag28
aS'2269'
p143
aF0.10738786596210674
aF0.0008995210483480695
aF0.5189590503399136
aF1.1412787194832923
aF96.72373669219947
aF0.9637801813820772
aF0.9999999961317184
aF0.022573566560129543
aF0.0005987129753280014
aF0.0008823450188795896
aF0.48107364794653773
aF0.15989146128805726
aF0.10738786596210674
aF0.0008995210483480695
aF96.72373669219947
aF0.9637801813820772
aF26.036236772909167
aF0.33892148558344004
aI0
aF11.77797932700525
aI13
aa(lp144
g138
ag28
aS'2389'
p145
aF0.10741647361676367
aF1.852475995598823e-05
aF1.0001101450576346
aF0.9380536089478951
aF95.78690755111282
aF0.027717846106995125
aF0.999998040635454
aF0.8595842548064806
aF0.0007426769580270173
aF3.148910863832637e-05
aF0.5970064757778136
aF0.004372770432223894
aF0.10741647361676367
aF1.852475995598823e-05
aF95.78690755111282
aF0.027717846106995125
aF25.790928495826936
aF0.008688001271690253
aI0
aF17.81276683670244
aI13
aa(lp146
g138
ag28
aS'2589'
p147
aF0.10829414134870897
aF0.00442966998575418
aF0.5000004973058609
aF1.086724255171364
aF95.13373698436627
aF2.600586232138724
aF0.97713065093146
aF0.06944427952485382
aF0.000478813405009085
aF0.0009313170487975413
aF0.4276898055199957
aF0.4430749007016332
aF0.10829414134870897
aF0.00442966998575418
aF95.13373698436627
aF2.600586232138724
aF25.8243532113195
aF1.2704964876427214
aI0
aF10.554598834964693
aI13
aa(lp148
g138
ag28
aS'sum'
p149
aF-0.0014069189849587344
aF3843.3843432602944
aF0.5840477140565097
aF0.5379107775824493
aF0.2200000000000015
aF0.3449424388017272
aF0.8823132165323568
aF0.31288210042507475
aF0.0
aF0.5392872789439499
aF0.3
aF0.031089651226955593
aF-0.0014069189849587344
aF3843.3843432602944
aF0.2200000000000015
aF0.3449424388017272
aF-0.0007758570397188017
aF2119.465890320241
aI0
aF1.890400000000002
aI13
aa(lp150
S'9'
p151
ag60
aS'644'
p152
aF0.0966736734488642
aF0.004128964194849584
aF0.7747583732947373
aF1.2937052249250591
aF97.33338477829406
aF1.558498961392388
aF0.7877913654134425
aF0.505176891716965
aF0.004800819208644669
aF0.0008416811059676509
aF0.954690835530325
aF0.6294821792560727
aF0.0966736734488642
aF0.004128964194849584
aF97.33338477829406
aF1.558498961392388
aF23.58630889225663
aF1.0758447240970976
aI0
aF14.435747914326805
aI13
aa(lp153
g151
ag60
aS'1215'
p154
aF0.09765879794358404
aF0.0008885567844671592
aF0.5558024263222229
aF0.1936836399435375
aF98.75488412209278
aF1.132153081955856
aF0.9674924185119247
aF0.05030745488794053
aF0.004325637916660704
aF0.0008048807995420366
aF0.3000010638467361
aF0.7969651319756208
aF0.09765879794358404
aF0.0008885567844671592
aF98.75488412209278
aF1.132153081955856
aF24.174633144215814
aF0.3538210224645675
aI0
aF18.489412872779152
aI13
aa(lp155
g151
ag60
aS'2269'
p156
aF0.09716063813583257
aF0.0006894991278945965
aF0.5000016416250727
aF1.371026905748771
aF95.44963083288147
aF1.0632657066709115
aF0.9997953377044434
aF0.04190132107156985
aF0.004453957654222281
aF0.0008816395114069472
aF1.0999999999909778
aF0.6126172749462313
aF0.09716063813583257
aF0.0006894991278945965
aF95.44963083288147
aF1.0632657066709115
aF23.246337871785773
aF0.3070361990840415
aI0
aF6.069557855971519
aI13
aa(lp157
g151
ag60
aS'2389'
p158
aF0.09676388724732321
aF0.0016355251669764742
aF0.5000013323542807
aF1.433494732259879
aF95.95007574986222
aF1.5615567449768406
aF0.9798152276785993
aF0.034140319939692354
aF0.004208582341751551
aF0.0008599702732011712
aF0.941849644268814
aF0.5045418732507092
aF0.09676388724732321
aF0.0016355251669764742
aF95.95007574986222
aF1.5615567449768406
aF23.272796009210474
aF0.5460685074925181
aI0
aF12.162065996252446
aI13
aa(lp159
g151
ag60
aS'2589'
p160
aF0.09646866826730043
aF6.53244277066119e-05
aF1.0023268019496583
aF0.952247420895485
aF95.02165269523505
aF0.10310510268931239
aF0.9999999809521465
aF0.5798189984787455
aF0.0035548464697177217
aF0.00010854385144227964
aF1.02094906919677
aF0.013472619857495483
aF0.09646866826730043
aF6.53244277066119e-05
aF95.02165269523505
aF0.10310510268931239
aF22.977289553875885
aF0.029388640134952734
aI0
aF11.122078605546228
aI13
aa(lp161
g151
ag60
aS'sum'
p162
aF-0.0014069189849587344
aF3843.3843432602944
aF0.5840477140565097
aF0.5379107775824493
aF0.2200000000000015
aF0.3449424388017272
aF0.8823132165323568
aF0.31288210042507475
aF0.0
aF0.5392872789439499
aF0.3
aF0.031089651226955593
aF-0.0014069189849587344
aF3843.3843432602944
aF0.2200000000000015
aF0.3449424388017272
aF-0.0007758570397188017
aF2119.465890320241
aI0
aF1.890400000000002
aI13
aa.