(lp0
(lp1
S'XscanNumber_YscanNumber'
p2
aS'Type'
p3
aS'BCID'
p4
aS'xsec'
p5
aS'xsecErr'
p6
aS'normChange'
p7
aS'normChangeErr'
p8
aa(lp9
S'1_2'
p10
aS'XY'
p11
aS'1215'
p12
aFnan
aFnan
aF-999.0
aF-999.0
aa(lp13
S'1_2'
p14
ag11
aS'sum'
p15
aF27.21418494054033
aF42.018480674760646
aF-999.0
aF-999.0
aa(lp16
S'1_2'
p17
ag11
aS'2589'
p18
aFnan
aFnan
aF-999.0
aF-999.0
aa(lp19
S'1_2'
p20
ag11
aS'2269'
p21
aFnan
aFnan
aF-999.0
aF-999.0
aa(lp22
S'1_2'
p23
ag11
aS'644'
p24
aFnan
aFnan
aF-999.0
aF-999.0
aa(lp25
S'1_2'
p26
ag11
aS'2389'
p27
aFnan
aFnan
aF-999.0
aF-999.0
aa(lp28
S'4_3'
p29
ag11
aS'1215'
p30
aFnan
aFnan
aF-999.0
aF-999.0
aa(lp31
S'4_3'
p32
ag11
aS'sum'
p33
aF27.21418494054033
aF42.018480674760646
aF-999.0
aF-999.0
aa(lp34
S'4_3'
p35
ag11
aS'2589'
p36
aFnan
aFnan
aF-999.0
aF-999.0
aa(lp37
S'4_3'
p38
ag11
aS'2269'
p39
aFnan
aFnan
aF-999.0
aF-999.0
aa(lp40
S'4_3'
p41
ag11
aS'644'
p42
aFnan
aFnan
aF-999.0
aF-999.0
aa(lp43
S'4_3'
p44
ag11
aS'2389'
p45
aFnan
aFnan
aF-999.0
aF-999.0
aa(lp46
S'5_6'
p47
ag11
aS'1215'
p48
aF6300332.048488503
aF68685.01453698293
aF-999.0
aF-999.0
aa(lp49
S'5_6'
p50
ag11
aS'sum'
p51
aF27.21418494054033
aF42.018480674760646
aF-999.0
aF-999.0
aa(lp52
S'5_6'
p53
ag11
aS'2589'
p54
aF6330927.0214496255
aF72844.8791323132
aF-999.0
aF-999.0
aa(lp55
S'5_6'
p56
ag11
aS'2269'
p57
aF6310128.005954131
aF60967.634096704875
aF-999.0
aF-999.0
aa(lp58
S'5_6'
p59
ag11
aS'644'
p60
aF6560231.373688217
aF62858.17906651089
aF-999.0
aF-999.0
aa(lp61
S'5_6'
p62
ag11
aS'2389'
p63
aF6251273.017531581
aF70421.68823838168
aF-999.0
aF-999.0
aa(lp64
S'7_8'
p65
ag11
aS'1215'
p66
aF6241148.151880177
aF81333.89526640037
aF-999.0
aF-999.0
aa(lp67
S'7_8'
p68
ag11
aS'sum'
p69
aF2.7361552094600823
aF10570619.827160416
aF-999.0
aF-999.0
aa(lp70
S'7_8'
p71
ag11
aS'2589'
p72
aF6288288.263443378
aF277435.40698587516
aF-999.0
aF-999.0
aa(lp73
S'7_8'
p74
ag11
aS'2269'
p75
aF6458284.61709879
aF96627.0919819559
aF-999.0
aF-999.0
aa(lp76
S'7_8'
p77
ag11
aS'644'
p78
aF6492898.284276055
aF61975.14237220018
aF-999.0
aF-999.0
aa(lp79
S'7_8'
p80
ag11
aS'2389'
p81
aF6109461.371186204
aF88931.0070194693
aF-999.0
aF-999.0
aa(lp82
S'9_10'
p83
ag11
aS'1215'
p84
aF6381527.09752925
aF98792.56447565947
aF-999.0
aF-999.0
aa(lp85
S'9_10'
p86
ag11
aS'sum'
p87
aF2.7361552094600823
aF10570619.827160416
aF-999.0
aF-999.0
aa(lp88
S'9_10'
p89
ag11
aS'2589'
p90
aF6098168.521468486
aF5280.129129321389
aF-999.0
aF-999.0
aa(lp91
S'9_10'
p92
ag11
aS'2269'
p93
aF6230366.871014441
aF56045.43404733478
aF-999.0
aF-999.0
aa(lp94
S'9_10'
p95
ag11
aS'644'
p96
aF6355876.3859081445
aF281403.5747004963
aF-999.0
aF-999.0
aa(lp97
S'9_10'
p98
ag11
aS'2389'
p99
aF6157858.714699166
aF135249.7942465461
aF-999.0
aF-999.0
aa.