(lp0
(lp1
S'XscanNumber_YscanNumber'
p2
aS'Type'
p3
aS'BCID'
p4
aS'xsec'
p5
aS'xsecErr'
p6
aS'normChange'
p7
aS'normChangeErr'
p8
aa(lp9
S'1_2'
p10
aS'XY'
p11
aS'211'
p12
aF241.99423383708123
aF1.042055253532891
aF-999.0
aF-999.0
aa(lp13
S'1_2'
p14
ag11
aS'2291'
p15
aF242.50707090538396
aF2.2320409476920915
aF-999.0
aF-999.0
aa(lp16
S'1_2'
p17
ag11
aS'2451'
p18
aF241.72828229375804
aF1.9758295391776615
aF-999.0
aF-999.0
aa(lp19
S'1_2'
p20
ag11
aS'131'
p21
aF243.29472772526412
aF1.9745782246706471
aF-999.0
aF-999.0
aa(lp22
S'1_2'
p23
ag11
aS'1871'
p24
aF239.9469837895449
aF1.838427647255161
aF-999.0
aF-999.0
aa(lp25
S'1_2'
p26
ag11
aS'251'
p27
aF243.15899714964647
aF1.7135508230779557
aF-999.0
aF-999.0
aa(lp28
S'1_2'
p29
ag11
aS'171'
p30
aF240.72309415139128
aF3.814731484468614
aF-999.0
aF-999.0
aa(lp31
S'1_2'
p32
ag11
aS'1631'
p33
aF21.661450526475306
aF0.09681575951065385
aF-999.0
aF-999.0
aa(lp34
S'1_2'
p35
ag11
aS'1711'
p36
aF238.19479390532845
aF1.775008378551828
aF-999.0
aF-999.0
aa(lp37
S'1_2'
p38
ag11
aS'1831'
p39
aF244.65402946304152
aF1.9254828884992325
aF-999.0
aF-999.0
aa(lp40
S'1_2'
p41
ag11
aS'851'
p42
aF240.71605900143277
aF1.5565323036777288
aF-999.0
aF-999.0
aa(lp43
S'1_2'
p44
ag11
aS'971'
p45
aF242.84588230960773
aF1.9089866701411968
aF-999.0
aF-999.0
aa(lp46
S'1_2'
p47
ag11
aS'sum'
p48
aF7.950035555937355
aF0.009019891582246756
aF-999.0
aF-999.0
aa(lp49
S'1_2'
p50
ag11
aS'1'
p51
aF241.05735598322156
aF0.9621678901449545
aF-999.0
aF-999.0
aa(lp52
S'1_2'
p53
ag11
aS'811'
p54
aF242.66003737710858
aF1.506690012178183
aF-999.0
aF-999.0
aa(lp55
S'1_2'
p56
ag11
aS'931'
p57
aF243.04113453405796
aF1.3978488590446188
aF-999.0
aF-999.0
aa(lp58
S'1_2'
p59
ag11
aS'1671'
p60
aF242.83627229968764
aF1.8267061861885996
aF-999.0
aF-999.0
aa(lp61
S'1_2'
p62
ag11
aS'1751'
p63
aF242.1987455853054
aF1.9443658745111392
aF-999.0
aF-999.0
aa(lp64
S'1_2'
p65
ag11
aS'891'
p66
aF241.05792728329095
aF2.774601423417912
aF-999.0
aF-999.0
aa(lp67
S'1_2'
p68
ag11
aS'771'
p69
aF241.01989688725214
aF1.5462547031491478
aF-999.0
aF-999.0
aa(lp70
S'1_2'
p71
ag11
aS'1791'
p72
aF244.36142927038816
aF1.4218189576155924
aF-999.0
aF-999.0
aa(lp73
S'1_2'
p74
ag11
aS'91'
p75
aF245.65736387548935
aF1.8160159289694597
aF-999.0
aF-999.0
aa(lp76
S'1_2'
p77
ag11
aS'2331'
p78
aF240.8471155521243
aF1.961267194612128
aF-999.0
aF-999.0
aa(lp79
S'1_2'
p80
ag11
aS'2211'
p81
aF244.9731917662053
aF1.7072891162743995
aF-999.0
aF-999.0
aa(lp82
S'1_2'
p83
ag11
aS'51'
p84
aF246.0082542061981
aF1.7760359859195374
aF-999.0
aF-999.0
aa(lp85
S'1_2'
p86
ag11
aS'1011'
p87
aF242.8272339599246
aF1.6654890431776272
aF-999.0
aF-999.0
aa(lp88
S'1_2'
p89
ag11
aS'2411'
p90
aF245.13418883839722
aF1.7955782025781337
aF-999.0
aF-999.0
aa(lp91
S'1_2'
p92
ag11
aS'2674'
p93
aF241.25152111478198
aF4.09571590575656
aF-999.0
aF-999.0
aa(lp94
S'1_2'
p95
ag11
aS'2371'
p96
aF242.93692436574446
aF0.08364802159498043
aF-999.0
aF-999.0
aa(lp97
S'1_2'
p98
ag11
aS'2251'
p99
aF243.05405776511924
aF1.6857321071145472
aF-999.0
aF-999.0
aa(lp100
S'1_2'
p101
ag11
aS'291'
p102
aF241.0660197220342
aF2.8070704850032833
aF-999.0
aF-999.0
aa(lp103
S'4_3'
p104
ag11
aS'211'
p105
aF247.71978246448703
aF1.9465260229116332
aF-999.0
aF-999.0
aa(lp106
S'4_3'
p107
ag11
aS'2291'
p108
aF244.25724758526724
aF2.214799551896926
aF-999.0
aF-999.0
aa(lp109
S'4_3'
p110
ag11
aS'2451'
p111
aF242.5450074166217
aF1.7036828917679219
aF-999.0
aF-999.0
aa(lp112
S'4_3'
p113
ag11
aS'131'
p114
aF246.64806716799424
aF1.9290247282789503
aF-999.0
aF-999.0
aa(lp115
S'4_3'
p116
ag11
aS'1871'
p117
aF246.16408595386957
aF5.725573067076209
aF-999.0
aF-999.0
aa(lp118
S'4_3'
p119
ag11
aS'251'
p120
aF242.95060404185222
aF1.534222218166174
aF-999.0
aF-999.0
aa(lp121
S'4_3'
p122
ag11
aS'171'
p123
aF242.95988007909457
aF2.0220518192611103
aF-999.0
aF-999.0
aa(lp124
S'4_3'
p125
ag11
aS'1631'
p126
aF243.48349480436366
aF1.5040723522897754
aF-999.0
aF-999.0
aa(lp127
S'4_3'
p128
ag11
aS'1711'
p129
aF246.47955741517796
aF1.8385982529802736
aF-999.0
aF-999.0
aa(lp130
S'4_3'
p131
ag11
aS'1831'
p132
aF243.86038152705544
aF1.7940847855065976
aF-999.0
aF-999.0
aa(lp133
S'4_3'
p134
ag11
aS'851'
p135
aF244.87030080404014
aF1.5316192949407215
aF-999.0
aF-999.0
aa(lp136
S'4_3'
p137
ag11
aS'971'
p138
aF244.23683073923922
aF2.238186105932522
aF-999.0
aF-999.0
aa(lp139
S'4_3'
p140
ag11
aS'sum'
p141
aF7.98870800178628
aF0.011409874614371235
aF-999.0
aF-999.0
aa(lp142
S'4_3'
p143
ag11
ag51
aF242.50222901348943
aF1.061456295680737
aF-999.0
aF-999.0
aa(lp144
S'4_3'
p145
ag11
aS'811'
p146
aF245.46149336773496
aF3.9981557912261874
aF-999.0
aF-999.0
aa(lp147
S'4_3'
p148
ag11
aS'931'
p149
aF244.89660004709768
aF1.5332489581157238
aF-999.0
aF-999.0
aa(lp150
S'4_3'
p151
ag11
aS'1671'
p152
aF244.15878415371682
aF2.1199633038575216
aF-999.0
aF-999.0
aa(lp153
S'4_3'
p154
ag11
aS'1751'
p155
aF240.55293982651818
aF1.7987192235863754
aF-999.0
aF-999.0
aa(lp156
S'4_3'
p157
ag11
aS'891'
p158
aF241.68008748847097
aF1.516385087160114
aF-999.0
aF-999.0
aa(lp159
S'4_3'
p160
ag11
aS'771'
p161
aF247.06507420811317
aF3.7945996831349214
aF-999.0
aF-999.0
aa(lp162
S'4_3'
p163
ag11
aS'1791'
p164
aF245.55182916494115
aF3.447554446539977
aF-999.0
aF-999.0
aa(lp165
S'4_3'
p166
ag11
aS'91'
p167
aF242.8394046110353
aF1.7941818495940223
aF-999.0
aF-999.0
aa(lp168
S'4_3'
p169
ag11
aS'2331'
p170
aF240.85953238573597
aF1.8945249728281923
aF-999.0
aF-999.0
aa(lp171
S'4_3'
p172
ag11
aS'2211'
p173
aF246.94944002977837
aF1.005632265253039
aF-999.0
aF-999.0
aa(lp174
S'4_3'
p175
ag11
aS'51'
p176
aF243.00734422666937
aF1.471737642834413
aF-999.0
aF-999.0
aa(lp177
S'4_3'
p178
ag11
aS'1011'
p179
aF245.73759590121634
aF1.6156988855970613
aF-999.0
aF-999.0
aa(lp180
S'4_3'
p181
ag11
aS'2411'
p182
aF243.3703221151649
aF1.9209877461160507
aF-999.0
aF-999.0
aa(lp183
S'4_3'
p184
ag11
aS'2674'
p185
aF244.33090644556023
aF3.3801737753010195
aF-999.0
aF-999.0
aa(lp186
S'4_3'
p187
ag11
aS'2371'
p188
aF245.41165147285352
aF2.2251763523376624
aF-999.0
aF-999.0
aa(lp189
S'4_3'
p190
ag11
aS'2251'
p191
aF245.45449163420966
aF1.9619865172591475
aF-999.0
aF-999.0
aa(lp192
S'4_3'
p193
ag11
aS'291'
p194
aF246.9039642586719
aF1.5082174186163686
aF-999.0
aF-999.0
aa(lp195
S'5_6'
p196
ag11
aS'211'
p197
aF239.95263777567666
aF1.095528167533087
aF-999.0
aF-999.0
aa(lp198
S'5_6'
p199
ag11
aS'2291'
p200
aF241.47857349037776
aF1.7034510182516747
aF-999.0
aF-999.0
aa(lp201
S'5_6'
p202
ag11
aS'2451'
p203
aF238.0665427587634
aF1.7074141915957417
aF-999.0
aF-999.0
aa(lp204
S'5_6'
p205
ag11
aS'131'
p206
aF239.29985011274587
aF2.499065489407769
aF-999.0
aF-999.0
aa(lp207
S'5_6'
p208
ag11
aS'1871'
p209
aF239.86483025241435
aF1.605311649414091
aF-999.0
aF-999.0
aa(lp210
S'5_6'
p211
ag11
aS'251'
p212
aF237.9454661091724
aF3.3415668822365627
aF-999.0
aF-999.0
aa(lp213
S'5_6'
p214
ag11
aS'171'
p215
aF238.1555088331625
aF3.8705741073926787
aF-999.0
aF-999.0
aa(lp216
S'5_6'
p217
ag11
aS'1631'
p218
aF240.65540193240645
aF1.4901070185899723
aF-999.0
aF-999.0
aa(lp219
S'5_6'
p220
ag11
aS'1711'
p221
aF241.97986756332855
aF1.816165025072769
aF-999.0
aF-999.0
aa(lp222
S'5_6'
p223
ag11
aS'1831'
p224
aF238.03303797999573
aF1.9787245758748078
aF-999.0
aF-999.0
aa(lp225
S'5_6'
p226
ag11
aS'851'
p227
aF240.2252210669401
aF1.9195114664911608
aF-999.0
aF-999.0
aa(lp228
S'5_6'
p229
ag11
aS'971'
p230
aF238.57136596074858
aF1.3120737512613359
aF-999.0
aF-999.0
aa(lp231
S'5_6'
p232
ag11
aS'sum'
p233
aF7.921173544052324
aF0.01193118154706918
aF-999.0
aF-999.0
aa(lp234
S'5_6'
p235
ag11
ag51
aF237.86898604477588
aF2.3344702958301267
aF-999.0
aF-999.0
aa(lp236
S'5_6'
p237
ag11
aS'811'
p238
aF240.88557710948047
aF1.6629084015879536
aF-999.0
aF-999.0
aa(lp239
S'5_6'
p240
ag11
aS'931'
p241
aF240.68429550254302
aF6.374713283354434
aF-999.0
aF-999.0
aa(lp242
S'5_6'
p243
ag11
aS'1671'
p244
aF238.97105910212267
aF2.0012597112379233
aF-999.0
aF-999.0
aa(lp245
S'5_6'
p246
ag11
aS'1751'
p247
aF236.2083321804264
aF1.6933554996764195
aF-999.0
aF-999.0
aa(lp248
S'5_6'
p249
ag11
aS'891'
p250
aF239.00170049617788
aF2.8819818946357256
aF-999.0
aF-999.0
aa(lp251
S'5_6'
p252
ag11
aS'771'
p253
aF239.8423307235416
aF2.8592540488339053
aF-999.0
aF-999.0
aa(lp254
S'5_6'
p255
ag11
aS'1791'
p256
aF241.90870377709282
aF1.717750914461421
aF-999.0
aF-999.0
aa(lp257
S'5_6'
p258
ag11
aS'91'
p259
aF241.07257122568328
aF6.6705527984708874
aF-999.0
aF-999.0
aa(lp260
S'5_6'
p261
ag11
aS'2331'
p262
aF240.4462769957346
aF4.880121888059818
aF-999.0
aF-999.0
aa(lp263
S'5_6'
p264
ag11
aS'2211'
p265
aF241.8678291255263
aF3.0364276342233385
aF-999.0
aF-999.0
aa(lp266
S'5_6'
p267
ag11
aS'51'
p268
aF243.1760675018116
aF1.7856458851425756
aF-999.0
aF-999.0
aa(lp269
S'5_6'
p270
ag11
aS'1011'
p271
aF242.8688985264066
aF1.685062547963662
aF-999.0
aF-999.0
aa(lp272
S'5_6'
p273
ag11
aS'2411'
p274
aF242.12597083299218
aF1.8090871268728685
aF-999.0
aF-999.0
aa(lp275
S'5_6'
p276
ag11
aS'2674'
p277
aF239.16458363857683
aF1.364763605216818
aF-999.0
aF-999.0
aa(lp278
S'5_6'
p279
ag11
aS'2371'
p280
aF242.17021147287596
aF1.686024188935427
aF-999.0
aF-999.0
aa(lp281
S'5_6'
p282
ag11
aS'2251'
p283
aF241.5976389953235
aF4.126762824796732
aF-999.0
aF-999.0
aa(lp284
S'5_6'
p285
ag11
aS'291'
p286
aF239.6556845080788
aF1.7589201967081394
aF-999.0
aF-999.0
aa(lp287
S'7_8'
p288
ag11
aS'211'
p289
aF241.62534354212076
aF0.058855727036230876
aF-999.0
aF-999.0
aa(lp290
S'7_8'
p291
ag11
aS'2291'
p292
aF246.46382805284705
aF1.9749047183728679
aF-999.0
aF-999.0
aa(lp293
S'7_8'
p294
ag11
aS'2451'
p295
aF243.88044680935195
aF1.7171582463601143
aF-999.0
aF-999.0
aa(lp296
S'7_8'
p297
ag11
aS'131'
p298
aF245.72408884676042
aF1.9842386724468064
aF-999.0
aF-999.0
aa(lp299
S'7_8'
p300
ag11
aS'1871'
p301
aF243.5322775967905
aF1.5727712203436237
aF-999.0
aF-999.0
aa(lp302
S'7_8'
p303
ag11
aS'251'
p304
aF243.49489565718727
aF1.3205920674036207
aF-999.0
aF-999.0
aa(lp305
S'7_8'
p306
ag11
aS'171'
p307
aF245.17869881368156
aF2.0739411941025514
aF-999.0
aF-999.0
aa(lp308
S'7_8'
p309
ag11
aS'1631'
p310
aF244.811508546787
aF1.933899633720422
aF-999.0
aF-999.0
aa(lp311
S'7_8'
p312
ag11
aS'1711'
p313
aF244.06250576645053
aF1.7007659005693307
aF-999.0
aF-999.0
aa(lp314
S'7_8'
p315
ag11
aS'1831'
p316
aF245.88438462436335
aF1.8015974319091026
aF-999.0
aF-999.0
aa(lp317
S'7_8'
p318
ag11
aS'851'
p319
aF238.60699184875156
aF22.861581762619153
aF-999.0
aF-999.0
aa(lp320
S'7_8'
p321
ag11
aS'971'
p322
aF244.34531413843354
aF1.9896561906822245
aF-999.0
aF-999.0
aa(lp323
S'7_8'
p324
ag11
aS'sum'
p325
aF8.04892754054683
aF0.011782372156077192
aF-999.0
aF-999.0
aa(lp326
S'7_8'
p327
ag11
ag51
aF242.2727528929058
aF0.043616365694309114
aF-999.0
aF-999.0
aa(lp328
S'7_8'
p329
ag11
aS'811'
p330
aF238.40782011607357
aF2.380664963239371
aF-999.0
aF-999.0
aa(lp331
S'7_8'
p332
ag11
aS'931'
p333
aF244.8033005188274
aF1.8304982630226485
aF-999.0
aF-999.0
aa(lp334
S'7_8'
p335
ag11
aS'1671'
p336
aF247.54341699004573
aF1.7439644677934925
aF-999.0
aF-999.0
aa(lp337
S'7_8'
p338
ag11
aS'1751'
p339
aF240.0284252169934
aF2.757100201366228
aF-999.0
aF-999.0
aa(lp340
S'7_8'
p341
ag11
aS'891'
p342
aF240.64065371402083
aF2.669898677234354
aF-999.0
aF-999.0
aa(lp343
S'7_8'
p344
ag11
aS'771'
p345
aF245.01461235779422
aF1.7067429788102044
aF-999.0
aF-999.0
aa(lp346
S'7_8'
p347
ag11
aS'1791'
p348
aF242.03723947156817
aF0.9477239111622355
aF-999.0
aF-999.0
aa(lp349
S'7_8'
p350
ag11
aS'91'
p351
aF242.54282152204965
aF4.472135806975349
aF-999.0
aF-999.0
aa(lp352
S'7_8'
p353
ag11
aS'2331'
p354
aF240.69424348500408
aF1.047235100439084
aF-999.0
aF-999.0
aa(lp355
S'7_8'
p356
ag11
aS'2211'
p357
aF245.48594784599615
aF1.5716160559390084
aF-999.0
aF-999.0
aa(lp358
S'7_8'
p359
ag11
aS'51'
p360
aF245.18893386970004
aF1.7124550914623113
aF-999.0
aF-999.0
aa(lp361
S'7_8'
p362
ag11
aS'1011'
p363
aF243.99672194089203
aF3.290548716084444
aF-999.0
aF-999.0
aa(lp364
S'7_8'
p365
ag11
aS'2411'
p366
aF245.47783387208028
aF2.5254048722829463
aF-999.0
aF-999.0
aa(lp367
S'7_8'
p368
ag11
aS'2674'
p369
aF245.71398726190006
aF1.9032976893030749
aF-999.0
aF-999.0
aa(lp370
S'7_8'
p371
ag11
aS'2371'
p372
aF240.53919567546208
aF1.5335151656630939
aF-999.0
aF-999.0
aa(lp373
S'7_8'
p374
ag11
aS'2251'
p375
aF243.07166560135354
aF6.022997744356658
aF-999.0
aF-999.0
aa(lp376
S'7_8'
p377
ag11
aS'291'
p378
aF245.06704360306523
aF2.8427413318881936
aF-999.0
aF-999.0
aa(lp379
S'9_10'
p380
ag11
aS'211'
p381
aF244.2617257458094
aF1.430294318000639
aF-999.0
aF-999.0
aa(lp382
S'9_10'
p383
ag11
aS'2291'
p384
aF241.55666994350904
aF1.8087784722693905
aF-999.0
aF-999.0
aa(lp385
S'9_10'
p386
ag11
aS'2451'
p387
aF243.88441417843836
aF1.751168630970241
aF-999.0
aF-999.0
aa(lp388
S'9_10'
p389
ag11
aS'131'
p390
aF243.20635619687087
aF1.7872785779566125
aF-999.0
aF-999.0
aa(lp391
S'9_10'
p392
ag11
aS'1871'
p393
aF243.08514328689392
aF1.3709373897865682
aF-999.0
aF-999.0
aa(lp394
S'9_10'
p395
ag11
aS'251'
p396
aF241.86989773091315
aF1.8224787147073576
aF-999.0
aF-999.0
aa(lp397
S'9_10'
p398
ag11
aS'171'
p399
aF241.14569828140577
aF1.633773258080291
aF-999.0
aF-999.0
aa(lp400
S'9_10'
p401
ag11
aS'1631'
p402
aF242.72217632354315
aF1.4340951681413385
aF-999.0
aF-999.0
aa(lp403
S'9_10'
p404
ag11
aS'1711'
p405
aF245.20924373249892
aF1.8571814302876377
aF-999.0
aF-999.0
aa(lp406
S'9_10'
p407
ag11
aS'1831'
p408
aF242.35841027749274
aF3.6886614493484253
aF-999.0
aF-999.0
aa(lp409
S'9_10'
p410
ag11
aS'851'
p411
aF241.85531276482206
aF1.7414353934100695
aF-999.0
aF-999.0
aa(lp412
S'9_10'
p413
ag11
aS'971'
p414
aF-243.56157100467732
aF-1.9902409808153014
aF-999.0
aF-999.0
aa(lp415
S'9_10'
p416
ag11
aS'sum'
p417
aF7.9574127044389416
aF0.012747450816685013
aF-999.0
aF-999.0
aa(lp418
S'9_10'
p419
ag11
ag51
aF247.2297907430593
aF3.2442180853688507
aF-999.0
aF-999.0
aa(lp420
S'9_10'
p421
ag11
aS'811'
p422
aF245.1704446179529
aF1.9211160085252394
aF-999.0
aF-999.0
aa(lp423
S'9_10'
p424
ag11
aS'931'
p425
aF244.93070292268516
aF1.5302875206548148
aF-999.0
aF-999.0
aa(lp426
S'9_10'
p427
ag11
aS'1671'
p428
aF241.9104014009603
aF3.7549672219095855
aF-999.0
aF-999.0
aa(lp429
S'9_10'
p430
ag11
aS'1751'
p431
aF243.28465231801292
aF3.0145324235754654
aF-999.0
aF-999.0
aa(lp432
S'9_10'
p433
ag11
aS'891'
p434
aF244.1217985251922
aF2.102544914179068
aF-999.0
aF-999.0
aa(lp435
S'9_10'
p436
ag11
aS'771'
p437
aF245.49065395421925
aF1.6358809378408101
aF-999.0
aF-999.0
aa(lp438
S'9_10'
p439
ag11
aS'1791'
p440
aF241.39607707416633
aF1.652309319099007
aF-999.0
aF-999.0
aa(lp441
S'9_10'
p442
ag11
aS'91'
p443
aF243.39131141389527
aF2.1133641182801792
aF-999.0
aF-999.0
aa(lp444
S'9_10'
p445
ag11
aS'2331'
p446
aF242.77604298914875
aF1.5293471511354644
aF-999.0
aF-999.0
aa(lp447
S'9_10'
p448
ag11
aS'2211'
p449
aF241.1328162125514
aF1.6424359478956856
aF-999.0
aF-999.0
aa(lp450
S'9_10'
p451
ag11
aS'51'
p452
aF243.3992141796555
aF1.4775052220312848
aF-999.0
aF-999.0
aa(lp453
S'9_10'
p454
ag11
aS'1011'
p455
aF247.1476294936925
aF3.6376486982178324
aF-999.0
aF-999.0
aa(lp456
S'9_10'
p457
ag11
aS'2411'
p458
aF241.25698888869098
aF2.075855070573075
aF-999.0
aF-999.0
aa(lp459
S'9_10'
p460
ag11
aS'2674'
p461
aF243.4305325964161
aF1.7614636591412904
aF-999.0
aF-999.0
aa(lp462
S'9_10'
p463
ag11
aS'2371'
p464
aF243.43564151443243
aF1.5621381657880804
aF-999.0
aF-999.0
aa(lp465
S'9_10'
p466
ag11
aS'2251'
p467
aF242.23113867634206
aF1.922315855744675
aF-999.0
aF-999.0
aa(lp468
S'9_10'
p469
ag11
aS'291'
p470
aF243.32691741399051
aF1.5651322698020003
aF-999.0
aF-999.0
aa.