(lp0
(lp1
S'XscanNumber_YscanNumber'
p2
aS'Type'
p3
aS'BCID'
p4
aS'xsec'
p5
aS'xsecErr'
p6
aS'normChange'
p7
aS'normChangeErr'
p8
aa(lp9
S'1_2'
p10
aS'XY'
p11
aS'211'
p12
aF243.47214182121266
aF0.9562164362911721
aF-999.0
aF-999.0
aa(lp13
S'1_2'
p14
ag11
aS'2291'
p15
aF243.8224360913069
aF1.8636362276106495
aF-999.0
aF-999.0
aa(lp16
S'1_2'
p17
ag11
aS'2451'
p18
aF243.20429400846712
aF1.9900843268054775
aF-999.0
aF-999.0
aa(lp19
S'1_2'
p20
ag11
aS'131'
p21
aF244.7807307233977
aF1.934755723548848
aF-999.0
aF-999.0
aa(lp22
S'1_2'
p23
ag11
aS'1871'
p24
aF241.41267428040555
aF1.8623623553632065
aF-999.0
aF-999.0
aa(lp25
S'1_2'
p26
ag11
aS'251'
p27
aF244.64403371566354
aF1.7304732582002862
aF-999.0
aF-999.0
aa(lp28
S'1_2'
p29
ag11
aS'171'
p30
aF242.1967932742096
aF3.7314462939779234
aF-999.0
aF-999.0
aa(lp31
S'1_2'
p32
ag11
aS'1631'
p33
aF242.97221293245005
aF1.486208795883669
aF-999.0
aF-999.0
aa(lp34
S'1_2'
p35
ag11
aS'1711'
p36
aF240.1314021997111
aF1.6786409533197373
aF-999.0
aF-999.0
aa(lp37
S'1_2'
p38
ag11
aS'1831'
p39
aF246.1475604430086
aF1.918611139115866
aF-999.0
aF-999.0
aa(lp40
S'1_2'
p41
ag11
aS'851'
p42
aF242.18605691370237
aF1.583452370992555
aF-999.0
aF-999.0
aa(lp43
S'1_2'
p44
ag11
aS'971'
p45
aF244.32985155887334
aF2.3118477456952564
aF-999.0
aF-999.0
aa(lp46
S'1_2'
p47
ag11
aS'sum'
p48
aF7.998585490369112
aF0.0091356101146613
aF-999.0
aF-999.0
aa(lp49
S'1_2'
p50
ag11
aS'1'
p51
aF241.98621526564108
aF3.4626057897791847
aF-999.0
aF-999.0
aa(lp52
S'1_2'
p53
ag11
aS'811'
p54
aF244.14243452018047
aF1.518237274990043
aF-999.0
aF-999.0
aa(lp55
S'1_2'
p56
ag11
aS'931'
p57
aF244.52484186729254
aF2.5042221488994407
aF-999.0
aF-999.0
aa(lp58
S'1_2'
p59
ag11
aS'1671'
p60
aF244.21146791924366
aF3.545447044077173
aF-999.0
aF-999.0
aa(lp61
S'1_2'
p62
ag11
aS'1751'
p63
aF243.67706839024996
aF2.2002910313455932
aF-999.0
aF-999.0
aa(lp64
S'1_2'
p65
ag11
aS'891'
p66
aF242.56066199470337
aF2.62824521019678
aF-999.0
aF-999.0
aa(lp67
S'1_2'
p68
ag11
aS'771'
p69
aF242.49180294027366
aF1.5978420166669347
aF-999.0
aF-999.0
aa(lp70
S'1_2'
p71
ag11
aS'1791'
p72
aF245.85186451799584
aF1.7803456209495674
aF-999.0
aF-999.0
aa(lp73
S'1_2'
p74
ag11
aS'91'
p75
aF247.15558282162868
aF2.0570297674006044
aF-999.0
aF-999.0
aa(lp76
S'1_2'
p77
ag11
aS'2331'
p78
aF242.3183614534138
aF1.981658080312368
aF-999.0
aF-999.0
aa(lp79
S'1_2'
p80
ag11
aS'2211'
p81
aF246.46919569147616
aF1.7169466186634827
aF-999.0
aF-999.0
aa(lp82
S'1_2'
p83
ag11
aS'51'
p84
aF247.51012906558597
aF1.5977471338403562
aF-999.0
aF-999.0
aa(lp85
S'1_2'
p86
ag11
aS'1011'
p87
aF244.3104930335243
aF1.6549540488054058
aF-999.0
aF-999.0
aa(lp88
S'1_2'
p89
ag11
aS'2411'
p90
aF246.63118958025333
aF1.8263232402311336
aF-999.0
aF-999.0
aa(lp91
S'1_2'
p92
ag11
aS'2674'
p93
aF242.72485437649752
aF4.13801641349969
aF-999.0
aF-999.0
aa(lp94
S'1_2'
p95
ag11
aS'2371'
p96
aF244.4204364061844
aF0.4896157789017559
aF-999.0
aF-999.0
aa(lp97
S'1_2'
p98
ag11
aS'2251'
p99
aF244.53833179289836
aF1.7679066288142211
aF-999.0
aF-999.0
aa(lp100
S'1_2'
p101
ag11
aS'291'
p102
aF242.53773356704997
aF2.7206146194855347
aF-999.0
aF-999.0
aa(lp103
S'4_3'
p104
ag11
aS'211'
p105
aF249.23370104196786
aF1.9602921524011403
aF-999.0
aF-999.0
aa(lp106
S'4_3'
p107
ag11
aS'2291'
p108
aF245.74881832037647
aF3.7888659833250316
aF-999.0
aF-999.0
aa(lp109
S'4_3'
p110
ag11
aS'2451'
p111
aF244.02516255011545
aF1.8293005922282264
aF-999.0
aF-999.0
aa(lp112
S'4_3'
p113
ag11
aS'131'
p114
aF248.15434347005254
aF1.948083453409005
aF-999.0
aF-999.0
aa(lp115
S'4_3'
p116
ag11
aS'1871'
p117
aF244.74523155859205
aF1.7408687849298377
aF-999.0
aF-999.0
aa(lp118
S'4_3'
p119
ag11
aS'251'
p120
aF244.43409131759188
aF1.5914022030583554
aF-999.0
aF-999.0
aa(lp121
S'4_3'
p122
ag11
aS'171'
p123
aF244.44317064106178
aF2.0283559157925337
aF-999.0
aF-999.0
aa(lp124
S'4_3'
p125
ag11
aS'1631'
p126
aF244.96468993640684
aF1.5572146447617818
aF-999.0
aF-999.0
aa(lp127
S'4_3'
p128
ag11
aS'1711'
p129
aF247.98523094134185
aF1.866276550160359
aF-999.0
aF-999.0
aa(lp130
S'4_3'
p131
ag11
aS'1831'
p132
aF245.3494867004987
aF1.8051466504917668
aF-999.0
aF-999.0
aa(lp133
S'4_3'
p134
ag11
aS'851'
p135
aF246.3652174298505
aF1.5517403449393645
aF-999.0
aF-999.0
aa(lp136
S'4_3'
p137
ag11
aS'971'
p138
aF245.72768038429885
aF2.2674275793799485
aF-999.0
aF-999.0
aa(lp139
S'4_3'
p140
ag11
aS'sum'
p141
aF8.037494351479179
aF0.011523033207394754
aF-999.0
aF-999.0
aa(lp142
S'4_3'
p143
ag11
ag51
aF243.98342649319073
aF1.3350629692771896
aF-999.0
aF-999.0
aa(lp144
S'4_3'
p145
ag11
aS'811'
p146
aF246.96053887210135
aF3.610806981496571
aF-999.0
aF-999.0
aa(lp147
S'4_3'
p148
ag11
aS'931'
p149
aF246.39260757868715
aF1.4848318276693373
aF-999.0
aF-999.0
aa(lp150
S'4_3'
p151
ag11
aS'1671'
p152
aF245.64915948138625
aF2.959457617709666
aF-999.0
aF-999.0
aa(lp153
S'4_3'
p154
ag11
aS'1751'
p155
aF242.27297958155856
aF2.2764850618963313
aF-999.0
aF-999.0
aa(lp156
S'4_3'
p157
ag11
aS'891'
p158
aF243.15583577006788
aF1.5297616163903944
aF-999.0
aF-999.0
aa(lp159
S'4_3'
p160
ag11
aS'771'
p161
aF248.57343690489722
aF1.891283583421365
aF-999.0
aF-999.0
aa(lp162
S'4_3'
p163
ag11
aS'1791'
p164
aF247.0494328878596
aF3.4745337272100287
aF-999.0
aF-999.0
aa(lp165
S'4_3'
p166
ag11
aS'91'
p167
aF244.55784823787076
aF1.6635680935936774
aF-999.0
aF-999.0
aa(lp168
S'4_3'
p169
ag11
aS'2331'
p170
aF242.329740124681
aF2.110786719066609
aF-999.0
aF-999.0
aa(lp171
S'4_3'
p172
ag11
aS'2211'
p173
aF248.45925364778432
aF1.4431529750248273
aF-999.0
aF-999.0
aa(lp174
S'4_3'
p175
ag11
aS'51'
p176
aF246.3496212762992
aF1.7165450814413854
aF-999.0
aF-999.0
aa(lp177
S'4_3'
p178
ag11
aS'1011'
p179
aF248.37396915784564
aF3.415282886983139
aF-999.0
aF-999.0
aa(lp180
S'4_3'
p181
ag11
aS'2411'
p182
aF243.5804892905348
aF3.794649560800392
aF-999.0
aF-999.0
aa(lp183
S'4_3'
p184
ag11
aS'2674'
p185
aF245.01567573558384
aF2.778307176501527
aF-999.0
aF-999.0
aa(lp186
S'4_3'
p187
ag11
aS'2371'
p188
aF246.90922048316216
aF2.1372402763838982
aF-999.0
aF-999.0
aa(lp189
S'4_3'
p190
ag11
aS'2251'
p191
aF246.6880043758658
aF1.7675564597751248
aF-999.0
aF-999.0
aa(lp192
S'4_3'
p193
ag11
aS'291'
p194
aF248.40999582951915
aF1.5152126335941403
aF-999.0
aF-999.0
aa(lp195
S'5_6'
p196
ag11
aS'211'
p197
aF241.4179531193093
aF1.217435870778912
aF-999.0
aF-999.0
aa(lp198
S'5_6'
p199
ag11
aS'2291'
p200
aF242.95315896128747
aF1.6992698313283356
aF-999.0
aF-999.0
aa(lp201
S'5_6'
p202
ag11
aS'2451'
p203
aF239.52022776980706
aF1.7221200669197794
aF-999.0
aF-999.0
aa(lp204
S'5_6'
p205
ag11
aS'131'
p206
aF239.39741454275682
aF4.9547427068718655
aF-999.0
aF-999.0
aa(lp207
S'5_6'
p208
ag11
aS'1871'
p209
aF241.3295880265616
aF1.5870772333405998
aF-999.0
aF-999.0
aa(lp210
S'5_6'
p211
ag11
aS'251'
p212
aF239.3992296869546
aF3.3614939247095244
aF-999.0
aF-999.0
aa(lp213
S'5_6'
p214
ag11
aS'171'
p215
aF239.61323393467586
aF3.5706266131083804
aF-999.0
aF-999.0
aa(lp216
S'5_6'
p217
ag11
aS'1631'
p218
aF242.120634680052
aF1.3793907990717713
aF-999.0
aF-999.0
aa(lp219
S'5_6'
p220
ag11
aS'1711'
p221
aF243.45802804573717
aF1.8585461384020117
aF-999.0
aF-999.0
aa(lp222
S'5_6'
p223
ag11
aS'1831'
p224
aF239.48643186541128
aF1.9912152119732007
aF-999.0
aF-999.0
aa(lp225
S'5_6'
p226
ag11
aS'851'
p227
aF241.69217027360983
aF1.9236813264520753
aF-999.0
aF-999.0
aa(lp228
S'5_6'
p229
ag11
aS'971'
p230
aF240.02833164353626
aF1.244515242057935
aF-999.0
aF-999.0
aa(lp231
S'5_6'
p232
ag11
aS'sum'
p233
aF7.969547683689274
aF0.011927726885759266
aF-999.0
aF-999.0
aa(lp234
S'5_6'
p235
ag11
ag51
aF239.32126795264256
aF2.4046631902985802
aF-999.0
aF-999.0
aa(lp236
S'5_6'
p237
ag11
aS'811'
p238
aF242.3558212342659
aF1.6611351375276695
aF-999.0
aF-999.0
aa(lp239
S'5_6'
p240
ag11
aS'931'
p241
aF238.57670024019936
aF1.3377348500018524
aF-999.0
aF-999.0
aa(lp242
S'5_6'
p243
ag11
aS'1671'
p244
aF240.43070533671045
aF2.2198379521509923
aF-999.0
aF-999.0
aa(lp245
S'5_6'
p246
ag11
aS'1751'
p247
aF237.65087345910212
aF1.2782079270942543
aF-999.0
aF-999.0
aa(lp248
S'5_6'
p249
ag11
aS'891'
p250
aF240.46133064833253
aF3.4320772938307966
aF-999.0
aF-999.0
aa(lp251
S'5_6'
p252
ag11
aS'771'
p253
aF244.58230372755662
aF2.2409172565572275
aF-999.0
aF-999.0
aa(lp254
S'5_6'
p255
ag11
aS'1791'
p256
aF243.38462394245457
aF1.7581477412110926
aF-999.0
aF-999.0
aa(lp257
S'5_6'
p258
ag11
aS'91'
p259
aF242.54519518111513
aF5.861704693967234
aF-999.0
aF-999.0
aa(lp260
S'5_6'
p261
ag11
aS'2331'
p262
aF241.91450400846227
aF4.916503912374228
aF-999.0
aF-999.0
aa(lp263
S'5_6'
p264
ag11
aS'2211'
p265
aF243.34344178921535
aF3.0128307327415373
aF-999.0
aF-999.0
aa(lp266
S'5_6'
p267
ag11
aS'51'
p268
aF244.66084544596094
aF1.770032323847367
aF-999.0
aF-999.0
aa(lp269
S'5_6'
p270
ag11
aS'1011'
p271
aF244.35370269920588
aF1.7063218317554405
aF-999.0
aF-999.0
aa(lp272
S'5_6'
p273
ag11
aS'2411'
p274
aF243.60507195490467
aF1.8793228682434977
aF-999.0
aF-999.0
aa(lp275
S'5_6'
p276
ag11
aS'2674'
p277
aF240.6246761814592
aF1.2916961931924413
aF-999.0
aF-999.0
aa(lp278
S'5_6'
p279
ag11
aS'2371'
p280
aF243.6491953705725
aF1.716081430426793
aF-999.0
aF-999.0
aa(lp281
S'5_6'
p282
ag11
aS'2251'
p283
aF243.08490659070097
aF3.4071347738700695
aF-999.0
aF-999.0
aa(lp284
S'5_6'
p285
ag11
aS'291'
p286
aF241.11905096949096
aF1.7976690202414085
aF-999.0
aF-999.0
aa(lp287
S'7_8'
p288
ag11
aS'211'
p289
aF243.1009214635586
aF0.0906958346566101
aF-999.0
aF-999.0
aa(lp290
S'7_8'
p291
ag11
aS'2291'
p292
aF245.82863067260402
aF1.8405291665087082
aF-999.0
aF-999.0
aa(lp293
S'7_8'
p294
ag11
aS'2451'
p295
aF245.3695451420844
aF1.71327451893808
aF-999.0
aF-999.0
aa(lp296
S'7_8'
p297
ag11
aS'131'
p298
aF247.22483334057773
aF2.0353063977163752
aF-999.0
aF-999.0
aa(lp299
S'7_8'
p300
ag11
aS'1871'
p301
aF245.01878119483786
aF1.5509943453449446
aF-999.0
aF-999.0
aa(lp302
S'7_8'
p303
ag11
aS'251'
p304
aF244.98203249174458
aF1.3288440395548247
aF-999.0
aF-999.0
aa(lp305
S'7_8'
p306
ag11
aS'171'
p307
aF244.36646589337482
aF1.9009855378353084
aF-999.0
aF-999.0
aa(lp308
S'7_8'
p309
ag11
aS'1631'
p310
aF246.306776561597
aF2.029784981666502
aF-999.0
aF-999.0
aa(lp311
S'7_8'
p312
ag11
aS'1711'
p313
aF245.5514274968665
aF2.3612074880220155
aF-999.0
aF-999.0
aa(lp314
S'7_8'
p315
ag11
aS'1831'
p316
aF247.38604272600406
aF1.8065014556424002
aF-999.0
aF-999.0
aa(lp317
S'7_8'
p318
ag11
aS'851'
p319
aF245.8050023108999
aF1.7859018912104823
aF-999.0
aF-999.0
aa(lp320
S'7_8'
p321
ag11
aS'971'
p322
aF245.83703869221762
aF1.9535432799120571
aF-999.0
aF-999.0
aa(lp323
S'7_8'
p324
ag11
aS'sum'
p325
aF8.025509235797525
aF0.008464829057628784
aF-999.0
aF-999.0
aa(lp326
S'7_8'
p327
ag11
ag51
aF243.75227865203442
aF1.2120752464027775
aF-999.0
aF-999.0
aa(lp328
S'7_8'
p329
ag11
aS'811'
p330
aF244.77365707686602
aF1.7059247413695566
aF-999.0
aF-999.0
aa(lp331
S'7_8'
p332
ag11
aS'931'
p333
aF244.1873165626679
aF1.5719792398295958
aF-999.0
aF-999.0
aa(lp334
S'7_8'
p335
ag11
aS'1671'
p336
aF249.05551307130554
aF1.7530378608123482
aF-999.0
aF-999.0
aa(lp337
S'7_8'
p338
ag11
aS'1751'
p339
aF241.49447290583413
aF2.807653038434551
aF-999.0
aF-999.0
aa(lp340
S'7_8'
p341
ag11
aS'891'
p342
aF242.1087708653309
aF2.9980979287753815
aF-999.0
aF-999.0
aa(lp343
S'7_8'
p344
ag11
aS'771'
p345
aF246.5111225600822
aF1.6563275371669308
aF-999.0
aF-999.0
aa(lp346
S'7_8'
p347
ag11
aS'1791'
p348
aF243.51531245863973
aF0.9736568446043973
aF-999.0
aF-999.0
aa(lp349
S'7_8'
p350
ag11
aS'91'
p351
aF244.02147883066675
aF4.420424697663923
aF-999.0
aF-999.0
aa(lp352
S'7_8'
p353
ag11
aS'2331'
p354
aF247.65015153112202
aF4.310775610517749
aF-999.0
aF-999.0
aa(lp355
S'7_8'
p356
ag11
aS'2211'
p357
aF246.9843327892024
aF1.2571122500852947
aF-999.0
aF-999.0
aa(lp358
S'7_8'
p359
ag11
aS'51'
p360
aF246.68651898909133
aF1.7152603969117801
aF-999.0
aF-999.0
aa(lp361
S'7_8'
p362
ag11
aS'1011'
p363
aF245.48713698300458
aF2.3251698757282604
aF-999.0
aF-999.0
aa(lp364
S'7_8'
p365
ag11
aS'2411'
p366
aF246.9767743255629
aF1.8468829657008734
aF-999.0
aF-999.0
aa(lp367
S'7_8'
p368
ag11
aS'2674'
p369
aF247.21456553072707
aF1.8817294307217396
aF-999.0
aF-999.0
aa(lp370
S'7_8'
p371
ag11
aS'2371'
p372
aF242.00818883047458
aF1.572403764244529
aF-999.0
aF-999.0
aa(lp373
S'7_8'
p374
ag11
aS'2251'
p375
aF244.560488110911
aF4.454624009779091
aF-999.0
aF-999.0
aa(lp376
S'7_8'
p377
ag11
aS'291'
p378
aF246.53599535375292
aF4.030037890160984
aF-999.0
aF-999.0
aa(lp379
S'9_10'
p380
ag11
aS'211'
p381
aF245.7534387384388
aF1.448753629097112
aF-999.0
aF-999.0
aa(lp382
S'9_10'
p383
ag11
aS'2291'
p384
aF243.03170914954586
aF1.7370639413309394
aF-999.0
aF-999.0
aa(lp385
S'9_10'
p386
ag11
aS'2451'
p387
aF245.3734237440177
aF1.7994068906339498
aF-999.0
aF-999.0
aa(lp388
S'9_10'
p389
ag11
aS'131'
p390
aF247.1905329730303
aF1.8605234396368302
aF-999.0
aF-999.0
aa(lp391
S'9_10'
p392
ag11
aS'1871'
p393
aF246.20259339125522
aF1.6913082271338957
aF-999.0
aF-999.0
aa(lp394
S'9_10'
p395
ag11
aS'251'
p396
aF243.34649500804224
aF1.8488041998044074
aF-999.0
aF-999.0
aa(lp397
S'9_10'
p398
ag11
aS'171'
p399
aF242.6184702288263
aF1.564570920882821
aF-999.0
aF-999.0
aa(lp400
S'9_10'
p401
ag11
aS'1631'
p402
aF243.68833699499407
aF1.833447573502836
aF-999.0
aF-999.0
aa(lp403
S'9_10'
p404
ag11
aS'1711'
p405
aF246.7075558363191
aF1.854123126557579
aF-999.0
aF-999.0
aa(lp406
S'9_10'
p407
ag11
aS'1831'
p408
aF243.83494491208901
aF3.655165757042718
aF-999.0
aF-999.0
aa(lp409
S'9_10'
p410
ag11
aS'851'
p411
aF243.51825698427808
aF3.2032921407280073
aF-999.0
aF-999.0
aa(lp412
S'9_10'
p413
ag11
aS'971'
p414
aF-245.10923779261114
aF-2.164896202343566
aF-999.0
aF-999.0
aa(lp415
S'9_10'
p416
ag11
aS'sum'
p417
aF8.00600477812165
aF0.012774195155393325
aF-999.0
aF-999.0
aa(lp418
S'9_10'
p419
ag11
ag51
aF248.73923604571058
aF3.1640329089582147
aF-999.0
aF-999.0
aa(lp420
S'9_10'
p421
ag11
aS'811'
p422
aF246.66854763788874
aF1.9153972198495977
aF-999.0
aF-999.0
aa(lp423
S'9_10'
p424
ag11
aS'931'
p425
aF246.42637150229757
aF1.5341865198564997
aF-999.0
aF-999.0
aa(lp426
S'9_10'
p427
ag11
aS'1671'
p428
aF243.3885509335115
aF4.117131750736499
aF-999.0
aF-999.0
aa(lp429
S'9_10'
p430
ag11
aS'1751'
p431
aF244.7705419484868
aF3.0341880948393603
aF-999.0
aF-999.0
aa(lp432
S'9_10'
p433
ag11
aS'891'
p434
aF245.61166054910427
aF2.1700023871613716
aF-999.0
aF-999.0
aa(lp435
S'9_10'
p436
ag11
aS'771'
p437
aF246.989687804915
aF1.5206780276912095
aF-999.0
aF-999.0
aa(lp438
S'9_10'
p439
ag11
aS'1791'
p440
aF242.8700836747205
aF1.6546395080506304
aF-999.0
aF-999.0
aa(lp441
S'9_10'
p442
ag11
aS'91'
p443
aF243.42306323506986
aF3.8668185613844135
aF-999.0
aF-999.0
aa(lp444
S'9_10'
p445
ag11
aS'2331'
p446
aF245.08715876711798
aF2.8023327506004203
aF-999.0
aF-999.0
aa(lp447
S'9_10'
p448
ag11
aS'2211'
p449
aF242.6052737140617
aF1.6566519657280194
aF-999.0
aF-999.0
aa(lp450
S'9_10'
p451
ag11
aS'51'
p452
aF244.88529612221075
aF1.4566118048085837
aF-999.0
aF-999.0
aa(lp453
S'9_10'
p454
ag11
aS'1011'
p455
aF248.65675548795278
aF3.859521821241611
aF-999.0
aF-999.0
aa(lp456
S'9_10'
p457
ag11
aS'2411'
p458
aF242.72998562810693
aF2.0830633694160006
aF-999.0
aF-999.0
aa(lp459
S'9_10'
p460
ag11
aS'2674'
p461
aF244.9166168311525
aF1.6953302760957014
aF-999.0
aF-999.0
aa(lp462
S'9_10'
p463
ag11
aS'2371'
p464
aF244.92231104768413
aF1.5730215665412204
aF-999.0
aF-999.0
aa(lp465
S'9_10'
p466
ag11
aS'2251'
p467
aF243.71098079857768
aF1.9260294669494626
aF-999.0
aF-999.0
aa(lp468
S'9_10'
p469
ag11
aS'291'
p470
aF244.81327481251913
aF1.6749160185699592
aF-999.0
aF-999.0
aa.