(lp0
(lp1
S'XscanNumber_YscanNumber'
p2
aS'Type'
p3
aS'BCID'
p4
aS'xsec'
p5
aS'xsecErr'
p6
aS'normChange'
p7
aS'normChangeErr'
p8
aa(lp9
S'1_2'
p10
aS'XY'
p11
aS'1631'
p12
aF26290.680819190067
aF64.86730787178675
aF0.04193314688098366
aF0.00010346214947679011
aa(lp13
S'1_2'
p14
ag11
aS'2211'
p15
aF26231.055011872453
aF60.61508212731648
aF0.04202846511103637
aF9.711995431512275e-05
aa(lp16
S'1_2'
p17
ag11
aS'771'
p18
aF26285.830445203934
aF59.785012237001986
aF0.04194088456479823
aF9.539117670884361e-05
aa(lp19
S'1_2'
p20
ag11
aS'sum'
p21
aF4.8796862188531445e-05
aF0.00041605551522077997
aF22592661.30950654
aF192631266.02317733
aa(lp22
S'1_2'
p23
ag11
aS'51'
p24
aF26334.186527183156
aF64.29104752406542
aF0.04186387072386553
aF0.00010220448994963747
aa(lp25
S'1_2'
p26
ag11
aS'2674'
p27
aF26302.960498736767
aF66.75198856930706
aF0.04191357016428259
aF0.00010636879284517838
aa(lp28
S'4_3'
p29
ag11
aS'1631'
p30
aF26404.063522974782
aF65.93823681440084
aF0.041753080143625956
aF0.00010426896920034709
aa(lp31
S'4_3'
p32
ag11
aS'2211'
p33
aF26383.825107804576
aF60.436567556136396
aF0.04178510795487505
aF9.571578379695358e-05
aa(lp34
S'4_3'
p35
ag11
aS'771'
p36
aF26295.73371523831
aF59.891334597429754
aF0.041925089154416305
aF9.548885647252852e-05
aa(lp37
S'4_3'
p38
ag11
aS'sum'
p39
aF4.8796862188531445e-05
aF0.00041605551522077997
aF22592661.30950654
aF192631266.02317733
aa(lp40
S'4_3'
p41
ag11
aS'51'
p42
aF26360.020471319007
aF63.047574634030845
aF0.04182284234534938
aF0.00010003136291357283
aa(lp43
S'4_3'
p44
ag11
aS'2674'
p45
aF26203.625570346823
aF69.53026217956946
aF0.04207245968434761
aF0.00011163757261523629
aa(lp46
S'5_6'
p47
ag11
aS'1631'
p48
aF25833.75050059785
aF64.68429007136554
aF0.042674832690926694
aF0.00010685212959933997
aa(lp49
S'5_6'
p50
ag11
aS'2211'
p51
aF25781.08271101981
aF64.17099714208219
aF0.042762012470520784
aF0.0001064377710895186
aa(lp52
S'5_6'
p53
ag11
aS'771'
p54
aF25862.302438926563
aF60.910585939495135
aF0.04262771974751971
aF0.00010039629662585378
aa(lp55
S'5_6'
p56
ag11
aS'sum'
p57
aF2.199631797005471e-05
aF4.375000352416774e-05
aF50119796.49925996
aF99686741.9564648
aa(lp58
S'5_6'
p59
ag11
aS'51'
p60
aF25896.674018535607
aF64.25916038766957
aF0.04257114174596611
aF0.0001056346395441457
aa(lp61
S'5_6'
p62
ag11
aS'2674'
p63
aF25988.32989486628
aF66.99733718373221
aF0.042421001459194745
aF0.00010936039945355211
aa(lp64
S'7_8'
p65
ag11
aS'1631'
p66
aF26327.202132734306
aF68.46607946270511
aF0.041874976871219015
aF0.0001088993611819873
aa(lp67
S'7_8'
p68
ag11
aS'2211'
p69
aF26260.271120590784
aF64.55419451621898
aF0.041981705951532264
aF0.0001032013416644783
aa(lp70
S'7_8'
p71
ag11
aS'771'
p72
aF26226.19492019118
aF61.806473433370016
aF0.04203625359100017
aF9.906555635374716e-05
aa(lp73
S'7_8'
p74
ag11
aS'sum'
p75
aF7.455360530520607e-06
aF1.3749950964857628e-05
aF147873597.24307966
aF272723861.27615875
aa(lp76
S'7_8'
p77
ag11
aS'51'
p78
aF26368.26752598541
aF64.78650939754003
aF0.04180976165027578
aF0.0001027260707740894
aa(lp79
S'7_8'
p80
ag11
aS'2674'
p81
aF26291.884543140328
aF69.84031515350262
aF0.04193122705157289
aF0.00011138380389773092
aa(lp82
S'9_10'
p83
ag11
aS'1631'
p84
aF26325.005374160824
aF67.27012362747672
aF0.04187847123762649
aF0.00010701498052684315
aa(lp85
S'9_10'
p86
ag11
aS'2211'
p87
aF26240.716676027787
aF63.61094390259309
aF0.04201299049881901
aF0.00010184500731422487
aa(lp88
S'9_10'
p89
ag11
aS'771'
p90
aF26310.160767642534
aF62.289856896035204
aF0.04190209972977446
aF9.920409908787177e-05
aa(lp91
S'9_10'
p92
ag11
aS'sum'
p93
aF4.8796862188531445e-05
aF0.00041605551522077997
aF22592661.30950654
aF192631266.02317733
aa(lp94
S'9_10'
p95
ag11
aS'51'
p96
aF26280.106934989795
aF64.75864571235269
aF0.04195001881534715
aF0.00010337196925453266
aa(lp97
S'9_10'
p98
ag11
aS'2674'
p99
aF26468.969301325094
aF68.12624545549829
aF0.04165069549334382
aF0.00010720120879167387
aa.