(lp0
(lp1
S'XscanNumber_YscanNumber'
p2
aS'Type'
p3
aS'BCID'
p4
aS'xsec'
p5
aS'xsecErr'
p6
aS'normChange'
p7
aS'normChangeErr'
p8
aa(lp9
S'1_2'
p10
aS'XY'
p11
aS'211'
p12
aF487.09242868754956
aF2.2166828461808348
aF-999.0
aF-999.0
aa(lp13
S'1_2'
p14
ag11
aS'2291'
p15
aF487.176023912667
aF2.6880773088846963
aF-999.0
aF-999.0
aa(lp16
S'1_2'
p17
ag11
aS'2451'
p18
aF482.2328172704921
aF2.9028571915611905
aF-999.0
aF-999.0
aa(lp19
S'1_2'
p20
ag11
aS'131'
p21
aF482.48025015897804
aF2.74584110480553
aF-999.0
aF-999.0
aa(lp22
S'1_2'
p23
ag11
aS'1871'
p24
aF483.24133286609225
aF2.941694087385525
aF-999.0
aF-999.0
aa(lp25
S'1_2'
p26
ag11
aS'251'
p27
aF485.1521422161959
aF2.9626866614456655
aF-999.0
aF-999.0
aa(lp28
S'1_2'
p29
ag11
aS'171'
p30
aF480.26183694289523
aF3.262883684891332
aF-999.0
aF-999.0
aa(lp31
S'1_2'
p32
ag11
aS'1631'
p33
aF484.7994451157153
aF1.9066241134828685
aF-999.0
aF-999.0
aa(lp34
S'1_2'
p35
ag11
aS'1711'
p36
aF480.98006715745345
aF3.3667453944068817
aF-999.0
aF-999.0
aa(lp37
S'1_2'
p38
ag11
aS'1831'
p39
aF486.33232864572886
aF3.1074202133711677
aF-999.0
aF-999.0
aa(lp40
S'1_2'
p41
ag11
aS'851'
p42
aF485.113783300729
aF2.7877922985835104
aF-999.0
aF-999.0
aa(lp43
S'1_2'
p44
ag11
aS'971'
p45
aF486.2648062226372
aF2.578637554525709
aF-999.0
aF-999.0
aa(lp46
S'1_2'
p47
ag11
aS'sum'
p48
aF15.922202233627456
aF0.013460082886001505
aF-999.0
aF-999.0
aa(lp49
S'1_2'
p50
ag11
aS'1'
p51
aF490.27348826022546
aF4.37059596114718
aF-999.0
aF-999.0
aa(lp52
S'1_2'
p53
ag11
aS'811'
p54
aF486.17592413398734
aF2.447795281218377
aF-999.0
aF-999.0
aa(lp55
S'1_2'
p56
ag11
aS'931'
p57
aF485.92636396755694
aF5.048420433107177
aF-999.0
aF-999.0
aa(lp58
S'1_2'
p59
ag11
aS'1671'
p60
aF484.3916839043594
aF2.7820337121136363
aF-999.0
aF-999.0
aa(lp61
S'1_2'
p62
ag11
aS'1751'
p63
aF482.3524469388248
aF3.0502151053201163
aF-999.0
aF-999.0
aa(lp64
S'1_2'
p65
ag11
aS'891'
p66
aF483.9922955972306
aF2.007884419803295
aF-999.0
aF-999.0
aa(lp67
S'1_2'
p68
ag11
aS'771'
p69
aF488.62865172792937
aF2.8509772963674767
aF-999.0
aF-999.0
aa(lp70
S'1_2'
p71
ag11
aS'1791'
p72
aF482.05550214029597
aF2.2282931317435004
aF-999.0
aF-999.0
aa(lp73
S'1_2'
p74
ag11
aS'91'
p75
aF485.66791762980574
aF3.841516285742846
aF-999.0
aF-999.0
aa(lp76
S'1_2'
p77
ag11
aS'2331'
p78
aF485.01136171413077
aF2.686844410801181
aF-999.0
aF-999.0
aa(lp79
S'1_2'
p80
ag11
aS'2211'
p81
aF486.1918481206975
aF2.3708266277925283
aF-999.0
aF-999.0
aa(lp82
S'1_2'
p83
ag11
aS'51'
p84
aF485.88623173637507
aF1.908307850812535
aF-999.0
aF-999.0
aa(lp85
S'1_2'
p86
ag11
aS'1011'
p87
aF487.37985303665397
aF4.251878246720432
aF-999.0
aF-999.0
aa(lp88
S'1_2'
p89
ag11
aS'2411'
p90
aF483.5348537616766
aF3.01185757525271
aF-999.0
aF-999.0
aa(lp91
S'1_2'
p92
ag11
aS'2674'
p93
aF485.1949469719902
aF2.4946016698448834
aF-999.0
aF-999.0
aa(lp94
S'1_2'
p95
ag11
aS'2371'
p96
aF487.20429087306485
aF1.9719053693955908
aF-999.0
aF-999.0
aa(lp97
S'1_2'
p98
ag11
aS'2251'
p99
aF483.0063970598451
aF3.2835070104097097
aF-999.0
aF-999.0
aa(lp100
S'1_2'
p101
ag11
aS'291'
p102
aF485.88362719214217
aF2.8121095108219776
aF-999.0
aF-999.0
aa(lp103
S'4_3'
p104
ag11
aS'211'
p105
aF486.76832221971824
aF2.8151946279479856
aF-999.0
aF-999.0
aa(lp106
S'4_3'
p107
ag11
aS'2291'
p108
aF487.6174553198502
aF2.5324566047387136
aF-999.0
aF-999.0
aa(lp109
S'4_3'
p110
ag11
aS'2451'
p111
aF484.91794523144756
aF2.70069865619773
aF-999.0
aF-999.0
aa(lp112
S'4_3'
p113
ag11
aS'131'
p114
aF491.0483011923938
aF2.7968819023544547
aF-999.0
aF-999.0
aa(lp115
S'4_3'
p116
ag11
aS'1871'
p117
aF483.6871467901508
aF2.559228312261788
aF-999.0
aF-999.0
aa(lp118
S'4_3'
p119
ag11
aS'251'
p120
aF484.53500629746367
aF3.146314754605449
aF-999.0
aF-999.0
aa(lp121
S'4_3'
p122
ag11
aS'171'
p123
aF486.9915380495038
aF2.793400313881675
aF-999.0
aF-999.0
aa(lp124
S'4_3'
p125
ag11
aS'1631'
p126
aF489.35409843133857
aF2.4152330080042628
aF-999.0
aF-999.0
aa(lp127
S'4_3'
p128
ag11
aS'1711'
p129
aF487.74859118142416
aF3.3296269120236355
aF-999.0
aF-999.0
aa(lp130
S'4_3'
p131
ag11
aS'1831'
p132
aF486.8521284421354
aF3.597258010370002
aF-999.0
aF-999.0
aa(lp133
S'4_3'
p134
ag11
aS'851'
p135
aF483.9144987118265
aF2.8034596283923987
aF-999.0
aF-999.0
aa(lp136
S'4_3'
p137
ag11
aS'971'
p138
aF489.2182245426809
aF2.5633102543626745
aF-999.0
aF-999.0
aa(lp139
S'4_3'
p140
ag11
aS'sum'
p141
aF15.971291472193208
aF0.016415663744480998
aF-999.0
aF-999.0
aa(lp142
S'4_3'
p143
ag11
ag51
aF486.4738794194487
aF1.5014448912913014
aF-999.0
aF-999.0
aa(lp144
S'4_3'
p145
ag11
aS'811'
p146
aF486.57789226854254
aF2.784173620259153
aF-999.0
aF-999.0
aa(lp147
S'4_3'
p148
ag11
aS'931'
p149
aF487.07157175206225
aF1.7466464441264324
aF-999.0
aF-999.0
aa(lp150
S'4_3'
p151
ag11
aS'1671'
p152
aF485.83268093971657
aF2.90708871822165
aF-999.0
aF-999.0
aa(lp153
S'4_3'
p154
ag11
aS'1751'
p155
aF485.51691821752115
aF2.8941465509259476
aF-999.0
aF-999.0
aa(lp156
S'4_3'
p157
ag11
aS'891'
p158
aF486.8533468117101
aF2.7181483851233756
aF-999.0
aF-999.0
aa(lp159
S'4_3'
p160
ag11
aS'771'
p161
aF491.8323121747085
aF2.674699314504969
aF-999.0
aF-999.0
aa(lp162
S'4_3'
p163
ag11
aS'1791'
p164
aF485.3640543880118
aF2.3778535766244597
aF-999.0
aF-999.0
aa(lp165
S'4_3'
p166
ag11
aS'91'
p167
aF486.27832726801506
aF2.845125500352084
aF-999.0
aF-999.0
aa(lp168
S'4_3'
p169
ag11
aS'2331'
p170
aF490.6315222421953
aF2.4981448880647394
aF-999.0
aF-999.0
aa(lp171
S'4_3'
p172
ag11
aS'2211'
p173
aF491.7924444719837
aF1.719361257476498
aF-999.0
aF-999.0
aa(lp174
S'4_3'
p175
ag11
aS'51'
p176
aF492.3177778616359
aF2.599789734650273
aF-999.0
aF-999.0
aa(lp177
S'4_3'
p178
ag11
aS'1011'
p179
aF488.2194755841238
aF3.6587592089283967
aF-999.0
aF-999.0
aa(lp180
S'4_3'
p181
ag11
aS'2411'
p182
aF485.83728164331166
aF2.9892934784971654
aF-999.0
aF-999.0
aa(lp183
S'4_3'
p184
ag11
aS'2674'
p185
aF489.3910964739894
aF3.076663010054901
aF-999.0
aF-999.0
aa(lp186
S'4_3'
p187
ag11
aS'2371'
p188
aF487.37418340802805
aF1.9258576358565076
aF-999.0
aF-999.0
aa(lp189
S'4_3'
p190
ag11
aS'2251'
p191
aF484.7541041286582
aF2.739486744075539
aF-999.0
aF-999.0
aa(lp192
S'4_3'
p193
ag11
aS'291'
p194
aF486.4008612835151
aF2.1123017097844707
aF-999.0
aF-999.0
aa(lp195
S'5_6'
p196
ag11
aS'211'
p197
aF476.27710299243233
aF1.679417384519125
aF-999.0
aF-999.0
aa(lp198
S'5_6'
p199
ag11
aS'2291'
p200
aF477.67369552441556
aF3.621363952771047
aF-999.0
aF-999.0
aa(lp201
S'5_6'
p202
ag11
aS'2451'
p203
aF478.12647752280753
aF2.9871605931571237
aF-999.0
aF-999.0
aa(lp204
S'5_6'
p205
ag11
aS'131'
p206
aF478.8038533732783
aF5.819087416708081
aF-999.0
aF-999.0
aa(lp207
S'5_6'
p208
ag11
aS'1871'
p209
aF477.41045576636367
aF2.7482049398715547
aF-999.0
aF-999.0
aa(lp210
S'5_6'
p211
ag11
aS'251'
p212
aF475.94303425122024
aF2.655084415700957
aF-999.0
aF-999.0
aa(lp213
S'5_6'
p214
ag11
aS'171'
p215
aF478.09587895622667
aF2.944047460087744
aF-999.0
aF-999.0
aa(lp216
S'5_6'
p217
ag11
aS'1631'
p218
aF475.79861037223844
aF1.6703574818482476
aF-999.0
aF-999.0
aa(lp219
S'5_6'
p220
ag11
aS'1711'
p221
aF476.5959378509478
aF3.549294721140074
aF-999.0
aF-999.0
aa(lp222
S'5_6'
p223
ag11
aS'1831'
p224
aF478.55585092718604
aF3.724861658643592
aF-999.0
aF-999.0
aa(lp225
S'5_6'
p226
ag11
aS'851'
p227
aF481.1597895241062
aF2.6078319826925016
aF-999.0
aF-999.0
aa(lp228
S'5_6'
p229
ag11
aS'971'
p230
aF476.19002585235364
aF3.1314840695989643
aF-999.0
aF-999.0
aa(lp231
S'5_6'
p232
ag11
aS'sum'
p233
aF15.785482812557799
aF0.04180615736362397
aF-999.0
aF-999.0
aa(lp234
S'5_6'
p235
ag11
ag51
aF476.9247328257754
aF1.7509848709581113
aF-999.0
aF-999.0
aa(lp236
S'5_6'
p237
ag11
aS'811'
p238
aF481.46036215983173
aF2.620273623296568
aF-999.0
aF-999.0
aa(lp239
S'5_6'
p240
ag11
aS'931'
p241
aF478.49627956905823
aF1.8301718207054023
aF-999.0
aF-999.0
aa(lp242
S'5_6'
p243
ag11
aS'1671'
p244
aF478.96617658838716
aF4.1193660042333295
aF-999.0
aF-999.0
aa(lp245
S'5_6'
p246
ag11
aS'1751'
p247
aF481.2019898656429
aF3.0159833739657538
aF-999.0
aF-999.0
aa(lp248
S'5_6'
p249
ag11
aS'891'
p250
aF478.6958406597284
aF3.1703293389422607
aF-999.0
aF-999.0
aa(lp251
S'5_6'
p252
ag11
aS'771'
p253
aF477.3397988137022
aF1.657515780042829
aF-999.0
aF-999.0
aa(lp254
S'5_6'
p255
ag11
aS'1791'
p256
aF477.60552615787344
aF2.6782144829667796
aF-999.0
aF-999.0
aa(lp257
S'5_6'
p258
ag11
aS'91'
p259
aF481.88058167978437
aF3.033179748282229
aF-999.0
aF-999.0
aa(lp260
S'5_6'
p261
ag11
aS'2331'
p262
aF479.81204052211353
aF4.1263277235223565
aF-999.0
aF-999.0
aa(lp263
S'5_6'
p264
ag11
aS'2211'
p265
aF479.83916884507977
aF2.7273547640024205
aF-999.0
aF-999.0
aa(lp266
S'5_6'
p267
ag11
aS'51'
p268
aF481.9206924307519
aF1.7520920243830211
aF-999.0
aF-999.0
aa(lp269
S'5_6'
p270
ag11
aS'1011'
p271
aF478.01745465383004
aF2.807025215872014
aF-999.0
aF-999.0
aa(lp272
S'5_6'
p273
ag11
aS'2411'
p274
aF481.0409313221282
aF3.0082024042530167
aF-999.0
aF-999.0
aa(lp275
S'5_6'
p276
ag11
aS'2674'
p277
aF481.1079932163989
aF2.6452277775145974
aF-999.0
aF-999.0
aa(lp278
S'5_6'
p279
ag11
aS'2371'
p280
aF481.44905326367433
aF2.4645127447258917
aF-999.0
aF-999.0
aa(lp281
S'5_6'
p282
ag11
aS'2251'
p283
aF479.5961458395144
aF2.7462847637382475
aF-999.0
aF-999.0
aa(lp284
S'5_6'
p285
ag11
aS'291'
p286
aF478.013269872213
aF2.6705603599335954
aF-999.0
aF-999.0
aa(lp287
S'7_8'
p288
ag11
aS'211'
p289
aF488.03358867088804
aF2.7847453675385214
aF-999.0
aF-999.0
aa(lp290
S'7_8'
p291
ag11
aS'2291'
p292
aF490.52933747736074
aF41.30336273957826
aF-999.0
aF-999.0
aa(lp293
S'7_8'
p294
ag11
aS'2451'
p295
aF485.51319037721015
aF2.898935613989609
aF-999.0
aF-999.0
aa(lp296
S'7_8'
p297
ag11
aS'131'
p298
aF489.8946044689968
aF2.96443428068675
aF-999.0
aF-999.0
aa(lp299
S'7_8'
p300
ag11
aS'1871'
p301
aF482.89503783052515
aF4.441091437814332
aF-999.0
aF-999.0
aa(lp302
S'7_8'
p303
ag11
aS'251'
p304
aF482.8791117850441
aF2.626152831574825
aF-999.0
aF-999.0
aa(lp305
S'7_8'
p306
ag11
aS'171'
p307
aF489.67178064240306
aF3.115698014046233
aF-999.0
aF-999.0
aa(lp308
S'7_8'
p309
ag11
aS'1631'
p310
aF488.1938143405777
aF2.749249054659127
aF-999.0
aF-999.0
aa(lp311
S'7_8'
p312
ag11
aS'1711'
p313
aF484.3758481076262
aF3.964110802795688
aF-999.0
aF-999.0
aa(lp314
S'7_8'
p315
ag11
aS'1831'
p316
aF484.3018637854758
aF2.8828906875006894
aF-999.0
aF-999.0
aa(lp317
S'7_8'
p318
ag11
aS'851'
p319
aF486.0199914894969
aF2.5204828997945983
aF-999.0
aF-999.0
aa(lp320
S'7_8'
p321
ag11
aS'971'
p322
aF489.552968750034
aF2.769348462870597
aF-999.0
aF-999.0
aa(lp323
S'7_8'
p324
ag11
aS'sum'
p325
aF15.985281340326837
aF0.016253639296562632
aF-999.0
aF-999.0
aa(lp326
S'7_8'
p327
ag11
ag51
aF486.63211279792523
aF2.04316800902636
aF-999.0
aF-999.0
aa(lp328
S'7_8'
p329
ag11
aS'811'
p330
aF484.65688099875814
aF2.847124924414521
aF-999.0
aF-999.0
aa(lp331
S'7_8'
p332
ag11
aS'931'
p333
aF487.59650904006156
aF2.5924680293331464
aF-999.0
aF-999.0
aa(lp334
S'7_8'
p335
ag11
aS'1671'
p336
aF482.76931669800666
aF3.499865891489916
aF-999.0
aF-999.0
aa(lp337
S'7_8'
p338
ag11
aS'1751'
p339
aF481.28422294681303
aF2.874826293808242
aF-999.0
aF-999.0
aa(lp340
S'7_8'
p341
ag11
aS'891'
p342
aF487.2518617361317
aF2.6282168149262097
aF-999.0
aF-999.0
aa(lp343
S'7_8'
p344
ag11
aS'771'
p345
aF486.7453943314108
aF1.891998958469911
aF-999.0
aF-999.0
aa(lp346
S'7_8'
p347
ag11
aS'1791'
p348
aF487.8326515132457
aF2.554426214966928
aF-999.0
aF-999.0
aa(lp349
S'7_8'
p350
ag11
aS'91'
p351
aF483.00890630789957
aF7.757251467599523
aF-999.0
aF-999.0
aa(lp352
S'7_8'
p353
ag11
aS'2331'
p354
aF482.879526183331
aF3.5296825331674135
aF-999.0
aF-999.0
aa(lp355
S'7_8'
p356
ag11
aS'2211'
p357
aF486.7517540501001
aF6.568014174628221
aF-999.0
aF-999.0
aa(lp358
S'7_8'
p359
ag11
aS'51'
p360
aF482.4305305723511
aF8.197069650440149
aF-999.0
aF-999.0
aa(lp361
S'7_8'
p362
ag11
aS'1011'
p363
aF490.9613586988438
aF4.349826076907391
aF-999.0
aF-999.0
aa(lp364
S'7_8'
p365
ag11
aS'2411'
p366
aF486.9331451288968
aF2.9633724585861247
aF-999.0
aF-999.0
aa(lp367
S'7_8'
p368
ag11
aS'2674'
p369
aF485.419464176242
aF3.4971291262524797
aF-999.0
aF-999.0
aa(lp370
S'7_8'
p371
ag11
aS'2371'
p372
aF486.6707879330061
aF1.8231466201243731
aF-999.0
aF-999.0
aa(lp373
S'7_8'
p374
ag11
aS'2251'
p375
aF487.7081006252784
aF3.463320907476085
aF-999.0
aF-999.0
aa(lp376
S'7_8'
p377
ag11
aS'291'
p378
aF487.08542228421425
aF3.680442362969303
aF-999.0
aF-999.0
aa(lp379
S'9_10'
p380
ag11
aS'211'
p381
aF484.80978135614413
aF2.5333448503361438
aF-999.0
aF-999.0
aa(lp382
S'9_10'
p383
ag11
aS'2291'
p384
aF485.5138472844448
aF2.9399741705288607
aF-999.0
aF-999.0
aa(lp385
S'9_10'
p386
ag11
aS'2451'
p387
aF486.24674430710456
aF2.8490354380724066
aF-999.0
aF-999.0
aa(lp388
S'9_10'
p389
ag11
aS'131'
p390
aF486.2572232479442
aF2.9478638737498364
aF-999.0
aF-999.0
aa(lp391
S'9_10'
p392
ag11
aS'1871'
p393
aF487.5875236324382
aF2.6058475345447953
aF-999.0
aF-999.0
aa(lp394
S'9_10'
p395
ag11
aS'251'
p396
aF484.2569057722608
aF2.7400874451354014
aF-999.0
aF-999.0
aa(lp397
S'9_10'
p398
ag11
aS'171'
p399
aF486.295657051107
aF2.659226567869551
aF-999.0
aF-999.0
aa(lp400
S'9_10'
p401
ag11
aS'1631'
p402
aF488.5873703418439
aF2.6774048895818523
aF-999.0
aF-999.0
aa(lp403
S'9_10'
p404
ag11
aS'1711'
p405
aF485.03663210596983
aF3.0300196148074914
aF-999.0
aF-999.0
aa(lp406
S'9_10'
p407
ag11
aS'1831'
p408
aF484.1256055378442
aF2.957338894441444
aF-999.0
aF-999.0
aa(lp409
S'9_10'
p410
ag11
aS'851'
p411
aF483.8121335038384
aF3.9264398735628014
aF-999.0
aF-999.0
aa(lp412
S'9_10'
p413
ag11
aS'971'
p414
aF484.82024902121447
aF3.021436266696986
aF-999.0
aF-999.0
aa(lp415
S'9_10'
p416
ag11
aS'sum'
p417
aF15.92228384521001
aF0.01702056263424146
aF-999.0
aF-999.0
aa(lp418
S'9_10'
p419
ag11
ag51
aF489.31057744664287
aF5.756301665059942
aF-999.0
aF-999.0
aa(lp420
S'9_10'
p421
ag11
aS'811'
p422
aF485.00555194265854
aF2.555665406454841
aF-999.0
aF-999.0
aa(lp423
S'9_10'
p424
ag11
aS'931'
p425
aF488.3633993698333
aF2.823672800160519
aF-999.0
aF-999.0
aa(lp426
S'9_10'
p427
ag11
aS'1671'
p428
aF483.7817171037737
aF2.7298499259730247
aF-999.0
aF-999.0
aa(lp429
S'9_10'
p430
ag11
aS'1751'
p431
aF482.2145185001504
aF3.7978730431300596
aF-999.0
aF-999.0
aa(lp432
S'9_10'
p433
ag11
aS'891'
p434
aF486.86799763438233
aF3.061024810941246
aF-999.0
aF-999.0
aa(lp435
S'9_10'
p436
ag11
aS'771'
p437
aF488.56797579537294
aF3.7821349187495943
aF-999.0
aF-999.0
aa(lp438
S'9_10'
p439
ag11
aS'1791'
p440
aF485.7303160393777
aF2.664510669619877
aF-999.0
aF-999.0
aa(lp441
S'9_10'
p442
ag11
aS'91'
p443
aF485.6908343963347
aF2.843704077987869
aF-999.0
aF-999.0
aa(lp444
S'9_10'
p445
ag11
aS'2331'
p446
aF484.12756591391457
aF3.0022412408949855
aF-999.0
aF-999.0
aa(lp447
S'9_10'
p448
ag11
aS'2211'
p449
aF485.127939361873
aF2.41058531737523
aF-999.0
aF-999.0
aa(lp450
S'9_10'
p451
ag11
aS'51'
p452
aF487.97161129691244
aF2.4140960180274273
aF-999.0
aF-999.0
aa(lp453
S'9_10'
p454
ag11
aS'1011'
p455
aF486.2358718827353
aF3.0855970197854012
aF-999.0
aF-999.0
aa(lp456
S'9_10'
p457
ag11
aS'2411'
p458
aF488.5942982887638
aF2.754494895122531
aF-999.0
aF-999.0
aa(lp459
S'9_10'
p460
ag11
aS'2674'
p461
aF486.1866967127705
aF3.1842595208282427
aF-999.0
aF-999.0
aa(lp462
S'9_10'
p463
ag11
aS'2371'
p464
aF487.9860459687496
aF2.4913742743937908
aF-999.0
aF-999.0
aa(lp465
S'9_10'
p466
ag11
aS'2251'
p467
aF485.8667096412155
aF3.055483578593725
aF-999.0
aF-999.0
aa(lp468
S'9_10'
p469
ag11
aS'291'
p470
aF483.5039988291817
aF3.2728610648777687
aF-999.0
aF-999.0
aa.