(lp0
(lp1
S'Scan'
p2
aS'Type'
p3
aS'BCID'
p4
aS'sigma'
p5
aS'sigmaErr'
p6
aS'sigmaRatio'
p7
aS'sigmaRatio_Err'
p8
aS'Amp'
p9
aS'AmpErr'
p10
aS'Frac'
p11
aS'FracErr'
p12
aS'Mean'
p13
aS'MeanErr'
p14
aS'CapSigma'
p15
aS'CapSigmaErr'
p16
aS'peak'
p17
aS'peakErr'
p18
aS'area'
p19
aS'areaErr'
p20
aS'fitStatus'
p21
aS'chi2'
p22
aS'ndof'
p23
aa(lp24
S'1'
p25
aS'X'
p26
aS'51'
p27
aF0.12618540714522952
aF0.0
aF0.8243689973041668
aF0.05231836740355256
aF0.28029772609343134
aF0.0009699763200901879
aF0.8913633271876773
aF0.11250118061775854
aF-0.003964162860657908
aF0.00031488891280661755
aF0.12618540714522952
aF0.0
aF0.28029772609343134
aF0.0009699763200901879
aF0.08865814536727312
aF0.00030680342216084716
aI0
aF45.34610548831205
aI19
aa(lp28
g25
ag26
aS'771'
p29
aF0.12520404617728964
aF0.0
aF0.7500844817458109
aF0.03832486139559799
aF0.28199256116320887
aF0.0009347961523774873
aF0.9411704409872208
aF0.033990035398167806
aF-0.00361530947114794
aF0.0003039355884104017
aF0.12520404617728964
aF0.0
aF0.28199256116320887
aF0.0009347961523774873
aF0.08850054602887304
aF0.00029337642656188936
aI0
aF28.52327130585176
aI20
aa(lp30
g25
ag26
aS'1631'
p31
aF0.12362885117771596
aF0.0
aF0.780986791336195
aF0.07358626800257084
aF0.291147170983693
aF0.0010294522062973543
aF0.9529863351704619
aF0.054237443064862834
aF-0.003512282723016211
aF0.00031948241616934145
aF0.12362885117771596
aF0.0
aF0.291147170983693
aF0.0010294522062973543
aF0.09022405505913568
aF0.00031901856448717967
aI0
aF25.403518219199565
aI19
aa(lp32
g25
ag26
aS'2211'
p33
aF0.12345798690621652
aF0.0
aF0.7578816484039621
aF0.042337079231573205
aF0.2895439100172023
aF0.0009724705195525429
aF0.9410555036151511
aF0.0376900315801697
aF-0.00304720761015772
aF0.0003064650192418529
aF0.12345798690621652
aF0.0
aF0.2895439100172023
aF0.0009724705195525429
aF0.0896032083029877
aF0.0003009439173726853
aI0
aF59.22323798066994
aI18
aa(lp34
g25
ag26
aS'2674'
p35
aF0.12070532404074405
aF0.0
aF0.6652884497204469
aF0.06182494692174251
aF0.3048537900175594
aF0.0010843633626742288
aF0.9840688968949458
aF0.011903165980200359
aF-0.004823790043274438
aF0.0003240612146067158
aF0.12070532404074405
aF0.0
aF0.3048537900175594
aF0.0010843633626742288
aF0.09223759254619807
aF0.00032808864214090857
aI0
aF25.65084655999241
aI19
aa(lp36
g25
ag26
aS'sum'
p37
aF-1.5254307331864972e-05
aF0.0
aF1.0046156655612157
aF1.4232455514761852e-07
aF0.22359633155799263
aF9.979117821026694e-08
aF0.26914494845182263
aF2.211275322446331e-08
aF-1.3138869954720395e-05
aF3.810594378347792e-08
aF-1.5254307331864972e-05
aF0.0
aF0.22359633155799263
aF9.979117821026694e-08
aF-8.54962566622695e-06
aF3.8157031134844146e-12
aI0
aF1.4670100743905164e-14
aI20
aa(lp38
S'10'
p39
aS'Y'
p40
aS'51'
p41
aF0.11269849565594803
aF0.0
aF0.651817709631258
aF0.04675465869672735
aF0.29068846991021485
aF0.0009902967120211381
aF0.9845630085403052
aF0.008787195083640342
aF-0.005077931929076428
aF0.0002948818156230147
aF0.11269849565594803
aF0.0
aF0.29068846991021485
aF0.0009902967120211381
aF0.08211752645130986
aF0.0002797521225013107
aI0
aF33.781489849841925
aI18
aa(lp42
S'10'
p43
ag40
aS'771'
p44
aF0.11268673672307669
aF0.0
aF0.656746564540395
aF0.050737901339524105
aF0.2920819275430397
aF0.0009612880402456447
aF0.9867401429171303
aF0.008335834677293597
aF-0.005099008804406214
aF0.0002852392937620148
aF0.11268673672307669
aF0.0
aF0.2920819275430397
aF0.0009612880402456447
aF0.08250255961211243
aF0.0002715290347195155
aI0
aF26.168812971430043
aI18
aa(lp45
S'10'
p46
ag40
aS'1631'
p47
aF0.11096992409574018
aF0.0
aF0.595498374447597
aF0.06692717887453559
aF0.30110374194672995
aF0.0010552080663333019
aF0.9927410798980153
aF0.005389952153815658
aF-0.004692541807659415
aF0.0003000938636223311
aF0.11096992409574018
aF0.0
aF0.30110374194672995
aF0.0010552080663333019
aF0.08375512205713045
aF0.00029351704439146417
aI0
aF28.460861891799308
aI19
aa(lp48
S'10'
p49
ag40
aS'2211'
p50
aF0.11134890183370962
aF0.0
aF0.5781707933689283
aF0.06252745480169669
aF0.29806417270334173
aF0.0009965461552644272
aF0.9928855232926161
aF0.004654499840618498
aF-0.005060002129043336
aF0.000288976309899965
aF0.11134890183370962
aF0.0
aF0.29806417270334173
aF0.0009965461552644272
aF0.08319278235712184
aF0.00027814630202555225
aI0
aF27.8658229230939
aI17
aa(lp51
S'10'
p52
ag40
aS'2674'
p53
aF0.10904197663889234
aF0.0
aF1.716381647868781
aF0.26968245865544516
aF0.31305256476635834
aF0.0011203452001911085
aF0.003349671535422538
aF0.0036594529126096065
aF-0.005091063528577489
aF0.00030610816628936653
aF0.10904197663889234
aF0.0
aF0.31305256476635834
aF0.0011203452001911085
aF0.08556593805913379
aF0.00030622137875134904
aI0
aF26.473883720022968
aI19
aa(lp54
S'10'
p55
ag40
aS'sum'
p56
aF1.0796108182577608e-05
aF0.0
aF1.0000000218083227
aF1.2028633722977044e-06
aF0.22000014540552887
aF8.594517021575976e-07
aF0.7379198211154754
aF1.871980511041859e-07
aF-1.4098448263050808e-05
aF3.2379811307827126e-07
aF1.0796108182577608e-05
aF0.0
aF0.22000014540552887
aF8.594517021575976e-07
aF5.953606540753016e-06
aF2.3258335879709804e-11
aI0
aF1.0484532287150467e-12
aI20
aa(lp57
S'2'
p58
ag40
aS'51'
p59
aF0.116290191596529
aF0.0
aF1.5921047269847688
aF0.20364056987209533
aF0.28275147877650453
aF0.0009631591841992582
aF0.0062933302023177595
aF0.005889421497700331
aF-0.006684040846339784
aF0.0002945138911360488
aF0.116290191596529
aF0.0
aF0.28275147877650453
aF0.0009631591841992582
aF0.08242100488330072
aF0.0002807573214746332
aI0
aF31.222225046033998
aI17
aa(lp60
g58
ag40
aS'771'
p61
aF0.11640618480182938
aF0.0
aF0.9999993795145429
aF0.0004788601076843868
aF0.2838004362349089
aF0.0008629732766258225
aF0.5251084187480836
aF0.6344717213352178
aF-0.0073918059692970085
aF0.00029066696249915413
aF0.11640618480182938
aF0.0
aF0.2838004362349089
aF0.0008629732766258225
aF0.08280928758405412
aF0.00025180441295132516
aI0
aF33.83849632552279
aI20
aa(lp62
g58
ag40
aS'1631'
p63
aF0.11391263818305515
aF0.0
aF1.000453009380175
aF9.127821475679315
aF0.2944714179429421
aF8.091054076755921e-05
aF1.0203504707817501e-12
aF0.9988308313108328
aF-0.006574285570417092
aF3.12702727702231e-05
aF0.11391263818305515
aF0.0
aF0.2944714179429421
aF8.091054076755921e-05
aF0.08408237916931784
aF2.310292392768206e-05
aI0
aF48.079279027203555
aI18
aa(lp64
g58
ag40
aS'2211'
p65
aF0.11476845366405211
aF0.0
aF0.9999996935739697
aF0.0004904795103282122
aF0.2912125149656562
aF0.0009050151611323387
aF0.8449083899440184
aF0.7271041990001468
aF-0.006681715920738992
aF0.00029293763558643424
aF0.11476845366405211
aF0.0
aF0.2912125149656562
aF0.0009050151611323387
aF0.08377655533677038
aF0.000260356436728556
aI0
aF32.52290421482526
aI17
aa(lp66
g58
ag40
aS'2674'
p67
aF0.11110658084937487
aF0.0
aF0.5356499214359045
aF0.15427676185236971
aF0.31015270862515654
aF0.0010809989766680517
aF0.9986127248988119
aF0.002188852237116956
aF-0.006569935696332381
aF0.0003073030030678277
aF0.11110658084937487
aF0.0
aF0.31015270862515654
aF0.0010809989766680517
aF0.08637842788144298
aF0.0003010613467151301
aI0
aF38.717935072946986
aI16
aa(lp68
g58
ag40
aS'sum'
p69
aF1.0796108182577608e-05
aF0.0
aF1.0000000218083227
aF1.2028633722977044e-06
aF0.22000014540552887
aF8.594517021575976e-07
aF0.7379198211154754
aF1.871980511041859e-07
aF-1.4098448263050808e-05
aF3.2379811307827126e-07
aF1.0796108182577608e-05
aF0.0
aF0.22000014540552887
aF8.594517021575976e-07
aF5.953606540753016e-06
aF2.3258335879709804e-11
aI0
aF1.0484532287150467e-12
aI20
aa(lp70
S'3'
p71
ag40
aS'51'
p72
aF0.1157978344274915
aF0.0
aF0.6992043722541792
aF0.0906236870017017
aF0.2822495612558232
aF0.0009583040916349428
aF0.9886839169865157
aF0.013531616490248477
aF-0.0005576438471657719
aF0.00029999675015826663
aF0.1157978344274915
aF0.0
aF0.2822495612558232
aF0.0009583040916349428
aF0.08192635768925272
aF0.00027815938291290775
aI0
aF32.69575902152901
aI18
aa(lp73
g71
ag40
aS'771'
p74
aF0.11630130990468057
aF0.0
aF0.9999997737591985
aF0.0005436977820899025
aF0.28170043497035807
aF0.0008654698511002257
aF0.21356172311120508
aF0.5367340613464299
aF-0.00019643873336713178
aF0.0002894533961371774
aF0.11630130990468057
aF0.0
aF0.28170043497035807
aF0.0008654698511002257
aF0.08212248036183148
aF0.0002523053642363539
aI0
aF25.706646285118584
aI17
aa(lp75
g71
ag40
aS'1631'
p76
aF0.11351084590202146
aF0.0
aF0.7068080897110225
aF0.11622537439395891
aF0.2953417193399253
aF0.0010265142661455284
aF0.9914992631075705
aF0.013073450704894629
aF-0.0003158313759040767
aF0.00030326438513543475
aF0.11351084590202146
aF0.0
aF0.2953417193399253
aF0.0010265142661455284
aF0.08403343049700966
aF0.00029207358659358903
aI0
aF27.70937761575027
aI16
aa(lp77
g71
ag40
aS'2211'
p78
aF0.11432673851910481
aF0.0
aF0.9999994634841556
aF0.0004471288842635146
aF0.2918447224616579
aF0.0009121694340543385
aF0.90698585560013
aF0.9466395127944447
aF-0.000422950527188053
aF0.0002911748384883696
aF0.11432673851910481
aF0.0
aF0.2918447224616579
aF0.0009121694340543385
aF0.08363529490902978
aF0.00026140462291265247
aI0
aF16.36078138095842
aI17
aa(lp79
g71
ag40
aS'2674'
p80
aF0.11050533956041614
aF0.0
aF0.9999995486714716
aF0.00039164371816757804
aF0.3107718428674423
aF0.001052207130129157
aF0.8966374433686992
aF0.9392942877303653
aF-0.0001847230412600656
aF0.0003050211225441699
aF0.11050533956041614
aF0.0
aF0.3107718428674423
aF0.001052207130129157
aF0.08608249791756008
aF0.0002914569648667298
aI0
aF33.28570798722245
aI17
aa(lp81
g71
ag40
aS'sum'
p82
aF1.0796108182577608e-05
aF0.0
aF1.0000000218083227
aF1.2028633722977044e-06
aF0.22000014540552887
aF8.594517021575976e-07
aF0.7379198211154754
aF1.871980511041859e-07
aF-1.4098448263050808e-05
aF3.2379811307827126e-07
aF1.0796108182577608e-05
aF0.0
aF0.22000014540552887
aF8.594517021575976e-07
aF5.953606540753016e-06
aF2.3258335879709804e-11
aI0
aF1.0484532287150467e-12
aI20
aa(lp83
S'4'
p84
ag26
aS'51'
p85
aF0.1262161550821467
aF0.0
aF0.6736606819973628
aF0.05983282658948047
aF0.28352095167080443
aF0.0009180569561219876
aF0.9874725754766618
aF0.009506262236103347
aF-0.0055926797473415625
aF0.0003128867673217205
aF0.1262161550821467
aF0.0
aF0.28352095167080443
aF0.0009180569561219876
aF0.0896995033194069
aF0.00029045209004054264
aI0
aF46.31051638404015
aI20
aa(lp86
g84
ag26
aS'771'
p87
aF0.12547725881344152
aF0.0
aF0.7864609379451378
aF0.047408073069515944
aF0.2835980424486876
aF0.0009356574507307092
aF0.9297540174487404
aF0.055437553180024524
aF-0.005102037541287573
aF0.0003030698429163602
aF0.12547725881344152
aF0.0
aF0.2835980424486876
aF0.0009356574507307092
aF0.08919863027682123
aF0.00029428751444425863
aI0
aF27.969842670092582
aI19
aa(lp88
g84
ag26
aS'1631'
p89
aF0.12332540434286851
aF0.0
aF0.7001962991404571
aF0.054315782091689024
aF0.2963090870281658
aF0.001006620018694282
aF0.9787888382942249
aF0.01513212413985976
aF-0.0054360934516769445
aF0.0003159515917166351
aF0.12332540434286851
aF0.0
aF0.2963090870281658
aF0.001006620018694282
aF0.09159830823507652
aF0.00031117739814436664
aI0
aF20.94256925971622
aI19
aa(lp90
g84
ag26
aS'2211'
p91
aF0.12401666849951931
aF0.0
aF0.7224484828605249
aF0.03856935606251122
aF0.29182426617446827
aF0.0009625768413979163
aF0.9609573732471617
aF0.02090362652998662
aF-0.0054073317115618845
aF0.000305843007989851
aF0.12401666849951931
aF0.0
aF0.29182426617446827
aF0.0009625768413979163
aF0.09071756756856535
aF0.00029923018669477443
aI0
aF28.326099072813566
aI19
aa(lp92
g84
ag26
aS'2674'
p93
aF0.11957367734324745
aF0.0
aF0.7676331787141564
aF0.025758865010486243
aF0.3120918753982113
aF0.0011432817951518015
aF0.8976676867041662
aF0.04604409617838273
aF-0.0073831854154621235
aF0.0003201130294721901
aF0.11957367734324745
aF0.0
aF0.3120918753982113
aF0.0011432817951518015
aF0.09354228680089705
aF0.00034267214883398775
aI0
aF30.500769476550687
aI19
aa(lp94
g84
ag26
aS'sum'
p95
aF-1.5254307331864972e-05
aF0.0
aF1.0046156655612157
aF1.4232455514761852e-07
aF0.22359633155799263
aF9.979117821026694e-08
aF0.26914494845182263
aF2.211275322446331e-08
aF-1.3138869954720395e-05
aF3.810594378347792e-08
aF-1.5254307331864972e-05
aF0.0
aF0.22359633155799263
aF9.979117821026694e-08
aF-8.54962566622695e-06
aF3.8157031134844146e-12
aI0
aF1.4670100743905164e-14
aI20
aa(lp96
S'5'
p97
ag26
aS'51'
p98
aF0.12499358918116477
aF0.0
aF0.6326418733634158
aF0.07865090082943571
aF0.28520861153366317
aF0.0009648807623557909
aF0.9758078854364545
aF0.01744522970402307
aF-0.008687134196236946
aF0.00031399593565560434
aF0.12499358918116477
aF0.0
aF0.28520861153366317
aF0.0009648807623557909
aF0.0893594130586944
aF0.00030230916988129714
aI0
aF35.36264907480248
aI14
aa(lp99
g97
ag26
aS'771'
p100
aF0.124093249784392
aF0.0
aF1.7873872069229968
aF0.3073849039475044
aF0.28674012559811
aF0.0009407552581267575
aF0.014114417329069873
aF0.01051005304456426
aF-0.009272776442717621
aF0.0003024057329242703
aF0.124093249784392
aF0.0
aF0.28674012559811
aF0.0009407552581267575
aF0.08919213574768149
aF0.0002926272369908593
aI0
aF35.529293477997626
aI14
aa(lp101
g97
ag26
aS'1631'
p102
aF0.12201128838020696
aF0.0
aF1.7312244509789967
aF0.2589641680185073
aF0.2979285797020784
aF0.0010374008204442065
aF0.016185422723143328
aF0.011512328989284976
aF-0.009755549125260015
aF0.00031726766345092406
aF0.12201128838020696
aF0.0
aF0.2979285797020784
aF0.0010374008204442065
aF0.09111756672709194
aF0.00031727549795353003
aI0
aF26.820049949749606
aI14
aa(lp103
g97
ag26
aS'2211'
p104
aF0.12270839474886915
aF0.0
aF1.5209803789265133
aF0.12323094169974114
aF0.2932003007711137
aF0.0010124878837124984
aF0.047343058012498884
aF0.025713094621940075
aF-0.009348161322150923
aF0.00030751986771222116
aF0.12270839474886915
aF0.0
aF0.2932003007711137
aF0.0010124878837124984
aF0.09018381859978904
aF0.00031142540917955357
aI0
aF15.847472514742247
aI14
aa(lp105
g97
ag26
aS'2674'
p106
aF0.11962993983672678
aF0.0
aF1.690692379212822
aF0.22010641410005294
aF0.3100023579547229
aF0.0011204243146530346
aF0.018303295424673405
aF0.012278703153358272
aF-0.010980758018289532
aF0.00032347718633378496
aF0.11962993983672678
aF0.0
aF0.3100023579547229
aF0.0011204243146530346
aF0.09295972187768584
aF0.0003359791627467395
aI0
aF20.906792121163218
aI14
aa(lp107
g97
ag26
aS'sum'
p108
aF-4.748970432301021e-06
aF0.0
aF0.10140959018504193
aF0.00036137403173661147
aF0.34249209282436244
aF0.00020852127612079512
aF0.9959373322120634
aF3.7717752022203446e-05
aF5.081958980994549e-05
aF4.080849615457986e-06
aF-4.748970432301021e-06
aF0.0
aF0.34249209282436244
aF0.00020852127612079512
aF-4.076992843383648e-06
aF2.482217161357001e-09
aI0
aF3.630103765491077e-08
aI14
aa(lp109
S'6'
p110
ag40
aS'51'
p111
aF0.11408882251027402
aF0.0
aF2.274381462635254
aF1.294956118655437
aF0.2849780782827662
aF0.000997155983366721
aF0.002030900049234341
aF0.003422793954553499
aF-0.006890233921105857
aF0.00030247324432593155
aF0.11408882251027402
aF0.0
aF0.2849780782827662
aF0.000997155983366721
aF0.08149753733749582
aF0.0002851649413717419
aI0
aF23.53744600971645
aI14
aa(lp112
g110
ag40
aS'771'
p113
aF0.1145844327421514
aF0.0
aF0.10000000026773759
aF0.6771367149858833
aF0.2859203476401303
aF0.0008841928463246829
aF0.99934478271996
aF0.00013097738935047287
aF-0.0068462335750195105
aF0.00029140734619594635
aF0.1145844327421514
aF0.0
aF0.2859203476401303
aF0.0008841928463246829
aF0.08212220778107679
aF0.00025395838121954593
aI0
aF19.39898583877318
aI14
aa(lp114
g110
ag40
aS'1631'
p115
aF0.11209032219681558
aF0.0
aF0.4339203910355247
aF0.20771964301034995
aF0.29483253013027505
aF0.001031703280740509
aF0.9986786956445397
aF0.0019139619270375219
aF-0.0075286174785885
aF0.00030791348991884545
aF0.11209032219681558
aF0.0
aF0.29483253013027505
aF0.001031703280740509
aF0.08283873362119125
aF0.00028987640275517925
aI0
aF27.31784824872917
aI14
aa(lp116
g110
ag40
aS'2211'
p117
aF0.11284413624551257
aF0.0
aF1.5731982759285517
aF0.29249029910585145
aF0.2917414654481593
aF0.0010165548490185528
aF0.009547378567940079
aF0.011475777468096054
aF-0.007038976471847162
aF0.000297333834200622
aF0.11284413624551257
aF0.0
aF0.2917414654481593
aF0.0010165548490185528
aF0.08252149569699847
aF0.0002875409790314971
aI0
aF33.10216704587185
aI14
aa(lp118
g110
ag40
aS'2674'
p119
aF0.10976996085628538
aF0.0
aF2.8192932811101357
aF1.8677778964125555
aF0.3109498234815008
aF0.0011217750097360923
aF0.0010044236142162655
aF0.0014149725925481638
aF-0.007248507435830026
aF0.00031164489008692796
aF0.10976996085628538
aF0.0
aF0.3109498234815008
aF0.0011217750097360923
aF0.0855586174458299
aF0.00030865918444238126
aI0
aF29.240233774464848
aI14
aa(lp120
g110
ag40
aS'sum'
p121
aF-9.89727278439024e-07
aF0.0
aF1.0000000000000004
aF9.416543018353503
aF1.1
aF2.869063643877152
aF0.99
aF0.7559345301357088
aF0.0
aF1.4142135623730951
aF-9.89727278439024e-07
aF0.0
aF1.1
aF2.869063643877152
aF-2.7289662183397315e-06
aF7.1177979658249465e-06
aI4
aF0.0
aI14
aa(lp122
S'7'
p123
ag26
aS'51'
p124
aF0.12725435262150264
aF0.0
aF2.0929167562078694
aF0.7240040261126832
aF0.28457387325165995
aF0.0009608199328996758
aF0.007406515816806125
aF0.007658962117458312
aF0.017955477686712126
aF0.000318664373671827
aF0.12725435262150264
aF0.0
aF0.28457387325165995
aF0.0009608199328996758
aF0.09077319149325112
aF0.00030648172568711456
aI0
aF21.309686641568902
aI14
aa(lp125
g123
ag26
aS'771'
p126
aF0.12641784303994832
aF0.0
aF2.3253362527224986
aF0.7701113435466498
aF0.28473237090658116
aF0.0009234781575148121
aF0.006499330581248963
aF0.005216667794093771
aF0.017747208855184538
aF0.00030796401300706264
aF0.12641784303994832
aF0.0
aF0.28473237090658116
aF0.0009234781575148121
aF0.09022671685097045
aF0.0002926341039863092
aI0
aF28.02647207472938
aI14
aa(lp127
g123
ag26
aS'1631'
p128
aF0.1237240565156119
aF0.0
aF1.3448694179182865
aF0.09814280759675797
aF0.297972208156028
aF0.0011031242804502017
aF0.10030498160621854
aF0.07478457159351001
aF0.018607061581797476
aF0.0003227675418090722
aF0.1237240565156119
aF0.0
aF0.297972208156028
aF0.0011031242804502017
aF0.09241018596695645
aF0.00034211217392357974
aI0
aF13.784754515696529
aI14
aa(lp129
g123
ag26
aS'2211'
p130
aF0.12466693282339321
aF0.0
aF1.5139101389682108
aF0.12327402321455927
aF0.29247608603757314
aF0.0009977916315414004
aF0.045345328675016006
aF0.024805988110494392
aF0.018507788232521884
aF0.00031272822935694995
aF0.12466693282339321
aF0.0
aF0.29247608603757314
aF0.0009977916315414004
aF0.09139692221592904
aF0.0003118035575871966
aI0
aF35.21871541495727
aI14
aa(lp131
g123
ag26
aS'2674'
p132
aF0.12125829548593652
aF0.0
aF1.4130075630575538
aF0.09329948727306081
aF0.3118024391169646
aF0.0011597961869432571
aF0.07213933339917156
aF0.04118539280209346
aF0.019592857351259242
aF0.0003281777555223282
aF0.12125829548593652
aF0.0
aF0.3118024391169646
aF0.0011597961869432571
aF0.09477218673747982
aF0.0003525194386474031
aI0
aF19.490812608183802
aI14
aa(lp133
g123
ag26
aS'sum'
p134
aF-1.0620403339447118e-06
aF0.0
aF1.0000000000000004
aF9.449419773614226
aF1.1
aF2.869063643877152
aF0.99
aF0.7559345301357088
aF0.0
aF1.4142135623730951
aF-1.0620403339447118e-06
aF0.0
aF1.1
aF2.869063643877152
aF-2.928354362850801e-06
aF7.637850035312976e-06
aI4
aF0.0
aI14
aa(lp135
S'8'
p136
ag40
aS'51'
p137
aF0.11435590057157552
aF0.0
aF3.6829564343510457
aF6.741053903126519
aF0.284463186999303
aF0.000982080882692582
aF0.0009160324932812047
aF0.0016722577033553565
aF0.00914540239385412
aF0.00029786505248452825
aF0.11435590057157552
aF0.0
aF0.284463186999303
aF0.000982080882692582
aF0.08154072788683282
aF0.0002815112593767454
aI0
aF15.981825978762709
aI14
aa(lp138
g136
ag40
aS'771'
p139
aF0.11398514205604153
aF0.0
aF2.1715478043424326
aF0.8933910682219689
aF0.2868906459868315
aF0.0009471334643407492
aF0.002008667145430687
aF0.002735250884508711
aF0.009648976935712563
aF0.00028674930809200627
aF0.11398514205604153
aF0.0
aF0.2868906459868315
aF0.0009471334643407492
aF0.08196993059861465
aF0.00027061343904255514
aI0
aF38.429549551271954
aI14
aa(lp140
g136
ag40
aS'1631'
p141
aF0.11244516362890836
aF0.0
aF9.999992347071863
aF9.415312212127208
aF0.29776304598820297
aF0.0010102819855654366
aF0.0005560850758428715
aF0.0001251549335750668
aF0.008986792747448494
aF0.00030087448235736414
aF0.11244516362890836
aF0.0
aF0.29776304598820297
aF0.0010102819855654366
aF0.08392696405879722
aF0.0002847562887140803
aI0
aF22.274379718831813
aI14
aa(lp142
g136
ag40
aS'2211'
p143
aF0.1127990122142687
aF0.0
aF1.8277303295279905
aF0.6738627529201462
aF0.29388397066707056
aF0.0010070208778245326
aF0.0031591625941697066
aF0.0054389135195312965
aF0.009435476951473695
aF0.00029007499105871597
aF0.1127990122142687
aF0.0
aF0.29388397066707056
aF0.0010070208778245326
aF0.0830942801136443
aF0.0002847303128248352
aI0
aF18.880854214393338
aI14
aa(lp144
g136
ag40
aS'2674'
p145
aF0.10949474339134992
aF0.0
aF0.68851156804418
aF0.07988032548876922
aF0.30964046058528893
aF0.0011681799686317496
aF0.9813877601636649
aF0.017575399424716698
aF0.009776795113023894
aF0.00030702850217398343
aF0.10949474339134992
aF0.0
aF0.30964046058528893
aF0.0011681799686317496
aF0.08498473197989934
aF0.0003206217344813404
aI0
aF38.58328484513407
aI14
aa(lp146
g136
ag40
aS'sum'
p147
aF-9.835042868929452e-07
aF0.0
aF1.0000000000000004
aF5.2509072170288285
aF1.1
aF2.869063643877152
aF0.99
aF0.7559345301357088
aF0.0
aF1.4142135623730951
aF-9.835042868929452e-07
aF0.0
aF1.1
aF2.869063643877152
aF-2.711807619121321e-06
aF7.073044226554583e-06
aI4
aF0.0
aI14
aa(lp148
S'9'
p149
ag26
aS'51'
p150
aF0.12617049501113628
aF0.0
aF0.7782736026608256
aF0.011954535207542472
aF0.289533237044112
aF0.0010094783354967773
aF0.7785614983289508
aF0.06538408841479626
aF-0.019802058524373597
aF0.0003148804833573514
aF0.12617049501113628
aF0.0
aF0.289533237044112
aF0.0010094783354967773
aF0.09156851413009841
aF0.00031926017258558013
aI0
aF24.824016286178974
aI20
aa(lp151
g149
ag26
aS'771'
p152
aF0.12605113100012924
aF0.0
aF0.7661928917704897
aF0.014313311697523867
aF0.2896850227280843
aF0.0009649045270652135
aF0.8328261834433602
aF0.04853654727939516
aF-0.019382635806369234
aF0.00030468606351543676
aF0.12605113100012924
aF0.0
aF0.2896850227280843
aF0.0009649045270652135
aF0.09152984414670236
aF0.00030487444655233933
aI0
aF37.14370117026889
aI20
aa(lp153
g149
ag26
aS'1631'
p154
aF0.12414524629366647
aF0.0
aF0.7853072531200921
aF0.013433358515188787
aF0.2986469358095212
aF0.0010720088157104846
aF0.789340960628375
aF0.06829483195529107
aF-0.019471576455586795
aF0.00032040890168635855
aF0.12414524629366647
aF0.0
aF0.2986469358095212
aF0.0010720088157104846
aF0.09293474074398622
aF0.000333594118731773
aI0
aF41.99399829717215
aI20
aa(lp155
g149
ag26
aS'2211'
p156
aF0.12494386730655889
aF0.0
aF0.7529202130110905
aF0.011672264440417912
aF0.29423734022059156
aF0.0010106761970661293
aF0.8215435471661525
aF0.04239157073071648
aF-0.019862188829570127
aF0.0003103212836395046
aF0.12494386730655889
aF0.0
aF0.29423734022059156
aF0.0010106761970661293
aF0.09215155424530026
aF0.0003165314855298414
aI0
aF37.35538926774256
aI20
aa(lp157
g149
ag26
aS'2674'
p158
aF0.12147871121686132
aF0.0
aF0.7233690599547159
aF0.018811325801537604
aF0.31373926886464176
aF0.0011403462250003105
aF0.9040613411343563
aF0.028170093738479896
aF-0.021452144927913603
aF0.0003254847018315819
aF0.12147871121686132
aF0.0
aF0.31373926886464176
aF0.0011403462250003105
aF0.09553422615784535
aF0.00034723767461964196
aI0
aF34.45550201994161
aI20
aa(lp159
g149
ag26
aS'sum'
p160
aF-1.5254307331864972e-05
aF0.0
aF1.0046156655612157
aF1.4232455514761852e-07
aF0.22359633155799263
aF9.979117821026694e-08
aF0.26914494845182263
aF2.211275322446331e-08
aF-1.3138869954720395e-05
aF3.810594378347792e-08
aF-1.5254307331864972e-05
aF0.0
aF0.22359633155799263
aF9.979117821026694e-08
aF-8.54962566622695e-06
aF3.8157031134844146e-12
aI0
aF1.4670100743905164e-14
aI20
aa.