(lp0
(lp1
S'XscanNumber_YscanNumber'
p2
aS'Type'
p3
aS'BCID'
p4
aS'xsec'
p5
aS'xsecErr'
p6
aS'normChange'
p7
aS'normChangeErr'
p8
aa(lp9
S'1_2'
p10
aS'XY'
p11
aS'2734'
p12
aF1748.756257991856
aF2.178115143002019
aF0.6304200344410096
aF0.0007852022928824951
aa(lp13
S'1_2'
p14
ag11
aS'281'
p15
aF1752.5532704135305
aF2.2776024145393494
aF0.6290541913924385
aF0.0008175131503155104
aa(lp16
S'1_2'
p17
ag11
aS'872'
p18
aF1739.4735386248954
aF2.2913572496396593
aF0.6337842777784805
aF0.0008348653585977422
aa(lp19
S'1_2'
p20
ag11
aS'1783'
p21
aF1719.1550765071074
aF2.220722416162355
aF0.6412748887273516
aF0.0008283682721702169
aa(lp22
S'1_2'
p23
ag11
aS'2774'
p24
aF1753.555215584531
aF2.089741518960562
aF0.6286947628419362
aF0.000749226221670991
aa(lp25
S'1_2'
p26
ag11
aS'2654'
p27
aF1748.77049816939
aF2.168987434556661
aF0.6304149009525267
aF0.000781899054309679
aa(lp28
S'1_2'
p29
ag11
aS'81'
p30
aF1744.5484380742714
aF2.242072735399557
aF0.6319405963924413
aF0.0008121624774876603
aa(lp31
S'1_2'
p32
ag11
aS'1903'
p33
aF1721.8764433309339
aF2.029220316495973
aF0.6402613756998083
aF0.0007545439142685386
aa(lp34
S'1_2'
p35
ag11
aS'1983'
p36
aF1731.0596494801603
aF2.1263015286157882
aF0.636864813250788
aF0.0007822761199149996
aa(lp37
S'1_2'
p38
ag11
aS'1943'
p39
aF1726.3282956820879
aF2.2421552206240305
aF0.6386102707982138
aF0.0008294270308815153
aa(lp40
S'1_2'
p41
ag11
aS'952'
p42
aF1734.9633497967652
aF1.8714594869756875
aF0.6354318553883567
aF0.0006854236858850104
aa(lp43
S'1_2'
p44
ag11
aS'1072'
p45
aF1736.184276029161
aF2.151379220740496
aF0.63498500453741
aF0.0007868367218300096
aa(lp46
S'1_2'
p47
ag11
aS'41'
p48
aF1750.4352923420352
aF2.250339190338299
aF0.6298153294870485
aF0.0008096832398324347
aa(lp49
S'1_2'
p50
ag11
aS'1'
p51
aF1766.5701019092526
aF2.435766470766188
aF0.624062967668627
aF0.0008604649488017714
aa(lp52
S'1_2'
p53
ag11
aS'1112'
p54
aF1742.709621188247
aF2.2865616890209166
aF0.6326073873629406
aF0.0008300268722619652
aa(lp55
S'1_2'
p56
ag11
aS'1032'
p57
aF1749.5189346960326
aF2.22921724523677
aF0.630145212222982
aF0.0008029239045274571
aa(lp58
S'1_2'
p59
ag11
aS'912'
p60
aF1737.5289167308558
aF2.13011169101249
aF0.6344936016756533
aF0.0007778530911271653
aa(lp61
S'1_2'
p62
ag11
aS'201'
p63
aF1750.654474165175
aF2.1473236654294943
aF0.6297364766498978
aF0.0007724242900297917
aa(lp64
S'1_2'
p65
ag11
aS'2814'
p66
aF1746.3050701997527
aF2.2441057377391282
aF0.6313049187139175
aF0.0008112643171715603
aa(lp67
S'1_2'
p68
ag11
aS'992'
p69
aF1743.6146788922945
aF2.288096839248766
aF0.6322790199796529
aF0.0008297220966606216
aa(lp70
S'1_2'
p71
ag11
aS'2934'
p72
aF1756.2583551485866
aF2.09932977040155
aF0.6277271092605764
aF0.0007503487196491332
aa(lp73
S'1_2'
p74
ag11
aS'2854'
p75
aF1755.3174743191048
aF2.245422987208581
aF0.6280635819567639
aF0.0008034264029082987
aa(lp76
S'1_2'
p77
ag11
aS'1152'
p78
aF1749.221428552942
aF2.5349018444194025
aF0.6302523868028354
aF0.0009133365917417837
aa(lp79
S'1_2'
p80
ag11
aS'121'
p81
aF1756.0406705298442
aF2.345282182258464
aF0.6278049243925075
aF0.0008384656049381896
aa(lp82
S'1_2'
p83
ag11
aS'1863'
p84
aF1719.7767366868031
aF1.870898107082549
aF0.6410430824387465
aF0.0006973732484622092
aa(lp85
S'1_2'
p86
ag11
aS'241'
p87
aF1754.3626998409798
aF2.0661025926993197
aF0.6284053921643946
aF0.0007400693198360718
aa(lp88
S'1_2'
p89
ag11
aS'161'
p90
aF1756.2557899339336
aF2.1649235633314925
aF0.627728026128602
aF0.0007737957095535038
aa(lp91
S'1_2'
p92
ag11
aS'2694'
p93
aF1753.9735807624288
aF2.188801228329785
aF0.628544803914855
aF0.00078436736673714
aa(lp94
S'1_2'
p95
ag11
aS'2894'
p96
aF1753.5423261306066
aF2.1676584417763896
aF0.6286993840775102
aF0.0007771728728341673
aa(lp97
S'1_2'
p98
ag11
aS'1823'
p99
aF1725.0203449190446
aF2.211413111687469
aF0.6390944800386659
aF0.0008192957937727497
aa(lp100
S'1_2'
p101
ag11
aS'2023'
p102
aF1724.8068302430315
aF2.1601955676993385
aF0.6391735938550391
aF0.0008005186089398553
aa(lp103
S'1_2'
p104
ag11
aS'2063'
p105
aF1731.2823264394237
aF2.05738614043694
aF0.6367828999094971
aF0.0007567271338323121
aa(lp106
S'4_3'
p107
ag11
aS'2734'
p108
aF1751.9019321456387
aF2.329481953134725
aF0.6292880669649882
aF0.000836756423644444
aa(lp109
S'4_3'
p110
ag11
aS'281'
p111
aF1766.197117056068
aF2.13251101112438
aF0.6241947570550583
aF0.000753654379599898
aa(lp112
S'4_3'
p113
ag11
aS'872'
p114
aF1746.4022739473028
aF2.297583450792384
aF0.6312697806447217
aF0.0008305045307324286
aa(lp115
S'4_3'
p116
ag11
aS'1783'
p117
aF1728.2283998491919
aF2.354426323751867
aF0.6379081494600822
aF0.0008690447045979089
aa(lp118
S'4_3'
p119
ag11
aS'2774'
p120
aF1762.0621270039733
aF1.9287636279341247
aF0.6256595403174856
aF0.0006848506340047052
aa(lp121
S'4_3'
p122
ag11
aS'2654'
p123
aF1750.1371701612015
aF2.2053222397368812
aF0.6299226136032596
aF0.0007937562682383895
aa(lp124
S'4_3'
p125
ag11
aS'81'
p126
aF1753.5242828560424
aF2.2734392434235
aF0.6287058532183805
aF0.0008151153498420431
aa(lp127
S'4_3'
p128
ag11
aS'1903'
p129
aF1728.5509988574286
aF2.0606114403129587
aF0.6377890968336349
aF0.0007603105203786099
aa(lp130
S'4_3'
p131
ag11
aS'1983'
p132
aF1734.521263492278
aF2.2645391201066984
aF0.6355938111548352
aF0.0008298122831656144
aa(lp133
S'4_3'
p134
ag11
aS'1943'
p135
aF1722.7069913384937
aF2.310688228326325
aF0.6399526941813733
aF0.0008583764764208011
aa(lp136
S'4_3'
p137
ag11
aS'952'
p138
aF1745.4007630553194
aF1.8811401223703326
aF0.6316320032210364
aF0.0006807538583587635
aa(lp139
S'4_3'
p140
ag11
aS'1072'
p141
aF1740.0607827432902
aF2.205087307899211
aF0.6335703851988949
aF0.0008028903524050095
aa(lp142
S'4_3'
p143
ag11
aS'41'
p144
aF1752.3498987092244
aF2.477617128290263
aF0.6291271972590742
aF0.0008895120323575157
aa(lp145
S'4_3'
p146
ag11
ag51
aF1760.969226230357
aF2.2502708949046046
aF0.6260478400023683
aF0.0008000010518019912
aa(lp147
S'4_3'
p148
ag11
aS'1112'
p149
aF1742.620685679918
aF2.0619156736408564
aF0.6326396727937461
aF0.0007485562795276306
aa(lp150
S'4_3'
p151
ag11
aS'1032'
p152
aF1749.302500794701
aF2.272853631743857
aF0.6302231774614842
aF0.0008188435316657649
aa(lp153
S'4_3'
p154
ag11
aS'912'
p155
aF1740.253952655685
aF2.245752442466256
aF0.6335000582586124
aF0.0008175153407729551
aa(lp156
S'4_3'
p157
ag11
aS'201'
p158
aF1761.4282015140275
aF2.208842929864124
aF0.6258847107390186
aF0.0007848636788247335
aa(lp159
S'4_3'
p160
ag11
aS'2814'
p161
aF1752.22569959577
aF2.059550207767353
aF0.6291717902816327
aF0.0007395228204305138
aa(lp162
S'4_3'
p163
ag11
aS'992'
p164
aF1747.0067171248552
aF2.2423442960460553
aF0.6310513689417984
aF0.0008099765294477494
aa(lp165
S'4_3'
p166
ag11
aS'2934'
p167
aF1754.9750857322765
aF2.0575469959759634
aF0.6281861146377192
aF0.0007364904855884814
aa(lp168
S'4_3'
p169
ag11
aS'2854'
p170
aF1752.9158371667065
aF2.3390998852046643
aF0.6289240801053423
aF0.0008392395187407669
aa(lp171
S'4_3'
p172
ag11
aS'1152'
p173
aF1748.3640892360277
aF2.383751685199378
aF0.6305614415095246
aF0.0008597190414022288
aa(lp174
S'4_3'
p175
ag11
aS'121'
p176
aF1758.2443359708368
aF2.1894653087941283
aF0.6270180758372383
aF0.0007807983776466718
aa(lp177
S'4_3'
p178
ag11
aS'1863'
p179
aF1727.0410450791894
aF2.106588140736958
aF0.6383467165029691
aF0.0007786344317033138
aa(lp180
S'4_3'
p181
ag11
aS'241'
p182
aF1754.0961358744717
aF2.0643467098635004
aF0.628500888774007
aF0.0007396651274418839
aa(lp183
S'4_3'
p184
ag11
aS'161'
p185
aF1755.1247627559371
aF2.1556817820772975
aF0.6281325429316279
aF0.0007714858272533457
aa(lp186
S'4_3'
p187
ag11
aS'2694'
p188
aF1753.8082368269756
aF2.2222164396140913
aF0.6286040612893534
aF0.0007964920278471686
aa(lp189
S'4_3'
p190
ag11
aS'2894'
p191
aF1754.7962004684848
aF2.0741924722105685
aF0.6282501524096252
aF0.0007426000446349783
aa(lp192
S'4_3'
p193
ag11
aS'1823'
p194
aF1728.528501490633
aF2.334535812751708
aF0.6377973978684384
aF0.0008614037114919902
aa(lp195
S'4_3'
p196
ag11
aS'2023'
p197
aF1730.1200719824692
aF2.1806402697881277
aF0.6372106758630379
aF0.0008031392055544743
aa(lp198
S'4_3'
p199
ag11
aS'2063'
p200
aF1726.9271285170264
aF2.029528818909318
aF0.6383888249754178
aF0.000750250833727923
aa(lp201
S'5_6'
p202
ag11
aS'2734'
p203
aF1733.8980545269349
aF2.0794394200713793
aF0.6358222604344188
aF0.0007625326466306862
aa(lp204
S'5_6'
p205
ag11
aS'281'
p206
aF1743.441392957635
aF2.0408132954193916
aF0.632341864111601
aF0.0007401979147346056
aa(lp207
S'5_6'
p208
ag11
aS'872'
p209
aF1731.8050354306795
aF1.99209854362263
aF0.6365907003602114
aF0.0007322714630841299
aa(lp210
S'5_6'
p211
ag11
aS'1783'
p212
aF1710.3809827895868
aF2.0816454107473246
aF0.6445645686460382
aF0.0007844771952877931
aa(lp213
S'5_6'
p214
ag11
aS'2774'
p215
aF1734.1685460037493
aF2.0186148909672528
aF0.6357230863935721
aF0.0007399973270665882
aa(lp216
S'5_6'
p217
ag11
aS'2654'
p218
aF1729.4715914276132
aF1.9869696111984372
aF0.6374496035995164
aF0.0007323583673191211
aa(lp219
S'5_6'
p220
ag11
aS'81'
p221
aF1731.4927601076424
aF2.0959523859125433
aF0.6367055097149933
aF0.0007707248121140509
aa(lp222
S'5_6'
p223
ag11
aS'1903'
p224
aF1705.2609452678546
aF1.8347363714555573
aF0.6464998705632052
aF0.0006955866959571437
aa(lp225
S'5_6'
p226
ag11
aS'1983'
p227
aF1716.75777078881
aF2.1167690957371117
aF0.6421703743828733
aF0.0007917986018883832
aa(lp228
S'5_6'
p229
ag11
aS'1943'
p230
aF1710.0527328198255
aF2.2580118091164545
aF0.6446882948306796
aF0.0008512683585648244
aa(lp231
S'5_6'
p232
ag11
aS'952'
p233
aF1717.2523724075934
aF1.954127127471128
aF0.6419854169987356
aF0.0007305397499840112
aa(lp234
S'5_6'
p235
ag11
aS'1072'
p236
aF1722.6709831649564
aF2.0296205396767424
aF0.6399660708086533
aF0.0007539967264225327
aa(lp237
S'5_6'
p238
ag11
aS'41'
p239
aF1738.1702983955086
aF2.1865396942896003
aF0.6342594746957884
aF0.0007978697594716621
aa(lp240
S'5_6'
p241
ag11
ag51
aF1748.571170460302
aF2.3980907711396613
aF0.6304867648606733
aF0.0008646857032076457
aa(lp242
S'5_6'
p243
ag11
aS'1112'
p244
aF1718.5213672249665
aF2.0362964704177657
aF0.641511360532207
aF0.000760134464486776
aa(lp245
S'5_6'
p246
ag11
aS'1032'
p247
aF1731.3545337081937
aF2.1158765668757593
aF0.6367563424638055
aF0.0007781755831043202
aa(lp248
S'5_6'
p249
ag11
aS'912'
p250
aF1719.9238981128692
aF2.0630092006926284
aF0.6409882330269296
aF0.0007688506588699581
aa(lp251
S'5_6'
p252
ag11
aS'201'
p253
aF1734.249805328421
aF2.051230619751177
aF0.6356932992034454
aF0.0007518833538803941
aa(lp254
S'5_6'
p255
ag11
aS'2814'
p256
aF1739.431416014606
aF2.270485029943479
aF0.6337996256949862
aF0.0008273005471071491
aa(lp257
S'5_6'
p258
ag11
aS'992'
p259
aF1734.613859111526
aF2.111967808526516
aF0.635559882449478
aF0.0007738217961729619
aa(lp260
S'5_6'
p261
ag11
aS'2934'
p262
aF1732.0202700727928
aF2.109987625095717
aF0.6365115925264683
aF0.0007754133174228792
aa(lp263
S'5_6'
p264
ag11
aS'2854'
p265
aF1733.8347174397543
aF1.9922551208900559
aF0.6358454870600802
aF0.0007306154473367746
aa(lp266
S'5_6'
p267
ag11
aS'1152'
p268
aF1729.8082782815197
aF2.160732810111666
aF0.6373255315250245
aF0.000796094112843563
aa(lp269
S'5_6'
p270
ag11
aS'121'
p271
aF1736.465260327416
aF2.1565625182379504
aF0.6348822551073013
aF0.0007884772048941715
aa(lp272
S'5_6'
p273
ag11
aS'1863'
p274
aF1711.1432270863886
aF2.0081540451642046
aF0.6442774415028548
aF0.0007561075717577458
aa(lp275
S'5_6'
p276
ag11
aS'241'
p277
aF1732.6315178786547
aF2.122855860758487
aF0.6362870402715181
aF0.0007795920013153445
aa(lp278
S'5_6'
p279
ag11
aS'161'
p280
aF1739.0919821222328
aF2.125025591734766
aF0.633923329947634
aF0.0007746015237748146
aa(lp281
S'5_6'
p282
ag11
aS'2694'
p283
aF1732.8433279694898
aF2.059681892601027
aF0.6362092651988258
aF0.0007562072590662382
aa(lp284
S'5_6'
p285
ag11
aS'2894'
p286
aF1734.2550874997526
aF1.994883565271893
aF0.6356913630171572
aF0.0007312247556940765
aa(lp287
S'5_6'
p288
ag11
aS'1823'
p289
aF1709.5847312002074
aF1.9713397307338838
aF0.6448647793070692
aF0.0007436002072307283
aa(lp290
S'5_6'
p291
ag11
aS'2023'
p292
aF1708.4120404807759
aF2.02875288727298
aF0.6453074283425845
aF0.0007663077041182042
aa(lp293
S'5_6'
p294
ag11
aS'2063'
p295
aF1713.7560306239327
aF1.8671071044329723
aF0.6432951719450896
aF0.0007008587945559663
aa(lp296
S'7_8'
p297
ag11
aS'2734'
p298
aF1750.9033168574922
aF2.139859202901741
aF0.6296469769506334
aF0.0007695204328159578
aa(lp299
S'7_8'
p300
ag11
aS'281'
p301
aF1753.9971731539194
aF1.9079414065331195
aF0.628536349582482
aF0.0006837015163047576
aa(lp302
S'7_8'
p303
ag11
aS'872'
p304
aF1744.9089650303315
aF2.2510095178747576
aF0.631810027048026
aF0.000815062798619464
aa(lp305
S'7_8'
p306
ag11
aS'1783'
p307
aF1726.6739521035804
aF2.069694143584652
aF0.6384824297888191
aF0.0007653230328202375
aa(lp308
S'7_8'
p309
ag11
aS'2774'
p310
aF1745.8127746515886
aF2.04972161582387
aF0.6314829381473467
aF0.0007414106753817862
aa(lp311
S'7_8'
p312
ag11
aS'2654'
p313
aF1743.1729741054469
aF1.908303483962856
aF0.6324392339537661
aF0.0006923501060863542
aa(lp314
S'7_8'
p315
ag11
aS'81'
p316
aF1751.73229289951
aF2.0168568395139177
aF0.6293490077569748
aF0.0007246009312501539
aa(lp317
S'7_8'
p318
ag11
aS'1903'
p319
aF1720.7882886050174
aF2.026887773911761
aF0.640666250283395
aF0.0007546300718434115
aa(lp320
S'7_8'
p321
ag11
aS'1983'
p322
aF1729.3204386362083
aF2.1253081272296384
aF0.6375053204492173
aF0.0007834841990136689
aa(lp323
S'7_8'
p324
ag11
aS'1943'
p325
aF1723.8689555637359
aF2.1244028195908493
aF0.639521337648102
aF0.0007881114910175134
aa(lp326
S'7_8'
p327
ag11
aS'952'
p328
aF1740.3079796343713
aF1.9273722970790106
aF0.633480391570563
aF0.0007015726938816784
aa(lp329
S'7_8'
p330
ag11
aS'1072'
p331
aF1734.120552768945
aF2.0066607829845213
aF0.635740680561006
aF0.0007356558284213115
aa(lp332
S'7_8'
p333
ag11
aS'41'
p334
aF1755.5643798087606
aF2.3243728657165157
aF0.627975250051639
aF0.0008314412438241531
aa(lp335
S'7_8'
p336
ag11
ag51
aF1758.1658030256417
aF2.1762669244117054
aF0.6270460831935988
aF0.000776160956257797
aa(lp337
S'7_8'
p338
ag11
aS'1112'
p339
aF1737.9068300370086
aF2.1033534328313364
aF0.6343556290463973
aF0.0007677477681368041
aa(lp340
S'7_8'
p341
ag11
aS'1032'
p342
aF1744.786857180208
aF2.053576546600724
aF0.6318542438896259
aF0.0007436788343413412
aa(lp343
S'7_8'
p344
ag11
aS'912'
p345
aF1739.0958777388387
aF1.9650210128419792
aF0.6339219099441238
aF0.000716274409873673
aa(lp346
S'7_8'
p347
ag11
aS'201'
p348
aF1754.5320603560735
aF2.1047435665599696
aF0.6283447337909687
aF0.0007537648162211309
aa(lp349
S'7_8'
p350
ag11
aS'2814'
p351
aF1754.6306072947598
aF1.952089132343674
aF0.6283094434855921
aF0.0006990166655465644
aa(lp352
S'7_8'
p353
ag11
aS'992'
p354
aF1745.6799155143817
aF2.117702430112386
aF0.6315309986638122
aF0.000766116811378666
aa(lp355
S'7_8'
p356
ag11
aS'2934'
p357
aF1751.2240953546109
aF1.8164506892520123
aF0.6295316420762919
aF0.0006529793578039354
aa(lp358
S'7_8'
p359
ag11
aS'2854'
p360
aF1744.9648389873755
aF2.2456248953081066
aF0.6317897964247364
aF0.0008130610220641203
aa(lp361
S'7_8'
p362
ag11
aS'1152'
p363
aF1753.4547517855206
aF2.283602446569927
aF0.628730783768184
aF0.000818824183848956
aa(lp364
S'7_8'
p365
ag11
aS'121'
p366
aF1753.06380205069
aF2.0730320092016994
aF0.6288709966531382
aF0.0007436521729531636
aa(lp367
S'7_8'
p368
ag11
aS'1863'
p369
aF1723.8624279859423
aF2.0918931530664158
aF0.6395237592597193
aF0.0007760569239749166
aa(lp370
S'7_8'
p371
ag11
aS'241'
p372
aF1752.054720290934
aF1.8674643137212072
aF0.6292331898224569
aF0.0006706814081738706
aa(lp373
S'7_8'
p374
ag11
aS'161'
p375
aF1757.9639888319675
aF2.158443291855512
aF0.6271180680581809
aF0.0007699809528526984
aa(lp376
S'7_8'
p377
ag11
aS'2694'
p378
aF1749.6001702405304
aF2.07490479115156
aF0.6301159540014191
aF0.000747273939598919
aa(lp379
S'7_8'
p380
ag11
aS'2894'
p381
aF1744.9637856355537
aF1.9145115577398084
aF0.6317901778062519
aF0.0006931774787727221
aa(lp382
S'7_8'
p383
ag11
aS'1823'
p384
aF1721.4549943346985
aF1.9900452897322811
aF0.6404181253766835
aF0.0007403394675197974
aa(lp385
S'7_8'
p386
ag11
aS'2023'
p387
aF1723.5113634401143
aF1.8540831860672093
aF0.6396540247879039
aF0.0006881136947610723
aa(lp388
S'7_8'
p389
ag11
aS'2063'
p390
aF1724.940596699646
aF2.0349579923616403
aF0.6391240269383726
aF0.0007539914993113598
aa(lp391
S'9_10'
p392
ag11
aS'2734'
p393
aF1755.0690039919843
aF2.1452754501494375
aF0.628152498781861
aF0.0007678103433663656
aa(lp394
S'9_10'
p395
ag11
aS'281'
p396
aF1755.0354051960805
aF2.224056690683543
aF0.6281645242757858
aF0.0007960372246219835
aa(lp397
S'9_10'
p398
ag11
aS'872'
p399
aF1752.5874601853027
aF2.3992047230814078
aF0.6290419196971738
aF0.0008611269788465141
aa(lp400
S'9_10'
p401
ag11
aS'1783'
p402
aF1727.4631289377744
aF2.211356174317132
aF0.6381907445226107
aF0.0008169592853538458
aa(lp403
S'9_10'
p404
ag11
aS'2774'
p405
aF1759.6919021753718
aF2.127894143844424
aF0.6265022752160657
aF0.0007575931450780828
aa(lp406
S'9_10'
p407
ag11
aS'2654'
p408
aF1752.9363162908567
aF2.126725575698511
aF0.6289167325398901
aF0.0007630244679438735
aa(lp409
S'9_10'
p410
ag11
aS'81'
p411
aF1754.6084283837517
aF2.2316846516444984
aF0.6283173855534673
aF0.0007991562350995353
aa(lp412
S'9_10'
p413
ag11
aS'1903'
p414
aF1726.176257911907
aF2.3126670964090934
aF0.6386665181722242
aF0.000855661775780513
aa(lp415
S'9_10'
p416
ag11
aS'1983'
p417
aF1731.1712874530629
aF2.252802918917986
aF0.636823743775295
aF0.0008287096714294146
aa(lp418
S'9_10'
p419
ag11
aS'1943'
p420
aF1731.369902829484
aF2.46864202383242
aF0.6367506900694537
aF0.0009078992938717831
aa(lp421
S'9_10'
p422
ag11
aS'952'
p423
aF1745.4649275020813
aF2.161660501208659
aF0.6316087840102662
aF0.000782212085215213
aa(lp424
S'9_10'
p425
ag11
aS'1072'
p426
aF1747.4906020572628
aF2.2041773432415694
aF0.630876629089895
aF0.0007957490418452018
aa(lp427
S'9_10'
p428
ag11
aS'41'
p429
aF1760.6321948803777
aF2.3807358576411612
aF0.6261676820393828
aF0.0008467071418221413
aa(lp430
S'9_10'
p431
ag11
ag51
aF1764.8294013460747
aF2.501478552447847
aF0.6246784984153669
aF0.0008854226163557349
aa(lp432
S'9_10'
p433
ag11
aS'1112'
p434
aF1748.597256694028
aF2.152528153660332
aF0.6304773590211948
aF0.000776119406766292
aa(lp435
S'9_10'
p436
ag11
aS'1032'
p437
aF1756.0968577136916
aF2.3812020140356185
aF0.627784837464755
aF0.0008512528866422122
aa(lp438
S'9_10'
p439
ag11
aS'912'
p440
aF1743.0746964857797
aF2.1754055066462774
aF0.6324748919910392
aF0.0007893461855804303
aa(lp441
S'9_10'
p442
ag11
aS'201'
p443
aF1756.7159023511854
aF2.271464890129934
aF0.6275636139666286
aF0.0008114509087897372
aa(lp444
S'9_10'
p445
ag11
aS'2814'
p446
aF1757.5092852469324
aF2.33466542113135
aF0.6272803163240536
aF0.0008332756339733022
aa(lp447
S'9_10'
p448
ag11
aS'992'
p449
aF1748.7735903492296
aF2.379064404004012
aF0.630413786253484
aF0.0008576267430763
aa(lp450
S'9_10'
p451
ag11
aS'2934'
p452
aF1754.9800620022959
aF1.9801087232590864
aF0.6281843334073812
aF0.00070876775487437
aa(lp453
S'9_10'
p454
ag11
aS'2854'
p455
aF1755.009765998631
aF2.2412882131358436
aF0.6281737012243024
aF0.0008022281924766476
aa(lp456
S'9_10'
p457
ag11
aS'1152'
p458
aF1756.426261137946
aF2.070919506039005
aF0.6276671015371323
aF0.0007400527267396195
aa(lp459
S'9_10'
p460
ag11
aS'121'
p461
aF1757.9558547998483
aF2.3357546408650194
aF0.6271209697229151
aF0.0008332408981799176
aa(lp462
S'9_10'
p463
ag11
aS'1863'
p464
aF1726.1160262684173
aF2.080576557720296
aF0.6386888040055321
aF0.0007698445139664575
aa(lp465
S'9_10'
p466
ag11
aS'241'
p467
aF1765.022542285581
aF2.0477277183262403
aF0.6246101417858153
aF0.0007246544844839434
aa(lp468
S'9_10'
p469
ag11
aS'161'
p470
aF1758.6838517334534
aF2.4489138401697943
aF0.6268613766513647
aF0.0008728854248796969
aa(lp471
S'9_10'
p472
ag11
aS'2694'
p473
aF1753.573709997321
aF2.2886375950931215
aF0.6286881321879769
aF0.0008205182860071938
aa(lp474
S'9_10'
p475
ag11
aS'2894'
p476
aF1758.1371172506285
aF1.976390719901277
aF0.6270563140809903
aF0.0007048985359817655
aa(lp477
S'9_10'
p478
ag11
aS'1823'
p479
aF1729.3887509362987
aF2.3205280320921458
aF0.6374801384565992
aF0.0008553834586871381
aa(lp480
S'9_10'
p481
ag11
aS'2023'
p482
aF1724.9614617850852
aF2.19103152214863
aF0.6391162961120765
aF0.0008118001370600506
aa(lp483
S'9_10'
p484
ag11
aS'2063'
p485
aF1730.5527277853298
aF1.9569985835742278
aF0.6370513667058361
aF0.0007204106539433902
aa.