(lp0
(lp1
S'XscanNumber_YscanNumber'
p2
aS'Type'
p3
aS'BCID'
p4
aS'xsec'
p5
aS'xsecErr'
p6
aS'normChange'
p7
aS'normChangeErr'
p8
aa(lp9
S'1_2'
p10
aS'XY'
p11
aS'2734'
p12
aF1764.037673169913
aF4.596350140064298
aF0.6249588640650128
aF0.001628383455789701
aa(lp13
S'1_2'
p14
ag11
aS'281'
p15
aF1796.6136827042315
aF12.279904725404219
aF0.6136271759506846
aF0.004194158894666371
aa(lp16
S'1_2'
p17
ag11
aS'872'
p18
aF1739.4735271167829
aF1.111463217307957
aF0.6337842819715082
aF0.0004049661613918731
aa(lp19
S'1_2'
p20
ag11
aS'1783'
p21
aF1722.1432207330768
aF17.66013716250562
aF0.6401621927372968
aF0.006564699145741544
aa(lp22
S'1_2'
p23
ag11
aS'2774'
p24
aF1788.8719167705701
aF7.421384053335008
aF0.6162827925558801
aF0.0025567349155303258
aa(lp25
S'1_2'
p26
ag11
aS'2654'
p27
aF1758.5307622147611
aF5.070424998826871
aF0.6269159482906559
aF0.0018076057380837516
aa(lp28
S'1_2'
p29
ag11
aS'81'
p30
aF1766.25359408181
aF4.351292562661076
aF0.6241747980505982
aF0.0015376994366258867
aa(lp31
S'1_2'
p32
ag11
aS'1903'
p33
aF1750.2827606991036
aF4.8405599324312165
aF0.6298702159140346
aF0.001741961126651024
aa(lp34
S'1_2'
p35
ag11
aS'1983'
p36
aF1759.931687671206
aF29.005715549151905
aF0.6264169161309624
aF0.010324077355817309
aa(lp37
S'1_2'
p38
ag11
aS'1943'
p39
aF1743.0311394211622
aF4.207889436213257
aF0.6324906970728397
aF0.0015269095672035982
aa(lp40
S'1_2'
p41
ag11
aS'952'
p42
aF1744.9740037029212
aF4.461646842078983
aF0.6317864782241462
aF0.0016153868994353577
aa(lp43
S'1_2'
p44
ag11
aS'1072'
p45
aF1747.315604606949
aF7.943291808715903
aF0.630939812753603
aF0.0028682506086619704
aa(lp46
S'1_2'
p47
ag11
aS'41'
p48
aF1764.0795579457704
aF5.878349953972623
aF0.6249440255834808
aF0.0020824682580087195
aa(lp49
S'1_2'
p50
ag11
aS'1'
p51
aF1786.2733754743363
aF3.709251677053236
aF0.6171793161835637
aF0.001281591857678866
aa(lp52
S'1_2'
p53
ag11
aS'1112'
p54
aF1768.1293006184667
aF4.519906175736301
aF0.6235126469577396
aF0.00159389851333169
aa(lp55
S'1_2'
p56
ag11
aS'1032'
p57
aF1749.5189720614032
aF0.09424296262943138
aF0.6301451987646488
aF3.394461641551613e-05
aa(lp58
S'1_2'
p59
ag11
aS'912'
p60
aF1768.0108995069547
aF4.8272356054332315
aF0.6235544026903892
aF0.0017025030871874766
aa(lp61
S'1_2'
p62
ag11
aS'201'
p63
aF1763.469343692642
aF4.551243175752959
aF0.62516027530349
aF0.0016134425284473528
aa(lp64
S'1_2'
p65
ag11
aS'2814'
p66
aF1778.3687221906575
aF5.992494755027565
aF0.6199226103314046
aF0.002088927309943809
aa(lp67
S'1_2'
p68
ag11
aS'992'
p69
aF1743.6158608229723
aF1.2736059143313085
aF0.6322785913818249
aF0.0004618412642271322
aa(lp70
S'1_2'
p71
ag11
aS'2934'
p72
aF1763.1076087840518
aF4.251654447876236
aF0.6252885387707421
aF0.0015078550984781532
aa(lp73
S'1_2'
p74
ag11
aS'2854'
p75
aF1772.9533391326102
aF4.326185601153773
aF0.621816127959416
aF0.0015172942908126973
aa(lp76
S'1_2'
p77
ag11
aS'1152'
p78
aF1749.2214485817688
aF2.279592205195006
aF0.6302523795863585
aF0.0008213473559768703
aa(lp79
S'1_2'
p80
ag11
aS'121'
p81
aF1796.0129755911858
aF10.222773757249467
aF0.6138324140053988
aF0.003493888952098436
aa(lp82
S'1_2'
p83
ag11
aS'1863'
p84
aF1731.3089514819198
aF3.1381400234186545
aF0.6367731071040268
aF0.0011542036859044497
aa(lp85
S'1_2'
p86
ag11
aS'241'
p87
aF1763.260926651693
aF4.497843467599213
aF0.6252341691060057
aF0.0015948889813905463
aa(lp88
S'1_2'
p89
ag11
aS'161'
p90
aF1756.2558061312347
aF3.0122724463727693
aF0.6277280203392974
aF0.0010766585442069114
aa(lp91
S'1_2'
p92
ag11
aS'2694'
p93
aF1768.7494510668696
aF4.190587402682933
aF0.6232940339442556
aF0.0014767315547370185
aa(lp94
S'1_2'
p95
ag11
aS'2894'
p96
aF1775.6175297181317
aF3.9077099840055096
aF0.6208831361149967
aF0.0013664154522524757
aa(lp97
S'1_2'
p98
ag11
aS'1823'
p99
aF1773.8203545116858
aF41.622771689429634
aF0.6215121940551022
aF0.014583810637618646
aa(lp100
S'1_2'
p101
ag11
aS'2023'
p102
aF1757.2161314940904
aF6.412397771754861
aF0.6273849645659622
aF0.0022894405968118714
aa(lp103
S'1_2'
p104
ag11
aS'2063'
p105
aF1731.2823047352113
aF1.970245501229902
aF0.636782907892523
aF0.0007246759561417828
aa(lp106
S'4_3'
p107
ag11
aS'2734'
p108
aF1763.9752102066557
aF3.5966754802070255
aF0.6249809940713402
aF0.0012743114551527388
aa(lp109
S'4_3'
p110
ag11
aS'281'
p111
aF1766.1967776693834
aF3.342438571796692
aF0.6241948769983127
aF0.0011812574111646325
aa(lp112
S'4_3'
p113
ag11
aS'872'
p114
aF1746.4026476044883
aF0.2291504561305025
aF0.6312696455793689
aF8.283068479326627e-05
aa(lp115
S'4_3'
p116
ag11
aS'1783'
p117
aF1754.5662870409642
aF24.49809988402321
aF0.6283324765412056
aF0.008773080780345999
aa(lp118
S'4_3'
p119
ag11
aS'2774'
p120
aF1773.5812953112115
aF4.02420909350547
aF0.621595967045147
aF0.001410384824018162
aa(lp121
S'4_3'
p122
ag11
aS'2654'
p123
aF1758.1352478769816
aF3.96763889360709
aF0.6270569808115789
aF0.0014150991333460475
aa(lp124
S'4_3'
p125
ag11
aS'81'
p126
aF1760.468377881521
aF4.819097660931839
aF0.6262259488686774
aF0.0017142278971459975
aa(lp127
S'4_3'
p128
ag11
aS'1903'
p129
aF1739.9442385665882
aF2.910574027321915
aF0.6336128227306784
aF0.0010599058201642823
aa(lp130
S'4_3'
p131
ag11
aS'1983'
p132
aF1734.5212698820428
aF2.308566599552884
aF0.635593808813385
aF0.0008459456008913442
aa(lp133
S'4_3'
p134
ag11
aS'1943'
p135
aF1722.7069956797638
aF0.018624992756358538
aF0.6399526925686746
aF6.918828502696442e-06
aa(lp136
S'4_3'
p137
ag11
aS'952'
p138
aF1755.9887201246743
aF4.50944165326188
aF0.6278234978148854
aF0.001612273131083669
aa(lp139
S'4_3'
p140
ag11
aS'1072'
p141
aF1750.0045991898492
aF4.320140453067713
aF0.6299703331651402
aF0.0015551732388584532
aa(lp142
S'4_3'
p143
ag11
aS'41'
p144
aF1764.685890616288
aF5.048939861069521
aF0.624729299562283
aF0.001787411957964084
aa(lp145
S'4_3'
p146
ag11
ag51
aF1777.455422417408
aF4.397955082769704
aF0.6202411416274963
aF0.0015346616556231984
aa(lp147
S'4_3'
p148
ag11
aS'1112'
p149
aF1762.2595045097114
aF3.9906487781917694
aF0.6255894648721877
aF0.0014166516493474136
aa(lp150
S'4_3'
p151
ag11
aS'1032'
p152
aF1749.3025140170234
aF0.6898266925614024
aF0.6302231726978633
aF0.000248524633855005
aa(lp153
S'4_3'
p154
ag11
aS'912'
p155
aF1747.4824615025718
aF4.44614388762275
aF0.6308795679953291
aF0.00160515564354028
aa(lp156
S'4_3'
p157
ag11
aS'201'
p158
aF1768.419191871424
aF4.4791821242037875
aF0.6234104365410623
aF0.0015790197800566678
aa(lp159
S'4_3'
p160
ag11
aS'2814'
p161
aF1784.1017952544726
aF5.2495027054702925
aF0.617930536993216
aF0.0018181855062120598
aa(lp162
S'4_3'
p163
ag11
aS'992'
p164
aF1747.0067139118826
aF0.07367486462743911
aF0.6310513701023839
aF2.6612733594564854e-05
aa(lp165
S'4_3'
p166
ag11
aS'2934'
p167
aF1765.544107892495
aF4.105438190308469
aF0.6244256235026249
aF0.001451983436876531
aa(lp168
S'4_3'
p169
ag11
aS'2854'
p170
aF1790.4017798487125
aF6.66650671791376
aF0.6157561910407133
aF0.0022927494992307077
aa(lp171
S'4_3'
p172
ag11
aS'1152'
p173
aF1748.3646535881398
aF2.2103048696632563
aF0.6305612379715039
aF0.0007971635505493503
aa(lp174
S'4_3'
p175
ag11
aS'121'
p176
aF1758.2447452872907
aF3.6107875148468205
aF0.6270179298684726
aF0.0012876640290395102
aa(lp177
S'4_3'
p178
ag11
aS'1863'
p179
aF1726.9664912140927
aF2.6941330152971035
aF0.6383742741974752
aF0.0009958880018700557
aa(lp180
S'4_3'
p181
ag11
aS'241'
p182
aF1761.6160446556723
aF4.404595794626519
aF0.6258179719336305
aF0.0015647423374367314
aa(lp183
S'4_3'
p184
ag11
aS'161'
p185
aF1755.1247734480833
aF2.5558000332084365
aF0.6281325391050709
aF0.0009146820719475914
aa(lp186
S'4_3'
p187
ag11
aS'2694'
p188
aF1769.057706231432
aF5.0893671524402695
aF0.6231854260654243
aF0.001792829835977067
aa(lp189
S'4_3'
p190
ag11
aS'2894'
p191
aF1767.3896797825223
aF4.768812170199318
aF0.6237735758012426
aF0.0016830804512198718
aa(lp192
S'4_3'
p193
ag11
aS'1823'
p194
aF1732.8358420052812
aF221.021342324964
aF0.6362120136644756
aF0.08114815601959494
aa(lp195
S'4_3'
p196
ag11
aS'2023'
p197
aF1740.2224944547486
aF3.561658480839295
aF0.6335115101115734
aF0.0012965880224443144
aa(lp198
S'4_3'
p199
ag11
aS'2063'
p200
aF1726.92712707542
aF2.1644820001009357
aF0.6383888255083329
aF0.0008001386394447535
aa(lp201
S'5_6'
p202
ag11
aS'2734'
p203
aF1733.8980839347305
aF0.11309594439597408
aF0.6358222496505491
aF4.147240167024058e-05
aa(lp204
S'5_6'
p205
ag11
aS'281'
p206
aF1743.4414657655286
aF0.1306722888313444
aF0.6323418377043597
aF4.739451073016974e-05
aa(lp207
S'5_6'
p208
ag11
aS'872'
p209
aF1731.8050086884948
aF0.10893908443301058
aF0.636590710190317
aF4.0044698322712405e-05
aa(lp210
S'5_6'
p211
ag11
aS'1783'
p212
aF1710.3809661334167
aF2.4493980373430158
aF0.644564574922989
aF0.0009230664021749012
aa(lp213
S'5_6'
p214
ag11
aS'2774'
p215
aF1745.4610445136298
aF2.770163739591046
aF0.6316101891001259
aF0.0010024077299811373
aa(lp216
S'5_6'
p217
ag11
aS'2654'
p218
aF1751.1477278895081
aF4.466847432469821
aF0.6295590959198151
aF0.0016058864631521741
aa(lp219
S'5_6'
p220
ag11
aS'81'
p221
aF1731.4933100416097
aF2.3896756629460065
aF0.636705307493024
aF0.0008787323456352651
aa(lp222
S'5_6'
p223
ag11
aS'1903'
p224
aF1705.2609201038342
aF0.073830435270806
aF0.6464998801034085
aF2.7990653505184508e-05
aa(lp225
S'5_6'
p226
ag11
aS'1983'
p227
aF1716.7590334360855
aF0.09858557895775225
aF0.6421699020774082
aF3.687686527493162e-05
aa(lp228
S'5_6'
p229
ag11
aS'1943'
p230
aF1710.0527568328996
aF0.057588761365392684
aF0.6446882857777729
aF2.1710909032701937e-05
aa(lp231
S'5_6'
p232
ag11
aS'952'
p233
aF1742.2421366542076
aF5.338248323255048
aF0.6327771308007152
aF0.0019388358176079933
aa(lp234
S'5_6'
p235
ag11
aS'1072'
p236
aF1752.8502428279087
aF7.719058347498039
aF0.6289476154069789
aF0.0027697080002760215
aa(lp237
S'5_6'
p238
ag11
aS'41'
p239
aF1738.1716317905214
aF4.957490486953906
aF0.6342589881394524
aF0.0018089887341719596
aa(lp240
S'5_6'
p241
ag11
ag51
aF1765.5912909117305
aF5.116048632032593
aF0.6244089365794641
aF0.001809312552831345
aa(lp242
S'5_6'
p243
ag11
aS'1112'
p244
aF1718.520963507723
aF1.7305702171255697
aF0.641511511236914
aF0.0006460094109203046
aa(lp245
S'5_6'
p246
ag11
aS'1032'
p247
aF1731.3550127476665
aF1.6024690996528421
aF0.6367561662830568
aF0.0005893546228064778
aa(lp248
S'5_6'
p249
ag11
aS'912'
p250
aF1732.6394802294826
aF3.430658386439758
aF0.6362841162121856
aF0.0012598543807582113
aa(lp251
S'5_6'
p252
ag11
aS'201'
p253
aF1747.1944173246739
aF2.548679270198205
aF0.630983575417007
aF0.0009204326333433053
aa(lp254
S'5_6'
p255
ag11
aS'2814'
p256
aF1739.4314213830237
aF9.343098098534815e-05
aF0.6337996237388864
aF3.404360750651819e-08
aa(lp257
S'5_6'
p258
ag11
aS'992'
p259
aF1734.6150238779085
aF2.5453906461162896
aF0.6355594556811318
aF0.0009326260128457064
aa(lp260
S'5_6'
p261
ag11
aS'2934'
p262
aF1755.0763806536308
aF4.305082955382842
aF0.6281498586298443
aF0.001540808867136805
aa(lp263
S'5_6'
p264
ag11
aS'2854'
p265
aF1733.8346778013492
aF0.02425750057441639
aF0.6358455015965877
aF8.89590156299001e-06
aa(lp266
S'5_6'
p267
ag11
aS'1152'
p268
aF1729.8091687004849
aF2.726749198432445
aF0.6373252034618192
aF0.0010046345106297756
aa(lp269
S'5_6'
p270
ag11
aS'121'
p271
aF1736.4663845036098
aF0.05139905534709835
aF0.6348818440889693
aF1.8792374752779995e-05
aa(lp272
S'5_6'
p273
ag11
aS'1863'
p274
aF1711.1432227540806
aF0.042593598873059406
aF0.6442774431340498
aF1.603728700841539e-05
aa(lp275
S'5_6'
p276
ag11
aS'241'
p277
aF1756.967155794341
aF4.718985370239185
aF0.6274738698195691
aF0.0016853132411272654
aa(lp278
S'5_6'
p279
ag11
aS'161'
p280
aF1739.0918925308051
aF0.3521741295931263
aF0.6339233626049631
aF0.00012837240482402865
aa(lp281
S'5_6'
p282
ag11
aS'2694'
p283
aF1732.8433118401492
aF0.020980402036249172
aF0.6362092711206745
aF7.702904351534419e-06
aa(lp284
S'5_6'
p285
ag11
aS'2894'
p286
aF1762.1749939866638
aF9.269971267040992
aF0.6256194669395588
aF0.0032910888546379535
aa(lp287
S'5_6'
p288
ag11
aS'1823'
p289
aF1709.5847369065348
aF0.10190528582218963
aF0.6448647771546111
aF3.843923498727165e-05
aa(lp290
S'5_6'
p291
ag11
aS'2023'
p292
aF1708.4120395270247
aF0.029212164975015373
aF0.6453074287028389
aF1.1034122114995844e-05
aa(lp293
S'5_6'
p294
ag11
aS'2063'
p295
aF1713.7559178294182
aF0.01622657849130093
aF0.6432952142849384
aF6.0909959108376465e-06
aa(lp296
S'7_8'
p297
ag11
aS'2734'
p298
aF1750.9033332513573
aF0.001123416777015101
aF0.6296469710551923
aF4.0399487364423087e-07
aa(lp299
S'7_8'
p300
ag11
aS'281'
p301
aF1765.6363062433604
aF3.4860770727338406
aF0.6243930171201432
aF0.0012328032526635324
aa(lp302
S'7_8'
p303
ag11
aS'872'
p304
aF1744.9093816569455
aF0.04056485933707558
aF0.6318098761927009
aF1.4688028515953525e-05
aa(lp305
S'7_8'
p306
ag11
aS'1783'
p307
aF1726.6739131434472
aF0.10160574462629123
aF0.638482444195338
aF3.757135825094975e-05
aa(lp308
S'7_8'
p309
ag11
aS'2774'
p310
aF1754.1382072525457
aF2.9519164853282147
aF0.6284858147630755
aF0.0010576348144767113
aa(lp311
S'7_8'
p312
ag11
aS'2654'
p313
aF1753.148540719702
aF2.84085274744609
aF0.6288406000894705
aF0.0010189915486205465
aa(lp314
S'7_8'
p315
ag11
aS'81'
p316
aF1790.8398330933712
aF152.39118357228682
aF0.6156055723240533
aF0.052384842042580516
aa(lp317
S'7_8'
p318
ag11
aS'1903'
p319
aF1731.6337507675782
aF3.771969712891218
aF0.636653668770013
aF0.0013868050072003302
aa(lp320
S'7_8'
p321
ag11
aS'1983'
p322
aF1729.3204427897895
aF0.0016177281527772478
aF0.6375053189180203
aF5.963673801803787e-07
aa(lp323
S'7_8'
p324
ag11
aS'1943'
p325
aF1723.868942916853
aF2.3216023961259644
aF0.6395213423398458
aF0.0008612686520343508
aa(lp326
S'7_8'
p327
ag11
aS'952'
p328
aF1757.1167133814454
aF4.457238089829426
aF0.6274204621675751
aF0.0015915632473439479
aa(lp329
S'7_8'
p330
ag11
aS'1072'
p331
aF1757.2703585074185
aF4.537072056321816
aF0.6273656043049353
aF0.0016197865846932255
aa(lp332
S'7_8'
p333
ag11
aS'41'
p334
aF1774.6457912778203
aF5.3578322569065655
aF0.6212231115699688
aF0.0018755343980552024
aa(lp335
S'7_8'
p336
ag11
ag51
aF1783.331851782645
aF17.084994690957053
aF0.618197325018409
aF0.005922564555411007
aa(lp337
S'7_8'
p338
ag11
aS'1112'
p339
aF1750.8153505013058
aF4.4283721508952185
aF0.6296786123542356
aF0.0015926586605294693
aa(lp340
S'7_8'
p341
ag11
aS'1032'
p342
aF1744.788112935706
aF1.9070442418333102
aF0.6318537891327216
aF0.0006906128723095659
aa(lp343
S'7_8'
p344
ag11
aS'912'
p345
aF1771.079541977923
aF12.097255267351482
aF0.6224740076670702
aF0.004251772317142895
aa(lp346
S'7_8'
p347
ag11
aS'201'
p348
aF1790.655871799505
aF3.943677532501905
aF0.6156688159653244
aF0.0013559273533359048
aa(lp349
S'7_8'
p350
ag11
aS'2814'
p351
aF1754.6306161493758
aF0.02110392961056989
aF0.628309440314874
aF7.5570311380756315e-06
aa(lp352
S'7_8'
p353
ag11
aS'992'
p354
aF1745.6811478075779
aF0.7427085695012801
aF0.631530552859976
aF0.000268687757841724
aa(lp355
S'7_8'
p356
ag11
aS'2934'
p357
aF1771.2523851349374
aF4.61859541505694
aF0.6224132651249302
aF0.0016229618526992834
aa(lp358
S'7_8'
p359
ag11
aS'2854'
p360
aF1744.9649247401478
aF2.1549148679773893e-05
aF0.6317897653767046
aF7.802180660158248e-09
aa(lp361
S'7_8'
p362
ag11
aS'1152'
p363
aF1753.4560117650174
aF2.808447659243212
aF0.628730331981603
aF0.001007014842289395
aa(lp364
S'7_8'
p365
ag11
aS'121'
p366
aF1753.065382281876
aF0.08739894123547672
aF0.6288704297823465
aF3.13522874233785e-05
aa(lp367
S'7_8'
p368
ag11
aS'1863'
p369
aF1740.1232234084912
aF13.27238174466031
aF0.6335476508569982
aF0.004832236109771704
aa(lp370
S'7_8'
p371
ag11
aS'241'
p372
aF1772.4148635036315
aF4.054477523616499
aF0.6220050413100692
aF0.0014228640887058665
aa(lp373
S'7_8'
p374
ag11
aS'161'
p375
aF1757.964009671063
aF0.016103584312708766
aF0.6271180606242556
aF5.744627596315085e-06
aa(lp376
S'7_8'
p377
ag11
aS'2694'
p378
aF1749.600373650637
aF1.7977375565109148
aF0.6301158807435738
aF0.0006474524130347901
aa(lp379
S'7_8'
p380
ag11
aS'2894'
p381
aF1758.0218379522623
aF3.876960639209072
aF0.6270974322345666
aF0.001382936212302336
aa(lp382
S'7_8'
p383
ag11
aS'1823'
p384
aF1721.454971844665
aF0.1901271864244978
aF0.6404181337434578
aF7.073138705068519e-05
aa(lp385
S'7_8'
p386
ag11
aS'2023'
p387
aF1723.5113919330627
aF0.20423760178787104
aF0.6396540142131962
aF7.579955806985568e-05
aa(lp388
S'7_8'
p389
ag11
aS'2063'
p390
aF1724.940592729671
aF0.515407632001752
aF0.6391240284093255
aF0.00019096854896120775
aa(lp391
S'9_10'
p392
ag11
aS'2734'
p393
aF1765.2987926876428
aF3.287804524292735
aF0.6245123969714445
aF0.0011631315292033558
aa(lp394
S'9_10'
p395
ag11
aS'281'
p396
aF1765.8451852629373
aF2.9120074767914716
aF0.6243191586628247
aF0.0010295478182928025
aa(lp397
S'9_10'
p398
ag11
aS'872'
p399
aF1752.5874664308412
aF0.02369592966843475
aF0.6290419174555136
aF8.504986666873087e-06
aa(lp400
S'9_10'
p401
ag11
aS'1783'
p402
aF1727.46312988255
aF1.2136079017840447
aF0.6381907441735746
aF0.00044835303085580117
aa(lp403
S'9_10'
p404
ag11
aS'2774'
p405
aF1778.6986640917467
aF4.627009975494167
aF0.6198076170226953
aF0.0016123338285159658
aa(lp406
S'9_10'
p407
ag11
aS'2654'
p408
aF1767.811012957837
aF4.250576323157396
aF0.6236249080423909
aF0.0014994619047095034
aa(lp409
S'9_10'
p410
ag11
aS'81'
p411
aF1765.7593267252978
aF4.223443218313799
aF0.6243495156481578
aF0.001493354551671551
aa(lp412
S'9_10'
p413
ag11
aS'1903'
p414
aF1735.8812398275982
aF3.239350453077921
aF0.6350958551183193
aF0.001185160596717873
aa(lp415
S'9_10'
p416
ag11
aS'1983'
p417
aF1741.9210058353174
aF3.6827514235732997
aF0.6328937860551775
aF0.0013380575145241433
aa(lp418
S'9_10'
p419
ag11
aS'1943'
p420
aF1731.3699018488285
aF2.673762583807997
aF0.6367506904301121
aF0.0009833370497361199
aa(lp421
S'9_10'
p422
ag11
aS'952'
p423
aF1761.567808009459
aF4.446819622069812
aF0.6258351085774594
aF0.0015798289616493117
aa(lp424
S'9_10'
p425
ag11
aS'1072'
p426
aF1768.0690428454739
aF4.72918643232305
aF0.6235338969670028
aF0.0016678127234693
aa(lp427
S'9_10'
p428
ag11
aS'41'
p429
aF1769.8284342954294
aF4.440984444264268
aF0.6229140401572562
aF0.0015630619945110498
aa(lp430
S'9_10'
p431
ag11
ag51
aF1779.5180951648695
aF5.081342533465752
aF0.6195222085055654
aF0.0017690208135895972
aa(lp432
S'9_10'
p433
ag11
aS'1112'
p434
aF1758.2559977274536
aF2.9028591109116713
aF0.627013917095733
aF0.0010351922952415839
aa(lp435
S'9_10'
p436
ag11
aS'1032'
p437
aF1756.0968330412193
aF2.660743549041966
aF0.627784846284886
aF0.0009511858620267812
aa(lp438
S'9_10'
p439
ag11
aS'912'
p440
aF1749.867305997125
aF14.605148283259227
aF0.6300197601348684
aF0.005258417016317626
aa(lp441
S'9_10'
p442
ag11
aS'201'
p443
aF1764.7481881870474
aF2.847901182047798
aF0.6247072459242594
aF0.0010081350506608107
aa(lp444
S'9_10'
p445
ag11
aS'2814'
p446
aF1766.711906643535
aF3.0352112749410476
aF0.6240128773947272
aF0.0010720542008318685
aa(lp447
S'9_10'
p448
ag11
aS'992'
p449
aF1758.7992647963085
aF3.4300272103567546
aF0.6268202417743419
aF0.0012224308528679033
aa(lp450
S'9_10'
p451
ag11
aS'2934'
p452
aF1771.1336688328622
aF3.815401238189534
aF0.6224549845064193
aF0.0013409013449380452
aa(lp453
S'9_10'
p454
ag11
aS'2854'
p455
aF1755.0097831632677
aF0.41488723478730505
aF0.6281736950805342
aF0.0001485013074105702
aa(lp456
S'9_10'
p457
ag11
aS'1152'
p458
aF1767.3669881544258
aF3.004696070888772
aF0.6237815845725353
aF0.001060489467563882
aa(lp459
S'9_10'
p460
ag11
aS'121'
p461
aF1766.85948210273
aF3.4324300017975915
aF0.6239607572415073
aF0.0012121516423882594
aa(lp462
S'9_10'
p463
ag11
aS'1863'
p464
aF1734.1602629164006
aF2.7468508088855117
aF0.6357261228775505
aF0.001006968532377236
aa(lp465
S'9_10'
p466
ag11
aS'241'
p467
aF1779.1112369429063
aF6.587996580624265
aF0.6196638846970173
aF0.002294597138588758
aa(lp468
S'9_10'
p469
ag11
aS'161'
p470
aF1771.9611414688275
aF4.730515045117095
aF0.6221643096971669
aF0.0016609605925769202
aa(lp471
S'9_10'
p472
ag11
aS'2694'
p473
aF1762.5666474927684
aF3.8939340296563647
aF0.6254804503196411
aF0.001381836887614447
aa(lp474
S'9_10'
p475
ag11
aS'2894'
p476
aF1764.781364983633
aF2.7570294656035013
aF0.6246955018149691
aF0.0009759304691829678
aa(lp477
S'9_10'
p478
ag11
aS'1823'
p479
aF1741.0836305637956
aF3.9862643472887407
aF0.6331981767212196
aF0.0014497266370913403
aa(lp480
S'9_10'
p481
ag11
aS'2023'
p482
aF1733.7433125888292
aF3.2132501591673526
aF0.6358790095322558
aF0.0011785125939662497
aa(lp483
S'9_10'
p484
ag11
aS'2063'
p485
aF1737.0140452363191
aF2.374117140022427
aF0.6346816730789125
aF0.0008674706129447312
aa.