(lp0
(lp1
S'XscanNumber_YscanNumber'
p2
aS'Type'
p3
aS'BCID'
p4
aS'xsec'
p5
aS'xsecErr'
p6
aS'normChange'
p7
aS'normChangeErr'
p8
aa(lp9
S'1_2'
p10
aS'XY'
p11
aS'1631'
p12
aF8921723.811144883
aF21805.406125524078
aF-999.0
aF-999.0
aa(lp13
S'1_2'
p14
ag11
aS'2211'
p15
aF8927247.734438336
aF22935.041514888333
aF-999.0
aF-999.0
aa(lp16
S'1_2'
p17
ag11
aS'771'
p18
aF8971100.485044762
aF21900.43317440874
aF-999.0
aF-999.0
aa(lp19
S'1_2'
p20
ag11
aS'sum'
p21
aF-41.10848267911147
aF-2662.347862777751
aF-999.0
aF-999.0
aa(lp22
S'1_2'
p23
ag11
aS'51'
p24
aF8978686.729619145
aF31648.03641140865
aF-999.0
aF-999.0
aa(lp25
S'1_2'
p26
ag11
aS'2674'
p27
aF8948805.252029167
aF33586.3114958473
aF-999.0
aF-999.0
aa(lp28
S'4_3'
p29
ag11
aS'1631'
p30
aF8975313.936839955
aF32819.94755657137
aF-999.0
aF-999.0
aa(lp31
S'4_3'
p32
ag11
aS'2211'
p33
aF8965812.716009337
aF22636.627150095268
aF-999.0
aF-999.0
aa(lp34
S'4_3'
p35
ag11
aS'771'
p36
aF8981644.931791972
aF29807.41115841062
aF-999.0
aF-999.0
aa(lp37
S'4_3'
p38
ag11
aS'sum'
p39
aF-41.10848267911147
aF-2662.347862777751
aF-999.0
aF-999.0
aa(lp40
S'4_3'
p41
ag11
aS'51'
p42
aF8924348.43120163
aF22017.268835681734
aF-999.0
aF-999.0
aa(lp43
S'4_3'
p44
ag11
aS'2674'
p45
aF8962504.033904705
aF33986.07614544253
aF-999.0
aF-999.0
aa(lp46
S'5_6'
p47
ag11
aS'1631'
p48
aF8709914.02482596
aF23696.037535374326
aF-999.0
aF-999.0
aa(lp49
S'5_6'
p50
ag11
aS'2211'
p51
aF8820313.128778536
aF43473.415304247435
aF-999.0
aF-999.0
aa(lp52
S'5_6'
p53
ag11
aS'771'
p54
aF8729687.199856967
aF34614.37359785103
aF-999.0
aF-999.0
aa(lp55
S'5_6'
p56
ag11
aS'sum'
p57
aF-10.95508908462188
aF-979398.8220713872
aF-999.0
aF-999.0
aa(lp58
S'5_6'
p59
ag11
aS'51'
p60
aF8854131.722841248
aF42054.276282751576
aF-999.0
aF-999.0
aa(lp61
S'5_6'
p62
ag11
aS'2674'
p63
aF8752862.1602729
aF34130.52414248393
aF-999.0
aF-999.0
aa(lp64
S'7_8'
p65
ag11
aS'1631'
p66
aF8995334.24327142
aF28464.690781341025
aF-999.0
aF-999.0
aa(lp67
S'7_8'
p68
ag11
aS'2211'
p69
aF8933728.35445426
aF34566.15370343946
aF-999.0
aF-999.0
aa(lp70
S'7_8'
p71
ag11
aS'771'
p72
aF8879271.149208827
aF35082.25876802248
aF-999.0
aF-999.0
aa(lp73
S'7_8'
p74
ag11
aS'sum'
p75
aF57.665378329325044
aF28234494.000930946
aF-999.0
aF-999.0
aa(lp76
S'7_8'
p77
ag11
aS'51'
p78
aF8929524.523529945
aF38205.87286267602
aF-999.0
aF-999.0
aa(lp79
S'7_8'
p80
ag11
aS'2674'
p81
aF8831756.591816194
aF24138.15539751752
aF-999.0
aF-999.0
aa(lp82
S'9_10'
p83
ag11
aS'1631'
p84
aF8975899.906471938
aF37381.93934913487
aF-999.0
aF-999.0
aa(lp85
S'9_10'
p86
ag11
aS'2211'
p87
aF8941205.377596993
aF39432.61550165601
aF-999.0
aF-999.0
aa(lp88
S'9_10'
p89
ag11
aS'771'
p90
aF9026827.217267739
aF31732.39683229529
aF-999.0
aF-999.0
aa(lp91
S'9_10'
p92
ag11
aS'sum'
p93
aF-41.10848267911147
aF-2662.347862777751
aF-999.0
aF-999.0
aa(lp94
S'9_10'
p95
ag11
aS'51'
p96
aF8982974.653048057
aF49040.0689161477
aF-999.0
aF-999.0
aa(lp97
S'9_10'
p98
ag11
aS'2674'
p99
aF9044909.124060156
aF36108.223636847964
aF-999.0
aF-999.0
aa.