(lp0
(lp1
S'XscanNumber_YscanNumber'
p2
aS'Type'
p3
aS'BCID'
p4
aS'xsec'
p5
aS'xsecErr'
p6
aS'normChange'
p7
aS'normChangeErr'
p8
aa(lp9
S'1_2'
p10
aS'XY'
p11
aS'1631'
p12
aF8867570.731211405
aF21673.336883174983
aF-999.0
aF-999.0
aa(lp13
S'1_2'
p14
ag11
aS'2211'
p15
aF8873062.54938118
aF22793.190190964488
aF-999.0
aF-999.0
aa(lp16
S'1_2'
p17
ag11
aS'771'
p18
aF8916648.520053217
aF21767.33237557253
aF-999.0
aF-999.0
aa(lp19
S'1_2'
p20
ag11
aS'sum'
p21
aF58.52770580277345
aF1850.9866600417845
aF-999.0
aF-999.0
aa(lp22
S'1_2'
p23
ag11
aS'51'
p24
aF8924186.56144263
aF31455.98875974873
aF-999.0
aF-999.0
aa(lp25
S'1_2'
p26
ag11
aS'2674'
p27
aF8894486.167686429
aF33382.47852965162
aF-999.0
aF-999.0
aa(lp28
S'4_3'
p29
ag11
aS'1631'
p30
aF8920833.077441698
aF32622.84810733255
aF-999.0
aF-999.0
aa(lp31
S'4_3'
p32
ag11
aS'2211'
p33
aF8911393.493945602
aF31304.07563914994
aF-999.0
aF-999.0
aa(lp34
S'4_3'
p35
ag11
aS'771'
p36
aF8927127.998752411
aF29626.485747366572
aF-999.0
aF-999.0
aa(lp37
S'4_3'
p38
ag11
aS'sum'
p39
aF58.52770580277345
aF1850.9866600417845
aF-999.0
aF-999.0
aa(lp40
S'4_3'
p41
ag11
aS'51'
p42
aF8870179.382145137
aF21879.536207026245
aF-999.0
aF-999.0
aa(lp43
S'4_3'
p44
ag11
aS'2674'
p45
aF8908108.46039319
aF33779.75839051555
aF-999.0
aF-999.0
aa(lp46
S'5_6'
p47
ag11
aS'1631'
p48
aF8657046.437126413
aF23551.837377922206
aF-999.0
aF-999.0
aa(lp49
S'5_6'
p50
ag11
aS'2211'
p51
aF8766760.18858876
aF43207.13985705619
aF-999.0
aF-999.0
aa(lp52
S'5_6'
p53
ag11
aS'771'
p54
aF8644732.369413061
aF5507.17136888522
aF-999.0
aF-999.0
aa(lp55
S'5_6'
p56
ag11
aS'sum'
p57
aF25592.90399471732
aF558533.8181619152
aF-999.0
aF-999.0
aa(lp58
S'5_6'
p59
ag11
aS'51'
p60
aF8800394.748740051
aF41799.88640013051
aF-999.0
aF-999.0
aa(lp61
S'5_6'
p62
ag11
aS'2674'
p63
aF8699734.081756687
aF24141.038247014854
aF-999.0
aF-999.0
aa(lp64
S'7_8'
p65
ag11
aS'1631'
p66
aF8940862.043184575
aF26155.007441727674
aF-999.0
aF-999.0
aa(lp67
S'7_8'
p68
ag11
aS'2211'
p69
aF8879501.503758669
aF34375.2892824843
aF-999.0
aF-999.0
aa(lp70
S'7_8'
p71
ag11
aS'771'
p72
aF8825375.816654906
aF34868.06771599185
aF-999.0
aF-999.0
aa(lp73
S'7_8'
p74
ag11
aS'sum'
p75
aF16.203391431077634
aF164.7985083803017
aF-999.0
aF-999.0
aa(lp76
S'7_8'
p77
ag11
aS'51'
p78
aF8875326.073943146
aF38027.35201015103
aF-999.0
aF-999.0
aa(lp79
S'7_8'
p80
ag11
aS'2674'
p81
aF8778149.64172668
aF23957.796886553246
aF-999.0
aF-999.0
aa(lp82
S'9_10'
p83
ag11
aS'1631'
p84
aF8921409.990517238
aF40038.43156322625
aF-999.0
aF-999.0
aa(lp85
S'9_10'
p86
ag11
aS'2211'
p87
aF8886939.909694605
aF39190.41702658286
aF-999.0
aF-999.0
aa(lp88
S'9_10'
p89
ag11
aS'771'
p90
aF8975426.278300459
aF31879.73104922215
aF-999.0
aF-999.0
aa(lp91
S'9_10'
p92
ag11
aS'sum'
p93
aF58.52770580277345
aF1850.9866600417845
aF-999.0
aF-999.0
aa(lp94
S'9_10'
p95
ag11
aS'51'
p96
aF8928448.699131202
aF48627.698501762825
aF-999.0
aF-999.0
aa(lp97
S'9_10'
p98
ag11
aS'2674'
p99
aF8990007.794539738
aF35889.000278334504
aF-999.0
aF-999.0
aa.