(lp0
(lp1
S'XscanNumber_YscanNumber'
p2
aS'Type'
p3
aS'BCID'
p4
aS'xsec'
p5
aS'xsecErr'
p6
aS'normChange'
p7
aS'normChangeErr'
p8
aa(lp9
S'1_2'
p10
aS'XY'
p11
aS'1631'
p12
aF26758.800316152137
aF47.04971659256204
aF0.041199566773055064
aF7.244076406663507e-05
aa(lp13
S'1_2'
p14
ag11
aS'2211'
p15
aF26699.054474700177
aF61.072109012367385
aF0.04129176115344576
aF9.445184438518193e-05
aa(lp16
S'1_2'
p17
ag11
aS'771'
p18
aF26755.43984179298
aF60.16182034102472
aF0.04120474142496017
aF9.265227054629161e-05
aa(lp19
S'1_2'
p20
ag11
aS'sum'
p21
aF4.8796862188531445e-05
aF0.00041605551522077997
aF22592661.30950654
aF192631266.02317733
aa(lp22
S'1_2'
p23
ag11
aS'51'
p24
aF26807.64869118139
aF64.23932134709119
aF0.04112449372536047
aF9.85468587004019e-05
aa(lp25
S'1_2'
p26
ag11
aS'2674'
p27
aF26761.239929894957
aF66.62469945738465
aF0.04119581092954553
aF0.00010256096239465187
aa(lp28
S'4_3'
p29
ag11
aS'1631'
p30
aF26872.978006614172
aF65.20311386153318
aF0.04102451838872542
aF9.953963207785358e-05
aa(lp31
S'4_3'
p32
ag11
aS'2211'
p33
aF26850.638418873838
aF61.00605481421855
aF0.04105865056889011
aF9.328740151827691e-05
aa(lp34
S'4_3'
p35
ag11
aS'771'
p36
aF26766.255216999758
aF60.34883742921788
aF0.04118809192598483
aF9.286519326327928e-05
aa(lp37
S'4_3'
p38
ag11
aS'sum'
p39
aF4.8796862188531445e-05
aF0.00041605551522077997
aF22592661.30950654
aF192631266.02317733
aa(lp40
S'4_3'
p41
ag11
aS'51'
p42
aF26829.706224640526
aF63.592888254872314
aF0.041090684003824866
aF9.739485234361768e-05
aa(lp43
S'4_3'
p44
ag11
aS'2674'
p45
aF26703.735005791434
aF66.61351915516856
aF0.04128452368753136
aF0.0001029858710354542
aa(lp46
S'5_6'
p47
ag11
aS'1631'
p48
aF26303.16307284138
aF64.84337331659644
aF0.04191324736645316
aF0.00010332583721461097
aa(lp49
S'5_6'
p50
ag11
aS'2211'
p51
aF26280.03045360919
aF64.46024538601662
aF0.04195014090026486
aF0.00010289624211746959
aa(lp52
S'5_6'
p53
ag11
aS'771'
p54
aF26419.891553233734
aF60.473319545775844
aF0.041728066073655756
aF9.551268098943313e-05
aa(lp55
S'5_6'
p56
ag11
aS'sum'
p57
aF2.199631797005471e-05
aF4.375000352416774e-05
aF50119796.49925996
aF99686741.9564648
aa(lp58
S'5_6'
p59
ag11
aS'51'
p60
aF26382.023789695708
aF64.36832762026084
aF0.0417879609684361
aF0.00010195658921547777
aa(lp61
S'5_6'
p62
ag11
aS'2674'
p63
aF26457.069545966235
aF67.42213577486137
aF0.04166942897726335
aF0.00010618870292058981
aa(lp64
S'7_8'
p65
ag11
aS'1631'
p66
aF26891.082468349574
aF67.5259741145148
aF0.04099689856998974
aF0.00010294697191423334
aa(lp67
S'7_8'
p68
ag11
aS'2211'
p69
aF26753.536680136804
aF64.68052216087017
aF0.041207672599438895
aF9.962547429270427e-05
aa(lp70
S'7_8'
p71
ag11
aS'771'
p72
aF26725.49181265433
aF61.67535100549667
aF0.04125091459945198
aF9.519617655882854e-05
aa(lp73
S'7_8'
p74
ag11
aS'sum'
p75
aF7.455360530520607e-06
aF1.3749950964857628e-05
aF147873597.24307966
aF272723861.27615875
aa(lp76
S'7_8'
p77
ag11
aS'51'
p78
aF26867.751986908104
aF64.7598921864598
aF0.041032498026978594
aF9.89014693027934e-05
aa(lp79
S'7_8'
p80
ag11
aS'2674'
p81
aF26771.08888469728
aF71.07735645483137
aF0.041180655188901676
aF0.00010933481714216659
aa(lp82
S'9_10'
p83
ag11
aS'1631'
p84
aF26808.11354082417
aF67.3247061519585
aF0.04112378063131196
aF0.00010327643691319439
aa(lp85
S'9_10'
p86
ag11
aS'2211'
p87
aF26736.430758573457
aF64.07052913017704
aF0.041234037196181794
aF9.881223882083088e-05
aa(lp88
S'9_10'
p89
ag11
aS'771'
p90
aF26811.978916781685
aF62.77153826906854
aF0.04111785198003905
aF9.626409252065475e-05
aa(lp91
S'9_10'
p92
ag11
aS'sum'
p93
aF4.8796862188531445e-05
aF0.00041605551522077997
aF22592661.30950654
aF192631266.02317733
aa(lp94
S'9_10'
p95
ag11
aS'51'
p96
aF26768.876504015167
aF65.24056368628995
aF0.04118405866704178
aF0.00010037295371451343
aa(lp97
S'9_10'
p98
ag11
aS'2674'
p99
aF26938.746220517365
aF68.70629696725699
aF0.04092436119215143
aF0.0001043761016287284
aa.