(dp0
S'Scan_10'
p1
(lp2
(lp3
I10
aVY3
p4
aS'1'
p5
a(lp6
(dp7
S'281'
p8
cnumpy.core.multiarray
scalar
p9
(cnumpy
dtype
p10
(S'f8'
p11
I0
I1
tp12
Rp13
(I3
S'<'
p14
NNNI-1
I-1
I0
tp15
bS'\xe0\xfd\xea\xbd\xa3?\xd9?'
p16
tp17
Rp18
sS'1783'
p19
g9
(g13
S'\xe0\x98\xdb\xf9\x97^\xd5?'
p20
tp21
Rp22
sS'872'
p23
g9
(g13
S'np\tyDM\xdb?'
p24
tp25
Rp26
sS'2063'
p27
g9
(g13
S' \x846\x1c?U\xd8?'
p28
tp29
Rp30
sS'41'
p31
g9
(g13
S'\x95\xdf\xdd(\tm\xd8?'
p32
tp33
Rp34
sa(dp35
S'281'
p36
g9
(g13
S'\xae\xc9\x84dg\xbe\xb7?'
p37
tp38
Rp39
sS'1783'
p40
g9
(g13
S'\xa9\xfb\x02\x9e\n1\xa7?'
p41
tp42
Rp43
sS'872'
p44
g9
(g13
S'n\x87\xe3\x8eA\x94\xb3?'
p45
tp46
Rp47
sS'2063'
p48
g9
(g13
S'\xf2_sB\xc2\xce\xb0?'
p49
tp50
Rp51
sS'41'
p52
g9
(g13
S'r/oC\x04_\xb1?'
p53
tp54
Rp55
saaa(lp56
I10
ag4
aS'2'
p57
a(lp58
(dp59
S'281'
p60
g9
(g13
S"\xb9\xed\xf6\x8c'\xb9\xd9?"
p61
tp62
Rp63
sS'1783'
p64
g9
(g13
S'\x12g\xec\xab\xa4\x0f\xe3?'
p65
tp66
Rp67
sS'872'
p68
g9
(g13
S'\x8c\x06*\xc2\x8a\xd0\xd6?'
p69
tp70
Rp71
sS'2063'
p72
g9
(g13
S']\xeb2\xbe\x91\xcd\xe0?'
p73
tp74
Rp75
sS'41'
p76
g9
(g13
S'q\xd3\x05\xf1\xd8\x10\xdb?'
p77
tp78
Rp79
sa(dp80
S'281'
p81
g9
(g13
S'\xd26\xdcd\x7f\x14\xb1?'
p82
tp83
Rp84
sS'1783'
p85
g9
(g13
S'1\x169n\x05\xb6\xb8?'
p86
tp87
Rp88
sS'872'
p89
g9
(g13
S"\x8c\xf2'=\xe1\x0b\xac?"
p90
tp91
Rp92
sS'2063'
p93
g9
(g13
S'\x7f\xe8z\xcb\xeaZ\xbc?'
p94
tp95
Rp96
sS'41'
p97
g9
(g13
S'\x8d\xffIE\xf6c\xaf?'
p98
tp99
Rp100
saaa(lp101
I10
ag4
aS'3'
p102
a(lp103
(dp104
S'281'
p105
g9
(g13
S'\xfdvT\xa1[\xae\xdf?'
p106
tp107
Rp108
sS'1783'
p109
g9
(g13
S'\x03\x1c\xc3*Zf\xde?'
p110
tp111
Rp112
sS'872'
p113
g9
(g13
S'@\x04y\x9a+\xd6\xd7?'
p114
tp115
Rp116
sS'2063'
p117
g9
(g13
S'\x9a\xf8\xf9\xcd\xc1\xb6\xe0?'
p118
tp119
Rp120
sS'41'
p121
g9
(g13
S'e\xe9H\xa4pe\xe2?'
p122
tp123
Rp124
sa(dp125
S'281'
p126
g9
(g13
S'\x18\x82\x8a\xda\xba\xd8\xb2?'
p127
tp128
Rp129
sS'1783'
p130
g9
(g13
S'4\xac\xbe4,\xce\xb2?'
p131
tp132
Rp133
sS'872'
p134
g9
(g13
S'Tg\xb2_\xa5\x9a\xa8?'
p135
tp136
Rp137
sS'2063'
p138
g9
(g13
S'\xe8\x10F\xf9=.\xb5?'
p139
tp140
Rp141
sS'41'
p142
g9
(g13
S'\xc79H\x83a\x94\xb5?'
p143
tp144
Rp145
saaa(lp146
I10
ag4
aS'4'
p147
a(lp148
(dp149
S'281'
p150
g9
(g13
S'\t\xcbKv\xc2k\xe4?'
p151
tp152
Rp153
sS'1783'
p154
g9
(g13
S'\xa8\xbf%\x16u\xf4\xe1?'
p155
tp156
Rp157
sS'872'
p158
g9
(g13
S'\x1fH\xc66}\xf3\xdc?'
p159
tp160
Rp161
sS'2063'
p162
g9
(g13
S'\xe5 \xa5\xc1\xd9\x8e\xe2?'
p163
tp164
Rp165
sS'41'
p166
g9
(g13
S'\xab\x92\xeb6\xef\\\xe5?'
p167
tp168
Rp169
sa(dp170
S'281'
p171
g9
(g13
S'\x82\xf6\x0b\xe5x6\xb4?'
p172
tp173
Rp174
sS'1783'
p175
g9
(g13
S'\xd9\x0f(V&\x03\xb6?'
p176
tp177
Rp178
sS'872'
p179
g9
(g13
S'\xee\xa4W\xa9wv\xa7?'
p180
tp181
Rp182
sS'2063'
p183
g9
(g13
S'~>}\xe7E\x83\xb3?'
p184
tp185
Rp186
sS'41'
p187
g9
(g13
S'u\xeb\xb25\xa2\x99\xb3?'
p188
tp189
Rp190
saaa(lp191
I10
ag4
aS'5'
p192
a(lp193
(dp194
S'281'
p195
g9
(g13
S'\x1b\xa0HC\x8d?\xeb?'
p196
tp197
Rp198
sS'1783'
p199
g9
(g13
S'\x98yuZj\xa4\xeb?'
p200
tp201
Rp202
sS'872'
p203
g9
(g13
S'M\xdd\xd0h\x0c\xe5\xe9?'
p204
tp205
Rp206
sS'2063'
p207
g9
(g13
S'\xec8\x90^\x1a\x14\xf1?'
p208
tp209
Rp210
sS'41'
p211
g9
(g13
S'\xbax7\xc8\xec\xb8\xf3?'
p212
tp213
Rp214
sa(dp215
S'281'
p216
g9
(g13
S'\xf6|/\xf9\x10v\xb6?'
p217
tp218
Rp219
sS'1783'
p220
g9
(g13
S'RH\x01\x05\x84W\xb6?'
p221
tp222
Rp223
sS'872'
p224
g9
(g13
S'\x06ec\x0ft\x9c\xb8?'
p225
tp226
Rp227
sS'2063'
p228
g9
(g13
S'\x9dA\xdbY\xc3\xd0\xb9?'
p229
tp230
Rp231
sS'41'
p232
g9
(g13
S'\x01),\x80\xcc\x98\xb5?'
p233
tp234
Rp235
saaa(lp236
I10
ag4
aS'6'
p237
a(lp238
(dp239
S'281'
p240
g9
(g13
S',\xf2\xb5i\xd4y\xfa?'
p241
tp242
Rp243
sS'1783'
p244
g9
(g13
S'I\xdc \xe0\x11>\xf8?'
p245
tp246
Rp247
sS'872'
p248
g9
(g13
S'\x02\xf6\xdf\xb4\xba\xe6\xfb?'
p249
tp250
Rp251
sS'2063'
p252
g9
(g13
S'\x85jP\xca,\xa6\xfd?'
p253
tp254
Rp255
sS'41'
p256
g9
(g13
S'\x88\xf5\xb2r\xcb\xfd\x03@'
p257
tp258
Rp259
sa(dp260
S'281'
p261
g9
(g13
S'$4\xb1\x13,\x95\xb6?'
p262
tp263
Rp264
sS'1783'
p265
g9
(g13
S'\xac+\xad\xba\xec\x81\xb7?'
p266
tp267
Rp268
sS'872'
p269
g9
(g13
S'\xca\xef\xfa\xebg\xc2\xba?'
p270
tp271
Rp272
sS'2063'
p273
g9
(g13
S'\xa22\xd6K]\xe1\xba?'
p274
tp275
Rp276
sS'41'
p277
g9
(g13
S'\xce\x10l}8\xbb\xba?'
p278
tp279
Rp280
saaa(lp281
I10
ag4
aS'7'
p282
a(lp283
(dp284
S'281'
p285
g9
(g13
S'v\xe2=u\x87\xbf\x10@'
p286
tp287
Rp288
sS'1783'
p289
g9
(g13
S'Rr\xf2\xad-\xf7\r@'
p290
tp291
Rp292
sS'872'
p293
g9
(g13
S'\x05\xa1\xa1+\xc5\x9d\r@'
p294
tp295
Rp296
sS'2063'
p297
g9
(g13
S'\x8f\x98D$$\x19\x11@'
p298
tp299
Rp300
sS'41'
p301
g9
(g13
S'g\xed\x88\xb1\xda-\x14@'
p302
tp303
Rp304
sa(dp305
S'281'
p306
g9
(g13
S'P\x7f&\xb8\xf1\xa4\xc2?'
p307
tp308
Rp309
sS'1783'
p310
g9
(g13
S'\xad\xeb %\xd3e\xc1?'
p311
tp312
Rp313
sS'872'
p314
g9
(g13
S'nT\t\xfd\x91\xa8\xbe?'
p315
tp316
Rp317
sS'2063'
p318
g9
(g13
S'y]\xe9\x83\x8b\x83\xc0?'
p319
tp320
Rp321
sS'41'
p322
g9
(g13
S'\xa9\x9ci\x08\xc3\xbe\xc0?'
p323
tp324
Rp325
saaa(lp326
I10
ag4
aS'8'
p327
a(lp328
(dp329
S'281'
p330
g9
(g13
S'xYB0\xe1""@'
p331
tp332
Rp333
sS'1783'
p334
g9
(g13
S'\x91\x9b\xa4\xe5\xa7\xf2 @'
p335
tp336
Rp337
sS'872'
p338
g9
(g13
S'\xa4)l0\x8b$!@'
p339
tp340
Rp341
sS'2063'
p342
g9
(g13
S'p\x8c\xf3\x8d\x13z$@'
p343
tp344
Rp345
sS'41'
p346
g9
(g13
S'\xce*w\xe7L\x0b%@'
p347
tp348
Rp349
sa(dp350
S'281'
p351
g9
(g13
S'\x8a\xb0\xd2\x97|\xf7\xc6?'
p352
tp353
Rp354
sS'1783'
p355
g9
(g13
S'\x9f\xc70\xa6ef\xc4?'
p356
tp357
Rp358
sS'872'
p359
g9
(g13
S'\xb6\xb10$\x8f\x99\xc4?'
p360
tp361
Rp362
sS'2063'
p363
g9
(g13
S'\t\x03S\xfe\xc0\xdf\xc6?'
p364
tp365
Rp366
sS'41'
p367
g9
(g13
S'6\xf3\xb5]"\xff\xc6?'
p368
tp369
Rp370
saaa(lp371
I10
ag4
aS'9'
p372
a(lp373
(dp374
S'281'
p375
g9
(g13
S'B`\n\xab\xe4\x862@'
p376
tp377
Rp378
sS'1783'
p379
g9
(g13
S'\x01\xe52\xdf\xf6d1@'
p380
tp381
Rp382
sS'872'
p383
g9
(g13
S'\xe5\x19\x17\xea\xc8,1@'
p384
tp385
Rp386
sS'2063'
p387
g9
(g13
S'\xdc\xc5*!\xde\x984@'
p388
tp389
Rp390
sS'41'
p391
g9
(g13
S'?)\xe9\xecG#3@'
p392
tp393
Rp394
sa(dp395
S'281'
p396
g9
(g13
S'n\x10\x15<\xb24\xcf?'
p397
tp398
Rp399
sS'1783'
p400
g9
(g13
S'\x10\xd5\xc9\xe3\x08\x1d\xcd?'
p401
tp402
Rp403
sS'872'
p404
g9
(g13
S'\x8a-\xadv\xa1p\xcd?'
p405
tp406
Rp407
sS'2063'
p408
g9
(g13
S'\xe6\x06\x064\x8f\xca\xce?'
p409
tp410
Rp411
sS'41'
p412
g9
(g13
S'\x1d\x14\x03\x05\xee\x84\xcd?'
p413
tp414
Rp415
saaa(lp416
I10
ag4
aS'10'
p417
a(lp418
(dp419
S'281'
p420
g9
(g13
S'\xeb\xf9\xc9\x8aX`?@'
p421
tp422
Rp423
sS'1783'
p424
g9
(g13
S'>\xaa\x05\xa9\xfcU>@'
p425
tp426
Rp427
sS'872'
p428
g9
(g13
S'\x00\xb5\t%\x03\xab=@'
p429
tp430
Rp431
sS'2063'
p432
g9
(g13
S'L\x15\x10\xaa\x98?B@'
p433
tp434
Rp435
sS'41'
p436
g9
(g13
S'\xc3\xf7|\x0b$\x13?@'
p437
tp438
Rp439
sa(dp440
S'281'
p441
g9
(g13
S'\xda\xf3b\xd9\xaa\x0f\xd3?'
p442
tp443
Rp444
sS'1783'
p445
g9
(g13
S'\xd5\x12\x9eaz\xc0\xd2?'
p446
tp447
Rp448
sS'872'
p449
g9
(g13
S',\x8eD\xbaWi\xd3?'
p450
tp451
Rp452
sS'2063'
p453
g9
(g13
S'zX\xa2\xa1j\x98\xd4?'
p454
tp455
Rp456
sS'41'
p457
g9
(g13
S'\xbc\x9eZ\x06\x13\xf4\xd2?'
p458
tp459
Rp460
saaa(lp461
I10
ag4
aS'11'
p462
a(lp463
(dp464
S'281'
p465
g9
(g13
S'\x0b|\xb7\xa4\x06\xaeG@'
p466
tp467
Rp468
sS'1783'
p469
g9
(g13
S'\xbcG%b\xfe\xcdF@'
p470
tp471
Rp472
sS'872'
p473
g9
(g13
S'\xeb\xeaSz\x08\xfcE@'
p474
tp475
Rp476
sS'2063'
p477
g9
(g13
S'\xf7\xd3\xd6DC\xd1J@'
p478
tp479
Rp480
sS'41'
p481
g9
(g13
S'\x1b\xb8F\xa1i\xa3E@'
p482
tp483
Rp484
sa(dp485
S'281'
p486
g9
(g13
S'^c\x88\xb9\xf9\xe0\xd7?'
p487
tp488
Rp489
sS'1783'
p490
g9
(g13
S'\xb1\xf4P\xd3L\x17\xd7?'
p491
tp492
Rp493
sS'872'
p494
g9
(g13
S'\x85A\xda\xe54\xd1\xd6?'
p495
tp496
Rp497
sS'2063'
p498
g9
(g13
S'\xe6\xc6\xa0\xde\x89\x18\xda?'
p499
tp500
Rp501
sS'41'
p502
g9
(g13
S'\x1b\xd7\x02nJ\xfd\xd6?'
p503
tp504
Rp505
saaa(lp506
I10
ag4
aS'12'
p507
a(lp508
(dp509
S'281'
p510
g9
(g13
S'\xf4m\r\xf0\x82nM@'
p511
tp512
Rp513
sS'1783'
p514
g9
(g13
S';\x92\xd7\x1b%\x86L@'
p515
tp516
Rp517
sS'872'
p518
g9
(g13
S'\xfb\xf4\xafI7CK@'
p519
tp520
Rp521
sS'2063'
p522
g9
(g13
S'\xc6T\xc2\xf9y\x9bP@'
p523
tp524
Rp525
sS'41'
p526
g9
(g13
S'\xe8\xb0?\x12\x8bkJ@'
p527
tp528
Rp529
sa(dp530
S'281'
p531
g9
(g13
S'\x93C\x18\x1a\xf2&\xda?'
p532
tp533
Rp534
sS'1783'
p535
g9
(g13
S'P\x00\xce\x12x}\xd9?'
p536
tp537
Rp538
sS'872'
p539
g9
(g13
S'aEi\xbd^:\xd9?'
p540
tp541
Rp542
sS'2063'
p543
g9
(g13
S'\xe0z\xb3\x11\xa5\x81\xdb?'
p544
tp545
Rp546
sS'41'
p547
g9
(g13
S'x/k\xce\xaa\xcb\xd8?'
p548
tp549
Rp550
saaa(lp551
I10
ag4
aS'13'
p552
a(lp553
(dp554
S'281'
p555
g9
(g13
S'\xf1\x92J\x90C\xe7O@'
p556
tp557
Rp558
sS'1783'
p559
g9
(g13
S'Rh\x11\xc4x\xd4N@'
p560
tp561
Rp562
sS'872'
p563
g9
(g13
S'-\xba:\x97|BM@'
p564
tp565
Rp566
sS'2063'
p567
g9
(g13
S'\xa9\xb2;}\xe1\xddQ@'
p568
tp569
Rp570
sS'41'
p571
g9
(g13
S'\xe5\xdawW\xda\x06L@'
p572
tp573
Rp574
sa(dp575
S'281'
p576
g9
(g13
S'w\xba\x05\x14\x00y\xdb?'
p577
tp578
Rp579
sS'1783'
p580
g9
(g13
S'\x19kQ\x1bpi\xdb?'
p581
tp582
Rp583
sS'872'
p584
g9
(g13
S'$\xd0~!\x92M\xda?'
p585
tp586
Rp587
sS'2063'
p588
g9
(g13
S'\xe8\x95\xeaRLk\xdd?'
p589
tp590
Rp591
sS'41'
p592
g9
(g13
S'\xf1\xbd\x8c1\x14\xc9\xd9?'
p593
tp594
Rp595
saaa(lp596
I10
ag4
aS'14'
p597
a(lp598
(dp599
S'281'
p600
g9
(g13
S'N*\x7f\x85\x0emM@'
p601
tp602
Rp603
sS'1783'
p604
g9
(g13
S'\xb3\xe7\xe4\xc9\xf3\xfbK@'
p605
tp606
Rp607
sS'872'
p608
g9
(g13
S"\x05Z9'g-K@"
p609
tp610
Rp611
sS'2063'
p612
g9
(g13
S'\xa4Q{$\xacmP@'
p613
tp614
Rp615
sS'41'
p616
g9
(g13
S':su\x1e\x8flJ@'
p617
tp618
Rp619
sa(dp620
S'281'
p621
g9
(g13
S"'\x19}\xd2\x1c\x8f\xda?"
p622
tp623
Rp624
sS'1783'
p625
g9
(g13
S'\x8f\x8f\xd3+g\xee\xd9?'
p626
tp627
Rp628
sS'872'
p629
g9
(g13
S'\xc1\x82\xafx\x85\xea\xd8?'
p630
tp631
Rp632
sS'2063'
p633
g9
(g13
S'\x11\x9d\xe7\xa9:\xd6\xdb?'
p634
tp635
Rp636
sS'41'
p637
g9
(g13
S'\xb9yzj\x9d\x06\xd9?'
p638
tp639
Rp640
saaa(lp641
I10
ag4
aS'15'
p642
a(lp643
(dp644
S'281'
p645
g9
(g13
S'Z/\x1f\xa6\x16\xd6F@'
p646
tp647
Rp648
sS'1783'
p649
g9
(g13
S'\xe8]\xc5c;DF@'
p650
tp651
Rp652
sS'872'
p653
g9
(g13
S'S\xd5\xb7\xc1`\xa1E@'
p654
tp655
Rp656
sS'2063'
p657
g9
(g13
S'\xd6\xb2\x03\xf8y6J@'
p658
tp659
Rp660
sS'41'
p661
g9
(g13
S'\x19\xf40\x04\x91KE@'
p662
tp663
Rp664
sa(dp665
S'281'
p666
g9
(g13
S'<DEG(\xc8\xd6?'
p667
tp668
Rp669
sS'1783'
p670
g9
(g13
S'\xe7\x1de\xae\x8d\xa8\xd6?'
p671
tp672
Rp673
sS'872'
p674
g9
(g13
S'eg4\xf4\r\xd1\xd6?'
p675
tp676
Rp677
sS'2063'
p678
g9
(g13
S'\x9b@\x9f\xe9<\xe8\xd8?'
p679
tp680
Rp681
sS'41'
p682
g9
(g13
S'\xe2\x82\xc13\xde\x16\xd6?'
p683
tp684
Rp685
saaa(lp686
I10
ag4
aS'16'
p687
a(lp688
(dp689
S'281'
p690
g9
(g13
S'\x01X8d/\xca>@'
p691
tp692
Rp693
sS'1783'
p694
g9
(g13
S'U\xb7&\xc5\x03\xb3<@'
p695
tp696
Rp697
sS'872'
p698
g9
(g13
S'\xb4\xe36\x1d\xd8\xf3<@'
p699
tp700
Rp701
sS'2063'
p702
g9
(g13
S'\xab\xa1:9\xe3AA@'
p703
tp704
Rp705
sS'41'
p706
g9
(g13
S'?\xfbu\xed\xfd7=@'
p707
tp708
Rp709
sa(dp710
S'281'
p711
g9
(g13
S'\x81\xdc\\\xca\xe9t\xd3?'
p712
tp713
Rp714
sS'1783'
p715
g9
(g13
S'\xf1\x9f}*OX\xd3?'
p716
tp717
Rp718
sS'872'
p719
g9
(g13
S'=l\xb9\x11\xc6G\xd3?'
p720
tp721
Rp722
sS'2063'
p723
g9
(g13
S'\xc7\xa2\x82\xe7t\x01\xd5?'
p724
tp725
Rp726
sS'41'
p727
g9
(g13
S'\xb5[?\x91\x16\x1d\xd3?'
p728
tp729
Rp730
saaa(lp731
I10
ag4
aS'17'
p732
a(lp733
(dp734
S'281'
p735
g9
(g13
S'T\xdd\xb8=\x0cF1@'
p736
tp737
Rp738
sS'1783'
p739
g9
(g13
S'\xaa\xeb\xb4\xafM\xb10@'
p740
tp741
Rp742
sS'872'
p743
g9
(g13
S'\x06\x17\x9a\xbc\x84\xd50@'
p744
tp745
Rp746
sS'2063'
p747
g9
(g13
S'g\x80\r"\xab\x973@'
p748
tp749
Rp750
sS'41'
p751
g9
(g13
S"Y*'\n\x87\x802@"
p752
tp753
Rp754
sa(dp755
S'281'
p756
g9
(g13
S'\x965\x11\x8b\xc3\x9c\xcd?'
p757
tp758
Rp759
sS'1783'
p760
g9
(g13
S'w\xea[\\\x1d}\xcd?'
p761
tp762
Rp763
sS'872'
p764
g9
(g13
S'\x1c\x7f\x07\x95\xc6\x02\xd0?'
p765
tp766
Rp767
sS'2063'
p768
g9
(g13
S'\xe4\x92\x11X~\x11\xcf?'
p769
tp770
Rp771
sS'41'
p772
g9
(g13
S'\xbb*Z\x10I\xd6\xce?'
p773
tp774
Rp775
saaa(lp776
I10
ag4
aS'18'
p777
a(lp778
(dp779
S'281'
p780
g9
(g13
S'CX\xe4u\xc1\x0f!@'
p781
tp782
Rp783
sS'1783'
p784
g9
(g13
S'Z\xaa\xbd\x8c\xe6\xe0\x1f@'
p785
tp786
Rp787
sS'872'
p788
g9
(g13
S'\xa3\x855\xc2|V @'
p789
tp790
Rp791
sS'2063'
p792
g9
(g13
S'diPm\x96\xa2"@'
p793
tp794
Rp795
sS'41'
p796
g9
(g13
S'`Y\xae\x11e\x12%@'
p797
tp798
Rp799
sa(dp800
S'281'
p801
g9
(g13
S'\xdcu\x00\x83\xf3\xeb\xc4?'
p802
tp803
Rp804
sS'1783'
p805
g9
(g13
S'$\xbbP\xb0\xca\x9c\xc4?'
p806
tp807
Rp808
sS'872'
p809
g9
(g13
S';\xc9;\x82\xae5\xc5?'
p810
tp811
Rp812
sS'2063'
p813
g9
(g13
S'\xaf\xe1~\xc3|\x01\xc5?'
p814
tp815
Rp816
sS'41'
p817
g9
(g13
S"\x0b\xcfR'k\n\xc9?"
p818
tp819
Rp820
saaa(lp821
I10
ag4
aS'19'
p822
a(lp823
(dp824
S'281'
p825
g9
(g13
S'Z\x02\xf5m.\xaf\r@'
p826
tp827
Rp828
sS'1783'
p829
g9
(g13
S'\x1fD\x01\xf2\xf0\n\x0b@'
p830
tp831
Rp832
sS'872'
p833
g9
(g13
S'\xa8\xf7\x84\x84=\xfb\x0c@'
p834
tp835
Rp836
sS'2063'
p837
g9
(g13
S'\xe5\xfc\xd6_\xa4\xa9\x10@'
p838
tp839
Rp840
sS'41'
p841
g9
(g13
S'\xa0\xc9N\x9agH\x13@'
p842
tp843
Rp844
sa(dp845
S'281'
p846
g9
(g13
S'[\x9b\xbc)\xd2\r\xc0?'
p847
tp848
Rp849
sS'1783'
p850
g9
(g13
S'\xcd\x04\x8c\x97\x17h\xbd?'
p851
tp852
Rp853
sS'872'
p854
g9
(g13
S'a\x08}\xd8ag\xbd?'
p855
tp856
Rp857
sS'2063'
p858
g9
(g13
S'3\xfa\n\xa3Jr\xc0?'
p859
tp860
Rp861
sS'41'
p862
g9
(g13
S'\xaa\x8di\xbc\xb6\xd3\xc0?'
p863
tp864
Rp865
saaa(lp866
I10
ag4
aS'20'
p867
a(lp868
(dp869
S'281'
p870
g9
(g13
S'\xd1v\x11l\x8e5\xf9?'
p871
tp872
Rp873
sS'1783'
p874
g9
(g13
S'\xdf\xda\x16b\x8c\x1c\xf7?'
p875
tp876
Rp877
sS'872'
p878
g9
(g13
S';1(\xa9\xc3\xb6\xf7?'
p879
tp880
Rp881
sS'2063'
p882
g9
(g13
S'\xfb\xf2\xae \x0b\xae\xfc?'
p883
tp884
Rp885
sS'41'
p886
g9
(g13
S'\xc4\xd3G\xc8At\x03@'
p887
tp888
Rp889
sa(dp890
S'281'
p891
g9
(g13
S'\xcc\xb4N\x88j\x19\xb5?'
p892
tp893
Rp894
sS'1783'
p895
g9
(g13
S'\xba\xe7\xcf\xe0\x06\xef\xb5?'
p896
tp897
Rp898
sS'872'
p899
g9
(g13
S'&\xad\x92z5_\xb3?'
p900
tp901
Rp902
sS'2063'
p903
g9
(g13
S'\xbd\xbe\xde\x05\x14\x96\xb7?'
p904
tp905
Rp906
sS'41'
p907
g9
(g13
S'f\xb4?h^\x80\xbf?'
p908
tp909
Rp910
saaa(lp911
I10
ag4
aS'21'
p912
a(lp913
(dp914
S'281'
p915
g9
(g13
S'\xf3R\xaf.5w\xea?'
p916
tp917
Rp918
sS'1783'
p919
g9
(g13
S'u\xca\x17\x92\x99\x93\xe8?'
p920
tp921
Rp922
sS'872'
p923
g9
(g13
S'\xb9H\x95\xbe\xc9\xdb\xe6?'
p924
tp925
Rp926
sS'2063'
p927
g9
(g13
S'\xf00>\xcc\xcc\x11\xec?'
p928
tp929
Rp930
sS'41'
p931
g9
(g13
S'i\x97y\xa9\xc8\xac\xf3?'
p932
tp933
Rp934
sa(dp935
S'281'
p936
g9
(g13
S',\xd9\xc0\xd9b\x06\xb7?'
p937
tp938
Rp939
sS'1783'
p940
g9
(g13
S'\xcc\xca[\n\xb5\x18\xb3?'
p941
tp942
Rp943
sS'872'
p944
g9
(g13
S'\xe34\xbe\xf5\xd3w\xb1?'
p945
tp946
Rp947
sS'2063'
p948
g9
(g13
S'\xef\xd0-/v\x90\xbe?'
p949
tp950
Rp951
sS'41'
p952
g9
(g13
S'\xb2\xcd\x8c\x1b\xc8d\xbb?'
p953
tp954
Rp955
saaa(lp956
I10
ag4
aS'22'
p957
a(lp958
(dp959
S'281'
p960
g9
(g13
S'"#H\x01\xb5\xb6\xe3?'
p961
tp962
Rp963
sS'1783'
p964
g9
(g13
S'\xd6r\x9a\xc0}&\xdd?'
p965
tp966
Rp967
sS'872'
p968
g9
(g13
S'\xfb\x89\x87\xb0\xbbv\xe0?'
p969
tp970
Rp971
sS'2063'
p972
g9
(g13
S'v\xeb\xa4\xa9Z}\xe3?'
p973
tp974
Rp975
sS'41'
p976
g9
(g13
S'\x8f\x9c\xf5\xf2\xab\xe9\xe1?'
p977
tp978
Rp979
sa(dp980
S'281'
p981
g9
(g13
S'I\xf8\x1e\x18\xd4\xd9\xb7?'
p982
tp983
Rp984
sS'1783'
p985
g9
(g13
S'\xfa\x8a\tq +\xb1?'
p986
tp987
Rp988
sS'872'
p989
g9
(g13
S'`\xfc\x1a\xea\xaa\xeb\xb1?'
p990
tp991
Rp992
sS'2063'
p993
g9
(g13
S'\xc9\xaca\x14z\x1f\xb8?'
p994
tp995
Rp996
sS'41'
p997
g9
(g13
S'\xe1\xfcH\xbaw\xea\xa5?'
p998
tp999
Rp1000
saaa(lp1001
I10
ag4
aS'23'
p1002
a(lp1003
(dp1004
S'281'
p1005
g9
(g13
S'\x10\xb4D:\xa3\x81\xda?'
p1006
tp1007
Rp1008
sS'1783'
p1009
g9
(g13
S'M\xf8\xf0\x8c\x96R\xdb?'
p1010
tp1011
Rp1012
sS'872'
p1013
g9
(g13
S'\x8bm\xf6&\x9cG\xdd?'
p1014
tp1015
Rp1016
sS'2063'
p1017
g9
(g13
S'\xccz\x9a\xc7A\xfe\xd8?'
p1018
tp1019
Rp1020
sS'41'
p1021
g9
(g13
S'/D\xb8\xb8#T\xdc?'
p1022
tp1023
Rp1024
sa(dp1025
S'281'
p1026
g9
(g13
S'n[\x86\xbd@\x8d\xab?'
p1027
tp1028
Rp1029
sS'1783'
p1030
g9
(g13
S'*(\xf0m\x1ep\xb0?'
p1031
tp1032
Rp1033
sS'872'
p1034
g9
(g13
S'`\x17\xe9\x17-\xbc\xb6?'
p1035
tp1036
Rp1037
sS'2063'
p1038
g9
(g13
S'D\xd6w\xec\xe1\xce\xaf?'
p1039
tp1040
Rp1041
sS'41'
p1042
g9
(g13
S'\x13.\xa9`\xac\xcf\xb0?'
p1043
tp1044
Rp1045
saaa(lp1046
I10
ag4
aS'24'
p1047
a(lp1048
(dp1049
S'281'
p1050
g9
(g13
S'-\xe7\x80\xddU\x0e\xe1?'
p1051
tp1052
Rp1053
sS'1783'
p1054
g9
(g13
S'a\x8f\xbc7\x1f!\xd6?'
p1055
tp1056
Rp1057
sS'872'
p1058
g9
(g13
S'&S\x98\x83\xe0\\\xd4?'
p1059
tp1060
Rp1061
sS'2063'
p1062
g9
(g13
S'\xd1+p\r\xa6\xc2\xe1?'
p1063
tp1064
Rp1065
sS'41'
p1066
g9
(g13
S'\xec\xe0\xcf\xf2\x07\xe7\xe1?'
p1067
tp1068
Rp1069
sa(dp1070
S'281'
p1071
g9
(g13
S'Ve\x94\xe8\xfd\xbe\xba?'
p1072
tp1073
Rp1074
sS'1783'
p1075
g9
(g13
S'\n\xe2\x17\x0f>\xf0\xa9?'
p1076
tp1077
Rp1078
sS'872'
p1079
g9
(g13
S'\xcf,9\xcb<\xa3\xa4?'
p1080
tp1081
Rp1082
sS'2063'
p1083
g9
(g13
S'\x947A\x04)\r\xbb?'
p1084
tp1085
Rp1086
sS'41'
p1087
g9
(g13
S'gN!k\xfa \xb9?'
p1088
tp1089
Rp1090
saaasS'Scan_4'
p1091
(lp1092
(lp1093
I4
aVX2
p1094
ag5
a(lp1095
(dp1096
S'281'
p1097
g9
(g13
S'\xb8**\x08h\x84\xdb?'
p1098
tp1099
Rp1100
sS'1783'
p1101
g9
(g13
S'\x10Y\xc0\x9fqL\xd5?'
p1102
tp1103
Rp1104
sS'872'
p1105
g9
(g13
S'\x11\x168\x19@\xf8\xd6?'
p1106
tp1107
Rp1108
sS'2063'
p1109
g9
(g13
S'\x10s\xbb\x9fj\x89\xd8?'
p1110
tp1111
Rp1112
sS'41'
p1113
g9
(g13
S'\xac\xba\x858\x16W\xd8?'
p1114
tp1115
Rp1116
sa(dp1117
S'281'
p1118
g9
(g13
S'qUSt\xd7\xe9\xb4?'
p1119
tp1120
Rp1121
sS'1783'
p1122
g9
(g13
S'\xf3\xea\x9fF4\x0f\xa8?'
p1123
tp1124
Rp1125
sS'872'
p1126
g9
(g13
S'\xe6\x03\xf6*j\xde\xa7?'
p1127
tp1128
Rp1129
sS'2063'
p1130
g9
(g13
S'I\xec\xb89\xbb\xa9\xb2?'
p1131
tp1132
Rp1133
sS'41'
p1134
g9
(g13
S'V\xa8\xf4\xaepz\xb3?'
p1135
tp1136
Rp1137
saaa(lp1138
I4
ag1094
ag57
a(lp1139
(dp1140
S'281'
p1141
g9
(g13
S'\xdeT\xf3\x94U+\xe2?'
p1142
tp1143
Rp1144
sS'1783'
p1145
g9
(g13
S'\xc8\x14\xebiUa\xdf?'
p1146
tp1147
Rp1148
sS'872'
p1149
g9
(g13
S'\x02q\x8c4\t\x13\xdc?'
p1150
tp1151
Rp1152
sS'2063'
p1153
g9
(g13
S'\xaf\xff\x84\x9b\xe1\x8b\xe2?'
p1154
tp1155
Rp1156
sS'41'
p1157
g9
(g13
S'\x1d\xa0\x04\x1b\xca\x91\xe0?'
p1158
tp1159
Rp1160
sa(dp1161
S'281'
p1162
g9
(g13
S'\x1d<\x85I\xe5\x14\xbb?'
p1163
tp1164
Rp1165
sS'1783'
p1166
g9
(g13
S'\xbc]b>\xd2\xd2\xb5?'
p1167
tp1168
Rp1169
sS'872'
p1170
g9
(g13
S'\xa3\xf1^\xaf\xc5.\xb4?'
p1171
tp1172
Rp1173
sS'2063'
p1174
g9
(g13
S'\xf7\rt\xcb4\xe0\xbf?'
p1175
tp1176
Rp1177
sS'41'
p1178
g9
(g13
S'\xb31*.\x9f\xfd\xb5?'
p1179
tp1180
Rp1181
saaa(lp1182
I4
ag1094
ag102
a(lp1183
(dp1184
S'281'
p1185
g9
(g13
S'\xc3\xc8\x8b\xc0\xf6w\xe1?'
p1186
tp1187
Rp1188
sS'1783'
p1189
g9
(g13
S'1\x91(L$\n\xe3?'
p1190
tp1191
Rp1192
sS'872'
p1193
g9
(g13
S'Kf\xe7\xca\x998\xe2?'
p1194
tp1195
Rp1196
sS'2063'
p1197
g9
(g13
S'\x0f<y\xe3\xbc\x00\xdc?'
p1198
tp1199
Rp1200
sS'41'
p1201
g9
(g13
S'M\x82@DY\xe8\xde?'
p1202
tp1203
Rp1204
sa(dp1205
S'281'
p1206
g9
(g13
S'<Uh\xba9\xf9\xb4?'
p1207
tp1208
Rp1209
sS'1783'
p1210
g9
(g13
S"\x1ei'\xf2M_\xb8?"
p1211
tp1212
Rp1213
sS'872'
p1214
g9
(g13
S'\x10\xe9\x04=\xc5\xe9\xb4?'
p1215
tp1216
Rp1217
sS'2063'
p1218
g9
(g13
S"1\xae\x97\xbeT'\xb1?"
p1219
tp1220
Rp1221
sS'41'
p1222
g9
(g13
S'j\xae)wY\xbd\xb1?'
p1223
tp1224
Rp1225
saaa(lp1226
I4
ag1094
ag147
a(lp1227
(dp1228
S'281'
p1229
g9
(g13
S'^H\xd1\x0f\x9d\x91\xe4?'
p1230
tp1231
Rp1232
sS'1783'
p1233
g9
(g13
S'\r\xcf\xdc\xce~}\xe2?'
p1234
tp1235
Rp1236
sS'872'
p1237
g9
(g13
S'\x92\xfe\x13\xe8N\xaf\xe9?'
p1238
tp1239
Rp1240
sS'2063'
p1241
g9
(g13
S'\xfeS\xd6\x0f\x8a4\xe7?'
p1242
tp1243
Rp1244
sS'41'
p1245
g9
(g13
S'\xee\xc3d\x08@n\xe8?'
p1246
tp1247
Rp1248
sa(dp1249
S'281'
p1250
g9
(g13
S'\xa1\xe1\x8a\xe8\x8c\xee\xb2?'
p1251
tp1252
Rp1253
sS'1783'
p1254
g9
(g13
S'?\x84\xf0\x94\x17\xb7\xb2?'
p1255
tp1256
Rp1257
sS'872'
p1258
g9
(g13
S'\x1bw\xcc\x00\x0b\xca\xbe?'
p1259
tp1260
Rp1261
sS'2063'
p1262
g9
(g13
S'XNab\xef\xd1\xb4?'
p1263
tp1264
Rp1265
sS'41'
p1266
g9
(g13
S'.y\xf0\x122\xfb\xb1?'
p1267
tp1268
Rp1269
saaa(lp1270
I4
ag1094
ag192
a(lp1271
(dp1272
S'281'
p1273
g9
(g13
S'p\xea*\x95g:\xf3?'
p1274
tp1275
Rp1276
sS'1783'
p1277
g9
(g13
S'\x1b\xcb\xff\xe6.+\xf5?'
p1278
tp1279
Rp1280
sS'872'
p1281
g9
(g13
S'\xf7x}Y\x02\xc9\xf2?'
p1282
tp1283
Rp1284
sS'2063'
p1285
g9
(g13
S'\x10\xb8\xc5g\x9e&\xf5?'
p1286
tp1287
Rp1288
sS'41'
p1289
g9
(g13
S'p\x05\x86\x1d\xfc\r\xf4?'
p1290
tp1291
Rp1292
sa(dp1293
S'281'
p1294
g9
(g13
S'\x00\x8e\xd7*\xdd2\xb4?'
p1295
tp1296
Rp1297
sS'1783'
p1298
g9
(g13
S'\xf4\xa4\x867\x89\xed\xbb?'
p1299
tp1300
Rp1301
sS'872'
p1302
g9
(g13
S'\x0f\xa2\x95\x9b\xd8\xb2\xb6?'
p1303
tp1304
Rp1305
sS'2063'
p1306
g9
(g13
S'\x08\xe8\xfa\x17\x90[\xc0?'
p1307
tp1308
Rp1309
sS'41'
p1310
g9
(g13
S'\xcf\x1c\xa8\x02&\xfb\xb4?'
p1311
tp1312
Rp1313
saaa(lp1314
I4
ag1094
ag237
a(lp1315
(dp1316
S'281'
p1317
g9
(g13
S'\xfe0\xb9d\xa3I\x05@'
p1318
tp1319
Rp1320
sS'1783'
p1321
g9
(g13
S'K\xe6\xf9Cx\xe8\x03@'
p1322
tp1323
Rp1324
sS'872'
p1325
g9
(g13
S'\xc7\xd7NL8o\x04@'
p1326
tp1327
Rp1328
sS'2063'
p1329
g9
(g13
S'\xb3\x9e+\xd8Lc\x06@'
p1330
tp1331
Rp1332
sS'41'
p1333
g9
(g13
S'\xd4\xe7\xdagu\x92\x08@'
p1334
tp1335
Rp1336
sa(dp1337
S'281'
p1338
g9
(g13
S'\xcc:\xea\xb6\x13b\xbd?'
p1339
tp1340
Rp1341
sS'1783'
p1342
g9
(g13
S'M\x7f\xc1lT\x19\xbd?'
p1343
tp1344
Rp1345
sS'872'
p1346
g9
(g13
S'$\xf6\x06\\\xab\x98\xbc?'
p1347
tp1348
Rp1349
sS'2063'
p1350
g9
(g13
S'\x88&{0\x8d\x8f\xbc?'
p1351
tp1352
Rp1353
sS'41'
p1354
g9
(g13
S'\xf3?\xcc\xee\x9a\x05\xbd?'
p1355
tp1356
Rp1357
saaa(lp1358
I4
ag1094
ag282
a(lp1359
(dp1360
S'281'
p1361
g9
(g13
S'%\xae\xa4\x10q\xc5\x16@'
p1362
tp1363
Rp1364
sS'1783'
p1365
g9
(g13
S'\xd1\x9d\xc7\xdbuK\x14@'
p1366
tp1367
Rp1368
sS'872'
p1369
g9
(g13
S'\xb6;\x9a\xa0\x10=\x15@'
p1370
tp1371
Rp1372
sS'2063'
p1373
g9
(g13
S'\xe3`!k\xd3j\x18@'
p1374
tp1375
Rp1376
sS'41'
p1377
g9
(g13
S'\x85A\xf2[\xa9\xa8\x18@'
p1378
tp1379
Rp1380
sa(dp1381
S'281'
p1382
g9
(g13
S'~\xc8]\x02\xb2f\xc5?'
p1383
tp1384
Rp1385
sS'1783'
p1386
g9
(g13
S'\xe2425<\xbf\xc1?'
p1387
tp1388
Rp1389
sS'872'
p1390
g9
(g13
S'\x88\x95\x99\xa7Z5\xc2?'
p1391
tp1392
Rp1393
sS'2063'
p1394
g9
(g13
S'C\xc9V\x8c\xec?\xc6?'
p1395
tp1396
Rp1397
sS'41'
p1398
g9
(g13
S'\x07\x7f\x89b\xf0\xba\xc5?'
p1399
tp1400
Rp1401
saaa(lp1402
I4
ag1094
ag327
a(lp1403
(dp1404
S'281'
p1405
g9
(g13
S"\xae\x1b OKh'@"
p1406
tp1407
Rp1408
sS'1783'
p1409
g9
(g13
S'z\xa0\xe6]\x99\x8d%@'
p1410
tp1411
Rp1412
sS'872'
p1413
g9
(g13
S'\x13\xdd@|D\x8e&@'
p1414
tp1415
Rp1416
sS'2063'
p1417
g9
(g13
S'\x82\x0f`<a\x9d)@'
p1418
tp1419
Rp1420
sS'41'
p1421
g9
(g13
S'\xa6\x90`\xd2\xc8S&@'
p1422
tp1423
Rp1424
sa(dp1425
S'281'
p1426
g9
(g13
S'\x86H\xb2\xce\xc5\xf3\xca?'
p1427
tp1428
Rp1429
sS'1783'
p1430
g9
(g13
S'=\x05\xd5h\x06\xc8\xc8?'
p1431
tp1432
Rp1433
sS'872'
p1434
g9
(g13
S'\xf5B\xedg6#\xcb?'
p1435
tp1436
Rp1437
sS'2063'
p1438
g9
(g13
S'\xa4\xfdK\xb2\xed\xd3\xcb?'
p1439
tp1440
Rp1441
sS'41'
p1442
g9
(g13
S'a\x94\xc6v\x1a\x9a\xc9?'
p1443
tp1444
Rp1445
saaa(lp1446
I4
ag1094
ag372
a(lp1447
(dp1448
S'281'
p1449
g9
(g13
S'\xf1S;\xc1\r\x915@'
p1450
tp1451
Rp1452
sS'1783'
p1453
g9
(g13
S'\x97\xdf\x0b\x12\xa3J4@'
p1454
tp1455
Rp1456
sS'872'
p1457
g9
(g13
S'\xc0\x0f\x1c%\xe0\xbd3@'
p1458
tp1459
Rp1460
sS'2063'
p1461
g9
(g13
S'\x06j(M\xf2\xec7@'
p1462
tp1463
Rp1464
sS'41'
p1465
g9
(g13
S'n\xb7 \xa9{(4@'
p1466
tp1467
Rp1468
sa(dp1469
S'281'
p1470
g9
(g13
S'\xdf\x04j_V\xc0\xd2?'
p1471
tp1472
Rp1473
sS'1783'
p1474
g9
(g13
S'\x8at\x88da\xfa\xd1?'
p1475
tp1476
Rp1477
sS'872'
p1478
g9
(g13
S'\xccJi\xdc \x14\xd1?'
p1479
tp1480
Rp1481
sS'2063'
p1482
g9
(g13
S'V\x18E@\r\xe6\xd3?'
p1483
tp1484
Rp1485
sS'41'
p1486
g9
(g13
S'(\xf1H\x8a\xb2"\xd2?'
p1487
tp1488
Rp1489
saaa(lp1490
I4
ag1094
aS'10'
p1491
a(lp1492
(dp1493
S'281'
p1494
g9
(g13
S'|_\xa0\x08\xf5GA@'
p1495
tp1496
Rp1497
sS'1783'
p1498
g9
(g13
S'v\x80\xe3q\xd70@@'
p1499
tp1500
Rp1501
sS'872'
p1502
g9
(g13
S'\xf9\xcc^[\xd8\x8d?@'
p1503
tp1504
Rp1505
sS'2063'
p1506
g9
(g13
S'\xc3\x00\x1b\xf7\xed9C@'
p1507
tp1508
Rp1509
sS'41'
p1510
g9
(g13
S'\xa7^v4\xa1"?@'
p1511
tp1512
Rp1513
sa(dp1514
S'281'
p1515
g9
(g13
S'n\xbab\x1d[\x13\xd6?'
p1516
tp1517
Rp1518
sS'1783'
p1519
g9
(g13
S'p\xc3\x86\xde\xeb\xc6\xd4?'
p1520
tp1521
Rp1522
sS'872'
p1523
g9
(g13
S'\xc7\r%\x047\xa8\xd4?'
p1524
tp1525
Rp1526
sS'2063'
p1527
g9
(g13
S'\xf9\x84C!\x82\x9e\xd6?'
p1528
tp1529
Rp1530
sS'41'
p1531
g9
(g13
S'(\x1e\xecOXe\xd5?'
p1532
tp1533
Rp1534
saaa(lp1535
I4
ag1094
aS'11'
p1536
a(lp1537
(dp1538
S'281'
p1539
g9
(g13
S';Z\xc8\x0e\x9f\xbfG@'
p1540
tp1541
Rp1542
sS'1783'
p1543
g9
(g13
S'U\x18\x0e\xa1s\xf3F@'
p1544
tp1545
Rp1546
sS'872'
p1547
g9
(g13
S'2&J\xff\xa3\xfcE@'
p1548
tp1549
Rp1550
sS'2063'
p1551
g9
(g13
S'\xa7ePZ\x85\xfcJ@'
p1552
tp1553
Rp1554
sS'41'
p1555
g9
(g13
S'}\xe7\xbd\xe4+$E@'
p1556
tp1557
Rp1558
sa(dp1559
S'281'
p1560
g9
(g13
S'\xd9(\xa0\x95\xb0\x87\xd9?'
p1561
tp1562
Rp1563
sS'1783'
p1564
g9
(g13
S'\x9b\xb5c\x970\xf0\xd8?'
p1565
tp1566
Rp1567
sS'872'
p1568
g9
(g13
S'\xfa\xb8\xaf\x9ar\xe8\xd7?'
p1569
tp1570
Rp1571
sS'2063'
p1572
g9
(g13
S'04\x06< \x86\xda?'
p1573
tp1574
Rp1575
sS'41'
p1576
g9
(g13
S'!\xb8\xadb\x89\xad\xd7?'
p1577
tp1578
Rp1579
saaa(lp1580
I4
ag1094
aS'12'
p1581
a(lp1582
(dp1583
S'281'
p1584
g9
(g13
S'\xae\x1am\x88sLM@'
p1585
tp1586
Rp1587
sS'1783'
p1588
g9
(g13
S'(\xf7\x86\xb7y>L@'
p1589
tp1590
Rp1591
sS'872'
p1592
g9
(g13
S'=r+\x06\xd1\xacJ@'
p1593
tp1594
Rp1595
sS'2063'
p1596
g9
(g13
S'\xa6\xd2\x18\xc8\xa8dP@'
p1597
tp1598
Rp1599
sS'41'
p1600
g9
(g13
S'n\xd8\x03\xff\xa7\xb0I@'
p1601
tp1602
Rp1603
sa(dp1604
S'281'
p1605
g9
(g13
S'\xd4\xa3\x92\xd4\x01\xaa\xdb?'
p1606
tp1607
Rp1608
sS'1783'
p1609
g9
(g13
S'\x19\xea\x0e\x00\xffp\xdb?'
p1610
tp1611
Rp1612
sS'872'
p1613
g9
(g13
S'\xc4\xe6\x9f\xaf\xfb\xd7\xd9?'
p1614
tp1615
Rp1616
sS'2063'
p1617
g9
(g13
S'!\xa3\xb78O\xe1\xdc?'
p1618
tp1619
Rp1620
sS'41'
p1621
g9
(g13
S'\xa2W\xff\x87\xb9-\xda?'
p1622
tp1623
Rp1624
saaa(lp1625
I4
ag1094
aS'13'
p1626
a(lp1627
(dp1628
S'281'
p1629
g9
(g13
S'Y\xd2\xdd\t\x91\xecN@'
p1630
tp1631
Rp1632
sS'1783'
p1633
g9
(g13
S'\xca\xbf\x0f\xc2\x9b(N@'
p1634
tp1635
Rp1636
sS'872'
p1637
g9
(g13
S'\xef\xf3\xc3\xf1\xc7eL@'
p1638
tp1639
Rp1640
sS'2063'
p1641
g9
(g13
S'U\xf3\xa0\xfb\x88\x85Q@'
p1642
tp1643
Rp1644
sS'41'
p1645
g9
(g13
S'\xb2/j\xed75K@'
p1646
tp1647
Rp1648
sa(dp1649
S'281'
p1650
g9
(g13
S'n]\x8a\x1c\x85w\xdb?'
p1651
tp1652
Rp1653
sS'1783'
p1654
g9
(g13
S"\x81g\xc2*X'\xdb?"
p1655
tp1656
Rp1657
sS'872'
p1658
g9
(g13
S'\xb8\x15\xa3\xb5\x1f\xee\xda?'
p1659
tp1660
Rp1661
sS'2063'
p1662
g9
(g13
S'm\xfc\xd0\n\xed\x87\xdd?'
p1663
tp1664
Rp1665
sS'41'
p1666
g9
(g13
S'\xb8\x8d\xee\x0b\x08\xc3\xda?'
p1667
tp1668
Rp1669
saaa(lp1670
I4
ag1094
aS'14'
p1671
a(lp1672
(dp1673
S'281'
p1674
g9
(g13
S'\xc1A\x15\x81\x94oM@'
p1675
tp1676
Rp1677
sS'1783'
p1678
g9
(g13
S'\x1a\xdd\x03p\xed\x17L@'
p1679
tp1680
Rp1681
sS'872'
p1682
g9
(g13
S' {\xcc\xc4\xc0\xc0J@'
p1683
tp1684
Rp1685
sS'2063'
p1686
g9
(g13
S'x\xc7)pRzP@'
p1687
tp1688
Rp1689
sS'41'
p1690
g9
(g13
S'omy\xab\xc5]I@'
p1691
tp1692
Rp1693
sa(dp1694
S'281'
p1695
g9
(g13
S'\x0e\xef\xe2j7\x1e\xda?'
p1696
tp1697
Rp1698
sS'1783'
p1699
g9
(g13
S'K)-\xfdU\x9b\xd9?'
p1700
tp1701
Rp1702
sS'872'
p1703
g9
(g13
S'D9\xc4\xd0\xdd\xfe\xd8?'
p1704
tp1705
Rp1706
sS'2063'
p1707
g9
(g13
S'\x83\xda\xbba$\xa8\xdb?'
p1708
tp1709
Rp1710
sS'41'
p1711
g9
(g13
S'Uf\x91@\x9a\x1b\xd8?'
p1712
tp1713
Rp1714
saaa(lp1715
I4
ag1094
aS'15'
p1716
a(lp1717
(dp1718
S'281'
p1719
g9
(g13
S'n\x99\xa8\x87K\x81G@'
p1720
tp1721
Rp1722
sS'1783'
p1723
g9
(g13
S'\xbb\xc9\x1bQF\x04G@'
p1724
tp1725
Rp1726
sS'872'
p1727
g9
(g13
S'\xa0\x84\x08\x1aU9F@'
p1728
tp1729
Rp1730
sS'2063'
p1731
g9
(g13
S'3\x14\x02C\xd7\xdbJ@'
p1732
tp1733
Rp1734
sS'41'
p1735
g9
(g13
S'A;y\np\x19E@'
p1736
tp1737
Rp1738
sa(dp1739
S'281'
p1740
g9
(g13
S'\x94iO@#\xbb\xd7?'
p1741
tp1742
Rp1743
sS'1783'
p1744
g9
(g13
S'\xae~\xc9\x95\xd9T\xd7?'
p1745
tp1746
Rp1747
sS'872'
p1748
g9
(g13
S"f\xec\xb8\x86&'\xd7?"
p1749
tp1750
Rp1751
sS'2063'
p1752
g9
(g13
S'\xd2\x89\xcd\xdc\xf4\x1d\xd9?'
p1753
tp1754
Rp1755
sS'41'
p1756
g9
(g13
S'\\D\x83\xc4K\xff\xd6?'
p1757
tp1758
Rp1759
saaa(lp1760
I4
ag1094
aS'16'
p1761
a(lp1762
(dp1763
S'281'
p1764
g9
(g13
S'\x82\x98kK\xa0\tA@'
p1765
tp1766
Rp1767
sS'1783'
p1768
g9
(g13
S'97A\x0f\t(@@'
p1769
tp1770
Rp1771
sS'872'
p1772
g9
(g13
S'}_g?rm?@'
p1773
tp1774
Rp1775
sS'2063'
p1776
g9
(g13
S'\xba\xb0\xea\xdd\x96\xeeB@'
p1777
tp1778
Rp1779
sS'41'
p1780
g9
(g13
S'8\xc6\xa9\xe2pT?@'
p1781
tp1782
Rp1783
sa(dp1784
S'281'
p1785
g9
(g13
S'\xcc\x83\x94qz\xd3\xd4?'
p1786
tp1787
Rp1788
sS'1783'
p1789
g9
(g13
S'\xce\x8e\xcd\xb6P\x87\xd3?'
p1790
tp1791
Rp1792
sS'872'
p1793
g9
(g13
S'\xef\xf0\xc7kR\xc8\xd3?'
p1794
tp1795
Rp1796
sS'2063'
p1797
g9
(g13
S'A\xc28\x881i\xd5?'
p1798
tp1799
Rp1800
sS'41'
p1801
g9
(g13
S'>\x80\xd0\xf1\x86\x04\xd4?'
p1802
tp1803
Rp1804
saaa(lp1805
I4
ag1094
aS'17'
p1806
a(lp1807
(dp1808
S'281'
p1809
g9
(g13
S'V\xe2\xba\xec\x97\xeb4@'
p1810
tp1811
Rp1812
sS'1783'
p1813
g9
(g13
S'\x19\xae\xa8n\xfb\x8b3@'
p1814
tp1815
Rp1816
sS'872'
p1817
g9
(g13
S'\xac\x80q\xf4o34@'
p1818
tp1819
Rp1820
sS'2063'
p1821
g9
(g13
S'\xa6D\x97\nh\x0b7@'
p1822
tp1823
Rp1824
sS'41'
p1825
g9
(g13
S'\n4\x91\x0f\x88L3@'
p1826
tp1827
Rp1828
sa(dp1829
S'281'
p1830
g9
(g13
S'|\xe8\xa6`<b\xd0?'
p1831
tp1832
Rp1833
sS'1783'
p1834
g9
(g13
S'\x8a\xdao\xcc\x9f\x8d\xce?'
p1835
tp1836
Rp1837
sS'872'
p1838
g9
(g13
S'7xr\x89\x15\x0c\xd1?'
p1839
tp1840
Rp1841
sS'2063'
p1842
g9
(g13
S'\x0cA\x8aE<\xa5\xd0?'
p1843
tp1844
Rp1845
sS'41'
p1846
g9
(g13
S'\t\xbeS\xb1\xb8\x8a\xd0?'
p1847
tp1848
Rp1849
saaa(lp1850
I4
ag1094
aS'18'
p1851
a(lp1852
(dp1853
S'281'
p1854
g9
(g13
S'\xcf\x04\x1f\xefw\xc0%@'
p1855
tp1856
Rp1857
sS'1783'
p1858
g9
(g13
S'\xd0\xaa\x82\x0e\x92\xc3%@'
p1859
tp1860
Rp1861
sS'872'
p1862
g9
(g13
S'>\xfbb\xf7t\x96%@'
p1863
tp1864
Rp1865
sS'2063'
p1866
g9
(g13
S'\x05\x80yX5\xfc(@'
p1867
tp1868
Rp1869
sS'41'
p1870
g9
(g13
S"Q\xd3\x98a!\x1a'@"
p1871
tp1872
Rp1873
sa(dp1874
S'281'
p1875
g9
(g13
S'_\x87\xc3\x82\xf9\x91\xc6?'
p1876
tp1877
Rp1878
sS'1783'
p1879
g9
(g13
S'\xe0\x93d\xf6\\\xfa\xc9?'
p1880
tp1881
Rp1882
sS'872'
p1883
g9
(g13
S'$\xd9\xb9_,\xea\xc7?'
p1884
tp1885
Rp1886
sS'2063'
p1887
g9
(g13
S'\x96\x15{P\xd5\x16\xca?'
p1888
tp1889
Rp1890
sS'41'
p1891
g9
(g13
S'mc\x91\x02\xf1y\xca?'
p1892
tp1893
Rp1894
saaa(lp1895
I4
ag1094
aS'19'
p1896
a(lp1897
(dp1898
S'281'
p1899
g9
(g13
S'i\x16\x02\xd1G\x82\x15@'
p1900
tp1901
Rp1902
sS'1783'
p1903
g9
(g13
S'\x15\r\x8e\xda\xbf,\x14@'
p1904
tp1905
Rp1906
sS'872'
p1907
g9
(g13
S'w\x88E\x16\xc8\xf0\x14@'
p1908
tp1909
Rp1910
sS'2063'
p1911
g9
(g13
S'\x1f[\x94\x19>;\x17@'
p1912
tp1913
Rp1914
sS'41'
p1915
g9
(g13
S'6\x92\x83\x17n\x17\x17@'
p1916
tp1917
Rp1918
sa(dp1919
S'281'
p1920
g9
(g13
S'\x1d\xd3Z\x08\xb19\xc1?'
p1921
tp1922
Rp1923
sS'1783'
p1924
g9
(g13
S'$\xceNpO\x15\xc1?'
p1925
tp1926
Rp1927
sS'872'
p1928
g9
(g13
S'\x94RI-\xe2\xfb\xc1?'
p1929
tp1930
Rp1931
sS'2063'
p1932
g9
(g13
S'[\x19X{\xaf\x0b\xc2?'
p1933
tp1934
Rp1935
sS'41'
p1936
g9
(g13
S'o\xa5q\xc3\xd2\x02\xc2?'
p1937
tp1938
Rp1939
saaa(lp1940
I4
ag1094
aS'20'
p1941
a(lp1942
(dp1943
S'281'
p1944
g9
(g13
S"G\xde]_\x91'\x04@"
p1945
tp1946
Rp1947
sS'1783'
p1948
g9
(g13
S'\xdfe;3Ni\x02@'
p1949
tp1950
Rp1951
sS'872'
p1952
g9
(g13
S'\x03\xaa5\r\xd0\xcc\x01@'
p1953
tp1954
Rp1955
sS'2063'
p1956
g9
(g13
S'\x16\xca_\r\xfd\xe7\x04@'
p1957
tp1958
Rp1959
sS'41'
p1960
g9
(g13
S'\x9f\x95\xa6\x05D?\x05@'
p1961
tp1962
Rp1963
sa(dp1964
S'281'
p1965
g9
(g13
S'+?\xbb\xc5\xeb\xc5\xbc?'
p1966
tp1967
Rp1968
sS'1783'
p1969
g9
(g13
S'\x08\x0b\xfc\xf3\x1aN\xbc?'
p1970
tp1971
Rp1972
sS'872'
p1973
g9
(g13
S'[\xe7\x99\xab\xf9\xb5\xb7?'
p1974
tp1975
Rp1976
sS'2063'
p1977
g9
(g13
S'\ty\xcdPfV\xc1?'
p1978
tp1979
Rp1980
sS'41'
p1981
g9
(g13
S'WC1\x7fQ\xbd\xb8?'
p1982
tp1983
Rp1984
saaa(lp1985
I4
ag1094
aS'21'
p1986
a(lp1987
(dp1988
S'281'
p1989
g9
(g13
S'Y\x00p\xfc\x83$\xf1?'
p1990
tp1991
Rp1992
sS'1783'
p1993
g9
(g13
S'\xb9?D>\xc9\x95\xf1?'
p1994
tp1995
Rp1996
sS'872'
p1997
g9
(g13
S'\xa5\xa33Z\xb9\xc7\xf1?'
p1998
tp1999
Rp2000
sS'2063'
p2001
g9
(g13
S'n\xd3\x99o\xcb\xf1\xf5?'
p2002
tp2003
Rp2004
sS'41'
p2005
g9
(g13
S'\xc8\n\xa1\xf3\xf5,\xf7?'
p2006
tp2007
Rp2008
sa(dp2009
S'281'
p2010
g9
(g13
S'\xb6l\x1e\xdbf\xf0\xb3?'
p2011
tp2012
Rp2013
sS'1783'
p2014
g9
(g13
S'>\x86]\xfdx\xec\xb5?'
p2015
tp2016
Rp2017
sS'872'
p2018
g9
(g13
S'u \x10\xa9xT\xb3?'
p2019
tp2020
Rp2021
sS'2063'
p2022
g9
(g13
S'\x10\xba\x00\xe0\xcfC\xbd?'
p2023
tp2024
Rp2025
sS'41'
p2026
g9
(g13
S'\x01%}\xea\xe7s\xb8?'
p2027
tp2028
Rp2029
saaa(lp2030
I4
ag1094
aS'22'
p2031
a(lp2032
(dp2033
S'281'
p2034
g9
(g13
S'\xce\xcfr*^\x05\xe7?'
p2035
tp2036
Rp2037
sS'1783'
p2038
g9
(g13
S'\x8a\x100OC\xdb\xe9?'
p2039
tp2040
Rp2041
sS'872'
p2042
g9
(g13
S'\x8fR\x97\xa0"4\xe0?'
p2043
tp2044
Rp2045
sS'2063'
p2046
g9
(g13
S'\xe1\x0ep^\x08\x1f\xe5?'
p2047
tp2048
Rp2049
sS'41'
p2050
g9
(g13
S'\x01\x93xi\x85\xde\xe7?'
p2051
tp2052
Rp2053
sa(dp2054
S'281'
p2055
g9
(g13
S'\xce6B8\xebj\xb6?'
p2056
tp2057
Rp2058
sS'1783'
p2059
g9
(g13
S'\xa2Y\xc9\xaf5\xd5\xbf?'
p2060
tp2061
Rp2062
sS'872'
p2063
g9
(g13
S'\xb7\xdf9\xc4\xc1\xf3\xa7?'
p2064
tp2065
Rp2066
sS'2063'
p2067
g9
(g13
S'\xb4\xb6\xf3z,\x1c\xb4?'
p2068
tp2069
Rp2070
sS'41'
p2071
g9
(g13
S'\x95\x7f$\xbf\xf7u\xb4?'
p2072
tp2073
Rp2074
saaa(lp2075
I4
ag1094
aS'23'
p2076
a(lp2077
(dp2078
S'281'
p2079
g9
(g13
S'D\xddN_\xd8\x05\xe3?'
p2080
tp2081
Rp2082
sS'1783'
p2083
g9
(g13
S'p\xe6\x96E\x95i\xe2?'
p2084
tp2085
Rp2086
sS'872'
p2087
g9
(g13
S'u\x03\xbf\xdcc\x0f\xe2?'
p2088
tp2089
Rp2090
sS'2063'
p2091
g9
(g13
S'\x92\x13\xe4L\x12.\xda?'
p2092
tp2093
Rp2094
sS'41'
p2095
g9
(g13
S'A-#c\xb4\xa0\xe1?'
p2096
tp2097
Rp2098
sa(dp2099
S'281'
p2100
g9
(g13
S'%\xa4\xd7\xc3ow\xb5?'
p2101
tp2102
Rp2103
sS'1783'
p2104
g9
(g13
S'.\xc2\xb7\x97\xc6\xec\xba?'
p2105
tp2106
Rp2107
sS'872'
p2108
g9
(g13
S'l,s\xb0^<\xb6?'
p2109
tp2110
Rp2111
sS'2063'
p2112
g9
(g13
S'\xeb=t\xe8\x0b \xa9?'
p2113
tp2114
Rp2115
sS'41'
p2116
g9
(g13
S'\xb6\x14\xef\xae/M\xb6?'
p2117
tp2118
Rp2119
saaa(lp2120
I4
ag1094
aS'24'
p2121
a(lp2122
(dp2123
S'281'
p2124
g9
(g13
S';\x05a\xf3\xf4m\xe2?'
p2125
tp2126
Rp2127
sS'1783'
p2128
g9
(g13
S"\xcb\xe6\xa5'\xeb\x12\xe2?"
p2129
tp2130
Rp2131
sS'872'
p2132
g9
(g13
S'[\xcfK[\xbc\xee\xd8?'
p2133
tp2134
Rp2135
sS'2063'
p2136
g9
(g13
S'[T\x0c\xf0`\xec\xd4?'
p2137
tp2138
Rp2139
sS'41'
p2140
g9
(g13
S'2c[\xe7\xd8\x0e\xdc?'
p2141
tp2142
Rp2143
sa(dp2144
S'281'
p2145
g9
(g13
S'=h\xa8i\x85\x1c\xbe?'
p2146
tp2147
Rp2148
sS'1783'
p2149
g9
(g13
S'\xe4\xae\x14\xf4\x0b\x14\xbf?'
p2150
tp2151
Rp2152
sS'872'
p2153
g9
(g13
S'v\xaaf\xf4F_\xb5?'
p2154
tp2155
Rp2156
sS'2063'
p2157
g9
(g13
S'Z\xec^\x1ad\xf8\xad?'
p2158
tp2159
Rp2160
sS'41'
p2161
g9
(g13
S'\xfa\\f\x9c\xed\xb3\xb2?'
p2162
tp2163
Rp2164
saaa(lp2165
I4
ag1094
aS'25'
p2166
a(lp2167
(dp2168
S'281'
p2169
g9
(g13
S'Z)\xea#\xeet\xdb?'
p2170
tp2171
Rp2172
sS'1783'
p2173
g9
(g13
S'\xea2Y\x9fV6\xd6?'
p2174
tp2175
Rp2176
sS'872'
p2177
g9
(g13
S"\xf9IF'\xc8\x9e\xdf?"
p2178
tp2179
Rp2180
sS'2063'
p2181
g9
(g13
S' \xe5p\x15\xad\x8c\xdf?'
p2182
tp2183
Rp2184
sS'41'
p2185
g9
(g13
S'7\xf1\xabrM\xf5\xdd?'
p2186
tp2187
Rp2188
sa(dp2189
S'281'
p2190
g9
(g13
S'n\xe2\xba\xd6\xb9\x05\xb7?'
p2191
tp2192
Rp2193
sS'1783'
p2194
g9
(g13
S'\xad\xcff\xcbwq\xb0?'
p2195
tp2196
Rp2197
sS'872'
p2198
g9
(g13
S'\xdf5\xd3~\x989\xb6?'
p2199
tp2200
Rp2201
sS'2063'
p2202
g9
(g13
S'\x96f\x14\xf1\xc8P\xb9?'
p2203
tp2204
Rp2205
sS'41'
p2206
g9
(g13
S'\x8c\xf0A\x1f58\xb5?'
p2207
tp2208
Rp2209
saaasS'Scan_5'
p2210
(lp2211
(lp2212
I5
aVI1X
p2213
ag5
a(lp2214
(dp2215
S'281'
p2216
g9
(g13
S'7\xa80\xd1\xe6\xbb\xe7?'
p2217
tp2218
Rp2219
sS'1783'
p2220
g9
(g13
S'/\xadn)\xc2\x0b\xe3?'
p2221
tp2222
Rp2223
sS'872'
p2224
g9
(g13
S'\xf1\xeeN7JH\xe7?'
p2225
tp2226
Rp2227
sS'2063'
p2228
g9
(g13
S'dQ1\x1c\x92\x04\xe9?'
p2229
tp2230
Rp2231
sS'41'
p2232
g9
(g13
S'[!x\x80\x9e>\xe6?'
p2233
tp2234
Rp2235
sa(dp2236
S'281'
p2237
g9
(g13
S'1\x0e\xda\x9b\xb3\x9b\xb3?'
p2238
tp2239
Rp2240
sS'1783'
p2241
g9
(g13
S'\xeb\xa83\x99\xba\xcc\xac?'
p2242
tp2243
Rp2244
sS'872'
p2245
g9
(g13
S'\n3\x80\xab\x19l\xb4?'
p2246
tp2247
Rp2248
sS'2063'
p2249
g9
(g13
S'\xf6\x05\x18\x9d\xcek\xb5?'
p2250
tp2251
Rp2252
sS'41'
p2253
g9
(g13
S'\xb3\xa4\x8c\xc3\xb0=\xad?'
p2254
tp2255
Rp2256
saaa(lp2257
I5
ag2213
ag57
a(lp2258
(dp2259
S'281'
p2260
g9
(g13
S'!\xac\x93\xc5\xc0Q\xf1?'
p2261
tp2262
Rp2263
sS'1783'
p2264
g9
(g13
S'??\x88\x05_z\xf2?'
p2265
tp2266
Rp2267
sS'872'
p2268
g9
(g13
S'RJ\xcc\xdc%-\xf0?'
p2269
tp2270
Rp2271
sS'2063'
p2272
g9
(g13
S'\x90\x0c,-xu\xf4?'
p2273
tp2274
Rp2275
sS'41'
p2276
g9
(g13
S'\xe34\x1c \x11x\xf7?'
p2277
tp2278
Rp2279
sa(dp2280
S'281'
p2281
g9
(g13
S'\x1f_\xb6d\xe8\x11\xb2?'
p2282
tp2283
Rp2284
sS'1783'
p2285
g9
(g13
S'\x8bX1{V\x9b\xb6?'
p2286
tp2287
Rp2288
sS'872'
p2289
g9
(g13
S'\xa5c\xf6F8\xd0\xac?'
p2290
tp2291
Rp2292
sS'2063'
p2293
g9
(g13
S'\xe2C\x1cO\n\x85\xb6?'
p2294
tp2295
Rp2296
sS'41'
p2297
g9
(g13
S'\xcc\x91S\x17;\x9a\xb3?'
p2298
tp2299
Rp2300
saaa(lp2301
I5
ag2213
ag102
a(lp2302
(dp2303
S'281'
p2304
g9
(g13
S'x\x93\xaa4\xad\x8f\x04@'
p2305
tp2306
Rp2307
sS'1783'
p2308
g9
(g13
S'\xbb:\x97n\xd6\r\x03@'
p2309
tp2310
Rp2311
sS'872'
p2312
g9
(g13
S'P\xccn\xddg\x1b\x02@'
p2313
tp2314
Rp2315
sS'2063'
p2316
g9
(g13
S'-\xb7\x7f\xd3\xda\x94\x05@'
p2317
tp2318
Rp2319
sS'41'
p2320
g9
(g13
S'ir\x9e#\xfd\xdd\x06@'
p2321
tp2322
Rp2323
sa(dp2324
S'281'
p2325
g9
(g13
S'P\x0b&\x95k(\xb8?'
p2326
tp2327
Rp2328
sS'1783'
p2329
g9
(g13
S'\x068\xd9\x87*\xfe\xb7?'
p2330
tp2331
Rp2332
sS'872'
p2333
g9
(g13
S'\xdfw\x82\xf6\x00\xd0\xb2?'
p2334
tp2335
Rp2336
sS'2063'
p2337
g9
(g13
S'\xc5B\xe6>\x8dP\xb7?'
p2338
tp2339
Rp2340
sS'41'
p2341
g9
(g13
S'1\xfe\xd9\xa7\x14?\xb8?'
p2342
tp2343
Rp2344
saaa(lp2345
I5
ag2213
ag147
a(lp2346
(dp2347
S'281'
p2348
g9
(g13
S'\x96\x02\xc3@P\xdb\x15@'
p2349
tp2350
Rp2351
sS'1783'
p2352
g9
(g13
S'\xd9\xeeB3B\n\x13@'
p2353
tp2354
Rp2355
sS'872'
p2356
g9
(g13
S'IU6\xdc\x9d\xd3\x14@'
p2357
tp2358
Rp2359
sS'2063'
p2360
g9
(g13
S'\xbek\xf1\x86\xcc_\x16@'
p2361
tp2362
Rp2363
sS'41'
p2364
g9
(g13
S'\x9f\x88p\x03\xa5<\x16@'
p2365
tp2366
Rp2367
sa(dp2368
S'281'
p2369
g9
(g13
S'@\xce\xa0nE\xa5\xbf?'
p2370
tp2371
Rp2372
sS'1783'
p2373
g9
(g13
S'\x89\x16\xc96NE\xbc?'
p2374
tp2375
Rp2376
sS'872'
p2377
g9
(g13
S'\xfa\xa67\xcf%\xeb\xbe?'
p2378
tp2379
Rp2380
sS'2063'
p2381
g9
(g13
S'\xa1D\xb6\x1a\x8bC\xbe?'
p2382
tp2383
Rp2384
sS'41'
p2385
g9
(g13
S'3\xc2O\\\xb7\x02\xbe?'
p2386
tp2387
Rp2388
saaa(lp2389
I5
ag2213
ag192
a(lp2390
(dp2391
S'281'
p2392
g9
(g13
S'`y_\xf1\\\xe8%@'
p2393
tp2394
Rp2395
sS'1783'
p2396
g9
(g13
S'\xe67t\xde \xbd$@'
p2397
tp2398
Rp2399
sS'872'
p2400
g9
(g13
S'\x14\xf5\xa9D\xf8t%@'
p2401
tp2402
Rp2403
sS'2063'
p2404
g9
(g13
S'a\xd8\xf4\xaa\x07n(@'
p2405
tp2406
Rp2407
sS'41'
p2408
g9
(g13
S'a\x9f-\xf5\x14\x1a&@'
p2409
tp2410
Rp2411
sa(dp2412
S'281'
p2413
g9
(g13
S'\xfc4gV\xd6\xa3\xc5?'
p2414
tp2415
Rp2416
sS'1783'
p2417
g9
(g13
S'\xc3\x8b\x8c\x8c\xea-\xc3?'
p2418
tp2419
Rp2420
sS'872'
p2421
g9
(g13
S'\x84\xe3v\x1e\xad\x03\xc5?'
p2422
tp2423
Rp2424
sS'2063'
p2425
g9
(g13
S'-\x9c\xfb\x82\x0e\x16\xc5?'
p2426
tp2427
Rp2428
sS'41'
p2429
g9
(g13
S'\xcf\x1dq\x13\r\r\xc5?'
p2430
tp2431
Rp2432
saaa(lp2433
I5
ag2213
ag237
a(lp2434
(dp2435
S'281'
p2436
g9
(g13
S'u\xc5\x9b\xbeI\x954@'
p2437
tp2438
Rp2439
sS'1783'
p2440
g9
(g13
S'\x1b\xc3}90\x7f3@'
p2441
tp2442
Rp2443
sS'872'
p2444
g9
(g13
S'u\x02\xd0\x1f\xa6\xb43@'
p2445
tp2446
Rp2447
sS'2063'
p2448
g9
(g13
S'N\x9c?\x8c\xa7\xfd6@'
p2449
tp2450
Rp2451
sS'41'
p2452
g9
(g13
S'o\xc8\xca5\xf6n3@'
p2453
tp2454
Rp2455
sa(dp2456
S'281'
p2457
g9
(g13
S'\xa1\xe5p\x15\x7f\xd8\xcb?'
p2458
tp2459
Rp2460
sS'1783'
p2461
g9
(g13
S'\xdc\xa4}\x90\xbeG\xca?'
p2462
tp2463
Rp2464
sS'872'
p2465
g9
(g13
S'\xf3\xa9\x84\xa5\xe1\xca\xcb?'
p2466
tp2467
Rp2468
sS'2063'
p2469
g9
(g13
S'\xb93D\x19-J\xcd?'
p2470
tp2471
Rp2472
sS'41'
p2473
g9
(g13
S'\x93\\\xa2^\x8e\xff\xca?'
p2474
tp2475
Rp2476
saaa(lp2477
I5
ag2213
ag282
a(lp2478
(dp2479
S'281'
p2480
g9
(g13
S'B\x13\xcf\x7fK\xd8@@'
p2481
tp2482
Rp2483
sS'1783'
p2484
g9
(g13
S'\x9f&~\x10\xb8\xd0?@'
p2485
tp2486
Rp2487
sS'872'
p2488
g9
(g13
S'\xb3x\xf0%\xe94?@'
p2489
tp2490
Rp2491
sS'2063'
p2492
g9
(g13
S'\x06\xf3\x8f\x11\xf9BC@'
p2493
tp2494
Rp2495
sS'41'
p2496
g9
(g13
S'\xe3/\x03:X\xef=@'
p2497
tp2498
Rp2499
sa(dp2500
S'281'
p2501
g9
(g13
S'\xcdq\xe22\xdc\xc7\xd1?'
p2502
tp2503
Rp2504
sS'1783'
p2505
g9
(g13
S'\xce>\xf9Y\x91\x9f\xd0?'
p2506
tp2507
Rp2508
sS'872'
p2509
g9
(g13
S'",]\x98\xec\xf4\xd0?'
p2510
tp2511
Rp2512
sS'2063'
p2513
g9
(g13
S'\x85tj_*R\xd3?'
p2514
tp2515
Rp2516
sS'41'
p2517
g9
(g13
S'\x8ai\xe8\xd3g6\xd0?'
p2518
tp2519
Rp2520
saaa(lp2521
I5
ag2213
ag327
a(lp2522
(dp2523
S'281'
p2524
g9
(g13
S'# +\x05\xf6\xa2G@'
p2525
tp2526
Rp2527
sS'1783'
p2528
g9
(g13
S'\x0c\xf3\xe1\x98\xeb\xa5F@'
p2529
tp2530
Rp2531
sS'872'
p2532
g9
(g13
S'\xde\xe1;\xceb\xb4E@'
p2533
tp2534
Rp2535
sS'2063'
p2536
g9
(g13
S't(\xecK\x10\xbfJ@'
p2537
tp2538
Rp2539
sS'41'
p2540
g9
(g13
S'D\xc7\xa8\x04\xd7\xecD@'
p2541
tp2542
Rp2543
sa(dp2544
S'281'
p2545
g9
(g13
S'y\xf6ao]\xe2\xd3?'
p2546
tp2547
Rp2548
sS'1783'
p2549
g9
(g13
S'\x97?\xa3\xe8\x0b\x9a\xd3?'
p2550
tp2551
Rp2552
sS'872'
p2553
g9
(g13
S'\xf5:\x80L<@\xd3?'
p2554
tp2555
Rp2556
sS'2063'
p2557
g9
(g13
S'\xe9=\x17q\xe9X\xd5?'
p2558
tp2559
Rp2560
sS'41'
p2561
g9
(g13
S'7Tx\xb3\xf2\x02\xd3?'
p2562
tp2563
Rp2564
saaa(lp2565
I5
ag2213
ag372
a(lp2566
(dp2567
S'281'
p2568
g9
(g13
S'~\xe8\x19\xdc\xfaJM@'
p2569
tp2570
Rp2571
sS'1783'
p2572
g9
(g13
S'9\xd3\xb3\xa1\xf6PL@'
p2573
tp2574
Rp2575
sS'872'
p2576
g9
(g13
S'\xe8*\x89a\x8c\xdcJ@'
p2577
tp2578
Rp2579
sS'2063'
p2580
g9
(g13
S'\xec\x01\xc8qDsP@'
p2581
tp2582
Rp2583
sS'41'
p2584
g9
(g13
S'\xe6\xf2\xa6V\xa3\xb4I@'
p2585
tp2586
Rp2587
sa(dp2588
S'281'
p2589
g9
(g13
S'\x08\x8a\xc6\xdb\xd0\xc4\xd6?'
p2590
tp2591
Rp2592
sS'1783'
p2593
g9
(g13
S'<\xf7-u%\xf8\xd5?'
p2594
tp2595
Rp2596
sS'872'
p2597
g9
(g13
S'\xf1\xe3`!\xd0\xd0\xd5?'
p2598
tp2599
Rp2600
sS'2063'
p2601
g9
(g13
S'\xc1\xbb\x11\xb3\x06\xc6\xd7?'
p2602
tp2603
Rp2604
sS'41'
p2605
g9
(g13
S'*3\xeb\xe2\xad.\xd5?'
p2606
tp2607
Rp2608
saaa(lp2609
I5
ag2213
aS'10'
p2610
a(lp2611
(dp2612
S'281'
p2613
g9
(g13
S'H\x87\xf0\xa0\x8bAO@'
p2614
tp2615
Rp2616
sS'1783'
p2617
g9
(g13
S'\xd6\xd0<\xb5\x1d\xddM@'
p2618
tp2619
Rp2620
sS'872'
p2621
g9
(g13
S'ef\xf3\xdb\xb4\xe8K@'
p2622
tp2623
Rp2624
sS'2063'
p2625
g9
(g13
S'm\x128[\xca\x94Q@'
p2626
tp2627
Rp2628
sS'41'
p2629
g9
(g13
S'\x12\x89\xc2\xc5!1K@'
p2630
tp2631
Rp2632
sa(dp2633
S'281'
p2634
g9
(g13
S'D~\xc11[\xf6\xd6?'
p2635
tp2636
Rp2637
sS'1783'
p2638
g9
(g13
S'\xcc\xb9\x8cz\xb4p\xd6?'
p2639
tp2640
Rp2641
sS'872'
p2642
g9
(g13
S'\x90\x1bG\xa4O\xcd\xd5?'
p2643
tp2644
Rp2645
sS'2063'
p2646
g9
(g13
S'\x95\xed\x91\x99\xc3U\xd8?'
p2647
tp2648
Rp2649
sS'41'
p2650
g9
(g13
S'o\xb0\xa6\xaf\xc8m\xd5?'
p2651
tp2652
Rp2653
saaa(lp2654
I5
ag2213
aS'11'
p2655
a(lp2656
(dp2657
S'281'
p2658
g9
(g13
S'G\xa3\xdb\x1e-8M@'
p2659
tp2660
Rp2661
sS'1783'
p2662
g9
(g13
S'\xd7\xf0r\xa9\x8a/L@'
p2663
tp2664
Rp2665
sS'872'
p2666
g9
(g13
S'a\x85%\x17\xfd9K@'
p2667
tp2668
Rp2669
sS'2063'
p2670
g9
(g13
S'\xf2 C8\xfe\xa7P@'
p2671
tp2672
Rp2673
sS'41'
p2674
g9
(g13
S'\xc8\x9d\xcb\x9f\xbb\xecI@'
p2675
tp2676
Rp2677
sa(dp2678
S'281'
p2679
g9
(g13
S'\xf9f\xc8\\U\xfd\xd6?'
p2680
tp2681
Rp2682
sS'1783'
p2683
g9
(g13
S'\xe0:\xf8UoT\xd6?'
p2684
tp2685
Rp2686
sS'872'
p2687
g9
(g13
S'\x90So\x10E\xe3\xd5?'
p2688
tp2689
Rp2690
sS'2063'
p2691
g9
(g13
S"\x8f\x86\xe97\x94'\xd8?"
p2692
tp2693
Rp2694
sS'41'
p2695
g9
(g13
S'*\xd8V\xdbt\x14\xd5?'
p2696
tp2697
Rp2698
saaa(lp2699
I5
ag2213
aS'12'
p2700
a(lp2701
(dp2702
S'281'
p2703
g9
(g13
S'aj\xff\xeb \xcfG@'
p2704
tp2705
Rp2706
sS'1783'
p2707
g9
(g13
S'\xcbz\xaa\x9e\x19\x17G@'
p2708
tp2709
Rp2710
sS'872'
p2711
g9
(g13
S'^\x0f$~+\x01F@'
p2712
tp2713
Rp2714
sS'2063'
p2715
g9
(g13
S'\x10IXu8\xdcJ@'
p2716
tp2717
Rp2718
sS'41'
p2719
g9
(g13
S'\x06\x89Za\x9a\x0eE@'
p2720
tp2721
Rp2722
sa(dp2723
S'281'
p2724
g9
(g13
S'\xcb\x8a\xc1\x15\xa7$\xd4?'
p2725
tp2726
Rp2727
sS'1783'
p2728
g9
(g13
S'l\x80\x8a<\xca\xd7\xd3?'
p2729
tp2730
Rp2731
sS'872'
p2732
g9
(g13
S'ak:\xf9\r|\xd3?'
p2733
tp2734
Rp2735
sS'2063'
p2736
g9
(g13
S'\x8f\xce\xe8Y\xeeM\xd5?'
p2737
tp2738
Rp2739
sS'41'
p2740
g9
(g13
S'.\x1d\x07P\x0e|\xd3?'
p2741
tp2742
Rp2743
saaa(lp2744
I5
ag2213
aS'13'
p2745
a(lp2746
(dp2747
S'281'
p2748
g9
(g13
S'j\x88\x18\x87\xec\x06A@'
p2749
tp2750
Rp2751
sS'1783'
p2752
g9
(g13
S'\x1c%\xab\xec\x8bt@@'
p2753
tp2754
Rp2755
sS'872'
p2756
g9
(g13
S'\x9b%T\xf4\xaa\x97?@'
p2757
tp2758
Rp2759
sS'2063'
p2760
g9
(g13
S'\xcd\xca\x9b\xa2\x94YC@'
p2761
tp2762
Rp2763
sS'41'
p2764
g9
(g13
S'\xc9W/U\xe7\r?@'
p2765
tp2766
Rp2767
sa(dp2768
S'281'
p2769
g9
(g13
S'\xe7\xcf\xe1\x0b3t\xd1?'
p2770
tp2771
Rp2772
sS'1783'
p2773
g9
(g13
S'L\x9d\xa9\xca\xa5\xea\xd0?'
p2774
tp2775
Rp2776
sS'872'
p2777
g9
(g13
S'\xe7\nq+\xe1\xc9\xd0?'
p2778
tp2779
Rp2780
sS'2063'
p2781
g9
(g13
S'X\x8f\xedMo\xd4\xd2?'
p2782
tp2783
Rp2784
sS'41'
p2785
g9
(g13
S'gBa\xf03\x8c\xd0?'
p2786
tp2787
Rp2788
saaa(lp2789
I5
ag2213
aS'14'
p2790
a(lp2791
(dp2792
S'281'
p2793
g9
(g13
S'\xb0\xdb\x90Z\x86{5@'
p2794
tp2795
Rp2796
sS'1783'
p2797
g9
(g13
S'\xd0\xa3\x02\xe6\x93\x1d4@'
p2798
tp2799
Rp2800
sS'872'
p2801
g9
(g13
S'F\xa7v 2P4@'
p2802
tp2803
Rp2804
sS'2063'
p2805
g9
(g13
S'\xd8\x99E\xd4\xd1\x198@'
p2806
tp2807
Rp2808
sS'41'
p2809
g9
(g13
S'\xc1\xe7\xff\xc3\x85\x044@'
p2810
tp2811
Rp2812
sa(dp2813
S'281'
p2814
g9
(g13
S'\x17p\x16\x99\xa41\xcc?'
p2815
tp2816
Rp2817
sS'1783'
p2818
g9
(g13
S'\xaf\x1a\x82\xf6\xc5\xc6\xcb?'
p2819
tp2820
Rp2821
sS'872'
p2822
g9
(g13
S'\x95\x85M8Q6\xcb?'
p2823
tp2824
Rp2825
sS'2063'
p2826
g9
(g13
S'\x0c\x81\x06\xbd\xe2\xe3\xcc?'
p2827
tp2828
Rp2829
sS'41'
p2830
g9
(g13
S'1\xadq\x93\x00\t\xcb?'
p2831
tp2832
Rp2833
saaa(lp2834
I5
ag2213
aS'15'
p2835
a(lp2836
(dp2837
S'281'
p2838
g9
(g13
S"#\xcad\xec<\xea'@"
p2839
tp2840
Rp2841
sS'1783'
p2842
g9
(g13
S'/\x88\xa0\x97\xabU&@'
p2843
tp2844
Rp2845
sS'872'
p2846
g9
(g13
S'\xcb\xafj\xa6^\x87&@'
p2847
tp2848
Rp2849
sS'2063'
p2850
g9
(g13
S'4s\x87\xf6\xa1<*@'
p2851
tp2852
Rp2853
sS'41'
p2854
g9
(g13
S"\xf6V\xcb\xe8\xa5\xc6'@"
p2855
tp2856
Rp2857
sa(dp2858
S'281'
p2859
g9
(g13
S'*\x9a\x1a\xd5i\x9a\xc5?'
p2860
tp2861
Rp2862
sS'1783'
p2863
g9
(g13
S'\xc1\xf5\xc8\x11\x82\x7f\xc4?'
p2864
tp2865
Rp2866
sS'872'
p2867
g9
(g13
S'r\xf7\x87\x05\xae\x84\xc5?'
p2868
tp2869
Rp2870
sS'2063'
p2871
g9
(g13
S'\x19\x92\x91\xc2\xaf\xc1\xc7?'
p2872
tp2873
Rp2874
sS'41'
p2875
g9
(g13
S'O`\xa1%\xf3z\xc5?'
p2876
tp2877
Rp2878
saaa(lp2879
I5
ag2213
aS'16'
p2880
a(lp2881
(dp2882
S'281'
p2883
g9
(g13
S'\xbe\x96\xd3_n4\x16@'
p2884
tp2885
Rp2886
sS'1783'
p2887
g9
(g13
S'\xf3\xc5\xc2>\x8a\xe3\x13@'
p2888
tp2889
Rp2890
sS'872'
p2891
g9
(g13
S'\x81\x0enf<\xe4\x14@'
p2892
tp2893
Rp2894
sS'2063'
p2895
g9
(g13
S'\xc1\x08\xee\xd1\xdaf\x17@'
p2896
tp2897
Rp2898
sS'41'
p2899
g9
(g13
S'\xcd\xe2\xf7\x1b9\x1e\x17@'
p2900
tp2901
Rp2902
sa(dp2903
S'281'
p2904
g9
(g13
S"\xdf\xf8'f\xcb\x1a\xc2?"
p2905
tp2906
Rp2907
sS'1783'
p2908
g9
(g13
S'\x8c[\xabF\xd3\x04\xc0?'
p2909
tp2910
Rp2911
sS'872'
p2912
g9
(g13
S'\xfd\xabG\x03k\x98\xbd?'
p2913
tp2914
Rp2915
sS'2063'
p2916
g9
(g13
S'hb\xb9\xfc\xa6 \xc1?'
p2917
tp2918
Rp2919
sS'41'
p2920
g9
(g13
S'\x08\x83i\x1b\xa8x\xc2?'
p2921
tp2922
Rp2923
saaa(lp2924
I5
ag2213
aS'17'
p2925
a(lp2926
(dp2927
S'281'
p2928
g9
(g13
S'S\xe7E\x8a\xc4<\x04@'
p2929
tp2930
Rp2931
sS'1783'
p2932
g9
(g13
S'\x84\xb2\x8a\x1d&;\x02@'
p2933
tp2934
Rp2935
sS'872'
p2936
g9
(g13
S'\x82\x9a\x87;\x9f\x9a\x02@'
p2937
tp2938
Rp2939
sS'2063'
p2940
g9
(g13
S'd\xd8\x12\xf1\xea\xce\x04@'
p2941
tp2942
Rp2943
sS'41'
p2944
g9
(g13
S'\x1c\x7f^h>{\x06@'
p2945
tp2946
Rp2947
sa(dp2948
S'281'
p2949
g9
(g13
S'\xa6\xb2\xaf/\xe0A\xb6?'
p2950
tp2951
Rp2952
sS'1783'
p2953
g9
(g13
S'\xc8p\xd4\xb2\xaf/\xb3?'
p2954
tp2955
Rp2956
sS'872'
p2957
g9
(g13
S'\x86\xb0\x0c\xfc)\xc8\xb5?'
p2958
tp2959
Rp2960
sS'2063'
p2961
g9
(g13
S'?q:\x9c;k\xb8?'
p2962
tp2963
Rp2964
sS'41'
p2965
g9
(g13
S"!\x91\xaf'\xc6r\xb6?"
p2966
tp2967
Rp2968
saaa(lp2969
I5
ag2213
aS'18'
p2970
a(lp2971
(dp2972
S'281'
p2973
g9
(g13
S'\xbc\xdb\xc0[V\x8c\xf1?'
p2974
tp2975
Rp2976
sS'1783'
p2977
g9
(g13
S'\x14\x92`\x08$\x1f\xf2?'
p2978
tp2979
Rp2980
sS'872'
p2981
g9
(g13
S'\xf6\xb1g"j\x1a\xf4?'
p2982
tp2983
Rp2984
sS'2063'
p2985
g9
(g13
S';\xa8\x83:\xa8C\xf4?'
p2986
tp2987
Rp2988
sS'41'
p2989
g9
(g13
S"(\xb7xr\x8b'\xf6?"
p2990
tp2991
Rp2992
sa(dp2993
S'281'
p2994
g9
(g13
S'\xa8\x0f\xd0\xd72\x11\xb0?'
p2995
tp2996
Rp2997
sS'1783'
p2998
g9
(g13
S'\xec\x99OQ\xa9\x97\xb5?'
p2999
tp3000
Rp3001
sS'872'
p3002
g9
(g13
S'\xe9\xc3k\x13\xc1(\xb6?'
p3003
tp3004
Rp3005
sS'2063'
p3006
g9
(g13
S')O\xba\xbb\xa3\xdb\xb3?'
p3007
tp3008
Rp3009
sS'41'
p3010
g9
(g13
S'{\xc8h\x90+0\xb2?'
p3011
tp3012
Rp3013
saaa(lp3014
I5
ag2213
aS'19'
p3015
a(lp3016
(dp3017
S'281'
p3018
g9
(g13
S'mv|\x94\xbf9\xe5?'
p3019
tp3020
Rp3021
sS'1783'
p3022
g9
(g13
S'\x19\x9f\xc7k0`\xe5?'
p3023
tp3024
Rp3025
sS'872'
p3026
g9
(g13
S'2\x92\xa5\xd35\x0e\xe6?'
p3027
tp3028
Rp3029
sS'2063'
p3030
g9
(g13
S'\xe4p\xc0\xbc\xfc\xb6\xe0?'
p3031
tp3032
Rp3033
sS'41'
p3034
g9
(g13
S']5l\xe6\xe2\xd6\xea?'
p3035
tp3036
Rp3037
sa(dp3038
S'281'
p3039
g9
(g13
S'\xc9\xff\x9f*\x0f \xb1?'
p3040
tp3041
Rp3042
sS'1783'
p3043
g9
(g13
S'w\xd5\x90d\x0bF\xb3?'
p3044
tp3045
Rp3046
sS'872'
p3047
g9
(g13
S'f\xa4t7\x13\xa5\xb6?'
p3048
tp3049
Rp3050
sS'2063'
p3051
g9
(g13
S';Jj\xd2-\x80\xa3?'
p3052
tp3053
Rp3054
sS'41'
p3055
g9
(g13
S'-\xe5\xbc\xc8vb\xb3?'
p3056
tp3057
Rp3058
saaasS'Scan_6'
p3059
(lp3060
(lp3061
I6
aVI1Y
p3062
ag5
a(lp3063
(dp3064
S'281'
p3065
g9
(g13
S'I\x8e\x83\xc2\xb8\xda\xe1?'
p3066
tp3067
Rp3068
sS'1783'
p3069
g9
(g13
S'\x15\x0f\x98D\x00\xf8\xdb?'
p3070
tp3071
Rp3072
sS'872'
p3073
g9
(g13
S';\x0c\xf5v\xf8\xd7\xe0?'
p3074
tp3075
Rp3076
sS'2063'
p3077
g9
(g13
S'"\xa6\xcd\xc9\xed\xce\xde?'
p3078
tp3079
Rp3080
sS'41'
p3081
g9
(g13
S'\xd7\x8fe\x9b\xf5\x9f\xe7?'
p3082
tp3083
Rp3084
sa(dp3085
S'281'
p3086
g9
(g13
S'\xe4\xda\xe5\x88{\xe1\xaf?'
p3087
tp3088
Rp3089
sS'1783'
p3090
g9
(g13
S'\x0f\x9fk&\x98\xce\xaf?'
p3091
tp3092
Rp3093
sS'872'
p3094
g9
(g13
S'N\x91!/\xa0\xf5\xac?'
p3095
tp3096
Rp3097
sS'2063'
p3098
g9
(g13
S'\xec\xb7c\xb4\xa7;\xb0?'
p3099
tp3100
Rp3101
sS'41'
p3102
g9
(g13
S'\xa2wU\xb6\xa2j\xb2?'
p3103
tp3104
Rp3105
saaa(lp3106
I6
ag3062
ag57
a(lp3107
(dp3108
S'281'
p3109
g9
(g13
S'\x19XPOzx\xea?'
p3110
tp3111
Rp3112
sS'1783'
p3113
g9
(g13
S'\x13r7b\xa8\xfe\xe8?'
p3114
tp3115
Rp3116
sS'872'
p3117
g9
(g13
S'\x0e\xe0[\x92~\x94\xe8?'
p3118
tp3119
Rp3120
sS'2063'
p3121
g9
(g13
S'\x08\xcc:\n(\x9a\xed?'
p3122
tp3123
Rp3124
sS'41'
p3125
g9
(g13
S'H$\x84\xac@\x93\xf4?'
p3126
tp3127
Rp3128
sa(dp3129
S'281'
p3130
g9
(g13
S'\xa2\xef\x11\x00v\\\xb0?'
p3131
tp3132
Rp3133
sS'1783'
p3134
g9
(g13
S'o_\x9e\x16c\x96\xae?'
p3135
tp3136
Rp3137
sS'872'
p3138
g9
(g13
S'\xb2\x10>\xb3\xacO\xab?'
p3139
tp3140
Rp3141
sS'2063'
p3142
g9
(g13
S'\x16\x12=\xf8\x15\x12\xb2?'
p3143
tp3144
Rp3145
sS'41'
p3146
g9
(g13
S'\xa1~\xc3\xdd\x9d\x0b\xb6?'
p3147
tp3148
Rp3149
saaa(lp3150
I6
ag3062
ag102
a(lp3151
(dp3152
S'281'
p3153
g9
(g13
S'\x85\xa4\x02>\x1a>\xfe?'
p3154
tp3155
Rp3156
sS'1783'
p3157
g9
(g13
S'9\x95Z\x17\r8\xf9?'
p3158
tp3159
Rp3160
sS'872'
p3161
g9
(g13
S'\x9a\x87[\xa0\xaeB\xfd?'
p3162
tp3163
Rp3164
sS'2063'
p3165
g9
(g13
S'\x81\x1a\xdb\xc7\x9ay\x00@'
p3166
tp3167
Rp3168
sS'41'
p3169
g9
(g13
S'K\x84\x03\xa8\xa4\x1f\x04@'
p3170
tp3171
Rp3172
sa(dp3173
S'281'
p3174
g9
(g13
S'\xb0\xa6^\xd4\xd5\xae\xb7?'
p3175
tp3176
Rp3177
sS'1783'
p3178
g9
(g13
S'\x95!/\xf7\r\xec\xb1?'
p3179
tp3180
Rp3181
sS'872'
p3182
g9
(g13
S'\xb6\xabi\x85\x85\xe4\xb7?'
p3183
tp3184
Rp3185
sS'2063'
p3186
g9
(g13
S'\xe4^\xc4\x13\x98\xcf\xba?'
p3187
tp3188
Rp3189
sS'41'
p3190
g9
(g13
S'Sc\xfc\xa9\xe9\xe9\xb6?'
p3191
tp3192
Rp3193
saaa(lp3194
I6
ag3062
ag147
a(lp3195
(dp3196
S'281'
p3197
g9
(g13
S'\xa11\x9fe\xebD\x10@'
p3198
tp3199
Rp3200
sS'1783'
p3201
g9
(g13
S'e\x07\xcc\xe6\xd02\x0e@'
p3202
tp3203
Rp3204
sS'872'
p3205
g9
(g13
S'q\xa7\x12_u\xec\x0e@'
p3206
tp3207
Rp3208
sS'2063'
p3209
g9
(g13
S'4N|\xad\x1fC\x11@'
p3210
tp3211
Rp3212
sS'41'
p3213
g9
(g13
S'\x07\x99`-\xb4\xdf\x14@'
p3214
tp3215
Rp3216
sa(dp3217
S'281'
p3218
g9
(g13
S'*\xeb\x92x\xfb\x16\xbc?'
p3219
tp3220
Rp3221
sS'1783'
p3222
g9
(g13
S'\x91]P\x80Y\xcd\xba?'
p3223
tp3224
Rp3225
sS'872'
p3226
g9
(g13
S'/\xa2n\x98\xf4\xfd\xbc?'
p3227
tp3228
Rp3229
sS'2063'
p3230
g9
(g13
S'\xb3Z\x81I\xc1[\xb9?'
p3231
tp3232
Rp3233
sS'41'
p3234
g9
(g13
S'\xca\xefzAX\xa3\xbd?'
p3235
tp3236
Rp3237
saaa(lp3238
I6
ag3062
ag192
a(lp3239
(dp3240
S'281'
p3241
g9
(g13
S'\x96\xa3\xe7\xa0\x80\xcc!@'
p3242
tp3243
Rp3244
sS'1783'
p3245
g9
(g13
S'\n\x00\xace\xba\x0b!@'
p3246
tp3247
Rp3248
sS'872'
p3249
g9
(g13
S'\xe9-\xa2c\x94\x02!@'
p3250
tp3251
Rp3252
sS'2063'
p3253
g9
(g13
S'z{\xab\x91\xfa\x93$@'
p3254
tp3255
Rp3256
sS'41'
p3257
g9
(g13
S"\xcd\x89'\xaaR_%@"
p3258
tp3259
Rp3260
sa(dp3261
S'281'
p3262
g9
(g13
S'-9\xb1\xfb\x98\x98\xc3?'
p3263
tp3264
Rp3265
sS'1783'
p3266
g9
(g13
S"\xc4\xab<\x08'\x90\xc2?"
p3267
tp3268
Rp3269
sS'872'
p3270
g9
(g13
S'\xce\xce\x19+\x99q\xc2?'
p3271
tp3272
Rp3273
sS'2063'
p3274
g9
(g13
S'\xe4\x19h\xd9+\xb6\xc4?'
p3275
tp3276
Rp3277
sS'41'
p3278
g9
(g13
S'f\xe3\xf2;qz\xc3?'
p3279
tp3280
Rp3281
saaa(lp3282
I6
ag3062
ag237
a(lp3283
(dp3284
S'281'
p3285
g9
(g13
S'|M\xeb\xdfg\xb31@'
p3286
tp3287
Rp3288
sS'1783'
p3289
g9
(g13
S'\xb4;\x0f\x1b{\xa60@'
p3290
tp3291
Rp3292
sS'872'
p3293
g9
(g13
S'l\xbb5,\xdf\xc50@'
p3294
tp3295
Rp3296
sS'2063'
p3297
g9
(g13
S'a\xab$CEx4@'
p3298
tp3299
Rp3300
sS'41'
p3301
g9
(g13
S'\x83\x9d\xdf\xda[\xdf2@'
p3302
tp3303
Rp3304
sa(dp3305
S'281'
p3306
g9
(g13
S'\xc5\xa6\xd6\xb5\xc0\x13\xca?'
p3307
tp3308
Rp3309
sS'1783'
p3310
g9
(g13
S'\xdb6\x99\xc3\x1e\x90\xc8?'
p3311
tp3312
Rp3313
sS'872'
p3314
g9
(g13
S'1\xa8\xb4\xec\xb5\xec\xc9?'
p3315
tp3316
Rp3317
sS'2063'
p3318
g9
(g13
S'\x1d\xf2\xa9!\x82A\xcc?'
p3319
tp3320
Rp3321
sS'41'
p3322
g9
(g13
S'\\\xa9W\xb7d\xcd\xca?'
p3323
tp3324
Rp3325
saaa(lp3326
I6
ag3062
ag282
a(lp3327
(dp3328
S'281'
p3329
g9
(g13
S'A\xe0\xe2\xbe\xab\xa6>@'
p3330
tp3331
Rp3332
sS'1783'
p3333
g9
(g13
S'\xb3\x98e\xa8\x12\xc4=@'
p3334
tp3335
Rp3336
sS'872'
p3337
g9
(g13
S'\xabz\xeb\x06\xe3\xa0<@'
p3338
tp3339
Rp3340
sS'2063'
p3341
g9
(g13
S'\xea>\x13\x11^oA@'
p3342
tp3343
Rp3344
sS'41'
p3345
g9
(g13
S'9\x8f\x18\xb8\xd1->@'
p3346
tp3347
Rp3348
sa(dp3349
S'281'
p3350
g9
(g13
S'\xca\xdb\xc9Fc\xac\xd1?'
p3351
tp3352
Rp3353
sS'1783'
p3354
g9
(g13
S'\xe7eCC\x83\xb9\xd0?'
p3355
tp3356
Rp3357
sS'872'
p3358
g9
(g13
S'\xe9\xb4\x83e\x91\xae\xd0?'
p3359
tp3360
Rp3361
sS'2063'
p3362
g9
(g13
S'\x81\xc1g<\xcd\x92\xd2?'
p3363
tp3364
Rp3365
sS'41'
p3366
g9
(g13
S'l\x1f\xdb\xa5\xcd\x04\xd1?'
p3367
tp3368
Rp3369
saaa(lp3370
I6
ag3062
ag327
a(lp3371
(dp3372
S'281'
p3373
g9
(g13
S'\xe3\xe5\xd4\x81\xa1\xdcF@'
p3374
tp3375
Rp3376
sS'1783'
p3377
g9
(g13
S'\xf1\x9a\xfbt\xff\xf0E@'
p3378
tp3379
Rp3380
sS'872'
p3381
g9
(g13
S'\xb2[J\n_\xffD@'
p3382
tp3383
Rp3384
sS'2063'
p3385
g9
(g13
S'\xdc\xaaN^Y\xf3I@'
p3386
tp3387
Rp3388
sS'41'
p3389
g9
(g13
S'\xb8;2\xbe`\x15E@'
p3390
tp3391
Rp3392
sa(dp3393
S'281'
p3394
g9
(g13
S'\x86\xc2\x9c\xd6\x81\r\xd4?'
p3395
tp3396
Rp3397
sS'1783'
p3398
g9
(g13
S'\x7f>\x1f\x92R\xcf\xd3?'
p3399
tp3400
Rp3401
sS'872'
p3402
g9
(g13
S'\xcd\x82\x91y\x8dy\xd3?'
p3403
tp3404
Rp3405
sS'2063'
p3406
g9
(g13
S'"\xfdyc\xd0\xe5\xd5?'
p3407
tp3408
Rp3409
sS'41'
p3410
g9
(g13
S'\xdd\xf7e%-D\xd3?'
p3411
tp3412
Rp3413
saaa(lp3414
I6
ag3062
ag372
a(lp3415
(dp3416
S'281'
p3417
g9
(g13
S'w\\z\xa5\x00\xc0L@'
p3418
tp3419
Rp3420
sS'1783'
p3421
g9
(g13
S' "V\x13\x1a\xaeK@'
p3422
tp3423
Rp3424
sS'872'
p3425
g9
(g13
S'QVF;\xd3~J@'
p3426
tp3427
Rp3428
sS'2063'
p3429
g9
(g13
S'\xb9z\x97\xd2\x9a<P@'
p3430
tp3431
Rp3432
sS'41'
p3433
g9
(g13
S'[\xbfh\x1ai^I@'
p3434
tp3435
Rp3436
sa(dp3437
S'281'
p3438
g9
(g13
S'\x1aA\xb96\xadg\xd6?'
p3439
tp3440
Rp3441
sS'1783'
p3442
g9
(g13
S'\x1d<\x81rk4\xd6?'
p3443
tp3444
Rp3445
sS'872'
p3446
g9
(g13
S'\x05\x89\xf6IR\xb1\xd5?'
p3447
tp3448
Rp3449
sS'2063'
p3450
g9
(g13
S'\x92\xb3A\x12\x82\xfa\xd7?'
p3451
tp3452
Rp3453
sS'41'
p3454
g9
(g13
S'XF\xcbm\x04)\xd5?'
p3455
tp3456
Rp3457
saaa(lp3458
I6
ag3062
aS'10'
p3459
a(lp3460
(dp3461
S'281'
p3462
g9
(g13
S'\x10\xc8\xdf\x84\xaf6O@'
p3463
tp3464
Rp3465
sS'1783'
p3466
g9
(g13
S'\x1a\x9f\r\xf4\xa3IN@'
p3467
tp3468
Rp3469
sS'872'
p3470
g9
(g13
S"1}\xb9\xa7'hL@"
p3471
tp3472
Rp3473
sS'2063'
p3474
g9
(g13
S'K\\a\xd3\xa1\xacQ@'
p3475
tp3476
Rp3477
sS'41'
p3478
g9
(g13
S'\xf8\x96BB\xd76K@'
p3479
tp3480
Rp3481
sa(dp3482
S'281'
p3483
g9
(g13
S'\xde\xbb\x8e\xc1)\xdf\xd7?'
p3484
tp3485
Rp3486
sS'1783'
p3487
g9
(g13
S'\x1f!j\xba9m\xd7?'
p3488
tp3489
Rp3490
sS'872'
p3491
g9
(g13
S'8\xbc*\x10k\xa0\xd6?'
p3492
tp3493
Rp3494
sS'2063'
p3495
g9
(g13
S'\x8e\x99\x03\xb5\x96p\xd9?'
p3496
tp3497
Rp3498
sS'41'
p3499
g9
(g13
S'\x1e\xdd\xa8\x91lq\xd6?'
p3500
tp3501
Rp3502
saaa(lp3503
I6
ag3062
aS'11'
p3504
a(lp3505
(dp3506
S'281'
p3507
g9
(g13
S'\x88\xf6\xbd\xc2\xe5rM@'
p3508
tp3509
Rp3510
sS'1783'
p3511
g9
(g13
S'g\xec\xba\xf2Z6L@'
p3512
tp3513
Rp3514
sS'872'
p3515
g9
(g13
S'b,Fk\xf7\xa6J@'
p3516
tp3517
Rp3518
sS'2063'
p3519
g9
(g13
S'\xe6\xba\xea\xcd9\x83P@'
p3520
tp3521
Rp3522
sS'41'
p3523
g9
(g13
S'0\x08\x99\xee\xbc\x0eJ@'
p3524
tp3525
Rp3526
sa(dp3527
S'281'
p3528
g9
(g13
S'\xb5!e\xe5C\xe4\xd6?'
p3529
tp3530
Rp3531
sS'1783'
p3532
g9
(g13
S'\xe5\x97\xf4\xe4sb\xd6?'
p3533
tp3534
Rp3535
sS'872'
p3536
g9
(g13
S'iK2<t\xa6\xd5?'
p3537
tp3538
Rp3539
sS'2063'
p3540
g9
(g13
S'N\x17\xbc"hH\xd8?'
p3541
tp3542
Rp3543
sS'41'
p3544
g9
(g13
S'/A\x01\xc3\x0e\xc8\xd5?'
p3545
tp3546
Rp3547
saaa(lp3548
I6
ag3062
aS'12'
p3549
a(lp3550
(dp3551
S'281'
p3552
g9
(g13
S',\x08\x8ea\xe2\xc6G@'
p3553
tp3554
Rp3555
sS'1783'
p3556
g9
(g13
S'%\x85U\xf6\xc2\x80F@'
p3557
tp3558
Rp3559
sS'872'
p3560
g9
(g13
S'\xeb\x13+\xbau\xbfE@'
p3561
tp3562
Rp3563
sS'2063'
p3564
g9
(g13
S"\x1d]'\xe7\xb1\xe1J@"
p3565
tp3566
Rp3567
sS'41'
p3568
g9
(g13
S'\xb9\x06\xa2\xdc\xd0\x88E@'
p3569
tp3570
Rp3571
sa(dp3572
S'281'
p3573
g9
(g13
S'/\xee\xa7\x013\xe8\xd5?'
p3574
tp3575
Rp3576
sS'1783'
p3577
g9
(g13
S'N\xceU\xa8bB\xd4?'
p3578
tp3579
Rp3580
sS'872'
p3581
g9
(g13
S'\xd4UFP\xb5\x1e\xd4?'
p3582
tp3583
Rp3584
sS'2063'
p3585
g9
(g13
S'X\xcf~\xcaeK\xd6?'
p3586
tp3587
Rp3588
sS'41'
p3589
g9
(g13
S'\xd1\xb8\x06n\xfd"\xd4?'
p3590
tp3591
Rp3592
saaa(lp3593
I6
ag3062
aS'13'
p3594
a(lp3595
(dp3596
S'281'
p3597
g9
(g13
S'>\xe0\xc9\xb2\xed+@@'
p3598
tp3599
Rp3600
sS'1783'
p3601
g9
(g13
S',"q\x85EG?@'
p3602
tp3603
Rp3604
sS'872'
p3605
g9
(g13
S'?\xb5\x08\x8c\xb6Q>@'
p3606
tp3607
Rp3608
sS'2063'
p3609
g9
(g13
S'\xbd9\xdbn\x90\x83B@'
p3610
tp3611
Rp3612
sS'41'
p3613
g9
(g13
S'`\xc9[T\xc9\x84?@'
p3614
tp3615
Rp3616
sa(dp3617
S'281'
p3618
g9
(g13
S'\x9a\x9c\xee\xb7{O\xd1?'
p3619
tp3620
Rp3621
sS'1783'
p3622
g9
(g13
S'\x9d`M\x93/\xaa\xd0?'
p3623
tp3624
Rp3625
sS'872'
p3626
g9
(g13
S'C\xde,-h\x96\xd0?'
p3627
tp3628
Rp3629
sS'2063'
p3630
g9
(g13
S'\x87\xcd@\x87[\x87\xd2?'
p3631
tp3632
Rp3633
sS'41'
p3634
g9
(g13
S'\x95\x06Qso?\xd1?'
p3635
tp3636
Rp3637
saaa(lp3638
I6
ag3062
aS'14'
p3639
a(lp3640
(dp3641
S'281'
p3642
g9
(g13
S'F\xe4\x9a\xf5\xc7;3@'
p3643
tp3644
Rp3645
sS'1783'
p3646
g9
(g13
S'\xb5/@\x8e"\xe21@'
p3647
tp3648
Rp3649
sS'872'
p3650
g9
(g13
S'\xbfX\xf3T\xad\xe31@'
p3651
tp3652
Rp3653
sS'2063'
p3654
g9
(g13
S'\x9b@\x84\xe3Q66@'
p3655
tp3656
Rp3657
sS'41'
p3658
g9
(g13
S'\xac^r\xda*H4@'
p3659
tp3660
Rp3661
sa(dp3662
S'281'
p3663
g9
(g13
S'S\xbbt\xe9Kf\xcc?'
p3664
tp3665
Rp3666
sS'1783'
p3667
g9
(g13
S'\x17\x99\x05\xb6b\xbd\xc9?'
p3668
tp3669
Rp3670
sS'872'
p3671
g9
(g13
S'\xb9\x1feKI]\xc9?'
p3672
tp3673
Rp3674
sS'2063'
p3675
g9
(g13
S'N\xd9\xfd\xcaFM\xce?'
p3676
tp3677
Rp3678
sS'41'
p3679
g9
(g13
S'<\x8d\x98\xa4\xab\xc2\xcc?'
p3680
tp3681
Rp3682
saaa(lp3683
I6
ag3062
aS'15'
p3684
a(lp3685
(dp3686
S'281'
p3687
g9
(g13
S'[[K\xe9\x1cc#@'
p3688
tp3689
Rp3690
sS'1783'
p3691
g9
(g13
S'\xfb\xfc\xf8\x1e\xfd\xcd"@'
p3692
tp3693
Rp3694
sS'872'
p3695
g9
(g13
S'm\xf5\x990Y+#@'
p3696
tp3697
Rp3698
sS'2063'
p3699
g9
(g13
S'\xdfu\xc9~4\xd5&@'
p3700
tp3701
Rp3702
sS'41'
p3703
g9
(g13
S'/M\xc3\xcc\x98Y&@'
p3704
tp3705
Rp3706
sa(dp3707
S'281'
p3708
g9
(g13
S'%^\x06\xe1$\xfa\xc2?'
p3709
tp3710
Rp3711
sS'1783'
p3712
g9
(g13
S';`MK+S\xc5?'
p3713
tp3714
Rp3715
sS'872'
p3716
g9
(g13
S'\xfe\x83\xc8\x84\x7f`\xc3?'
p3717
tp3718
Rp3719
sS'2063'
p3720
g9
(g13
S'\xd2\x129e\x86\xea\xc5?'
p3721
tp3722
Rp3723
sS'41'
p3724
g9
(g13
S'\xef\xa0\xa4R\xfd\xdf\xc3?'
p3725
tp3726
Rp3727
saaa(lp3728
I6
ag3062
aS'16'
p3729
a(lp3730
(dp3731
S'281'
p3732
g9
(g13
S'^\x85\x1f\x8f|\xcb\x11@'
p3733
tp3734
Rp3735
sS'1783'
p3736
g9
(g13
S'\x9c\x18\xcd/\xd0\xcd\x10@'
p3737
tp3738
Rp3739
sS'872'
p3740
g9
(g13
S'\xc9\n\\\x1a\x8dW\x11@'
p3741
tp3742
Rp3743
sS'2063'
p3744
g9
(g13
S'\xa1\xcf\x0f\xea\xf65\x15@'
p3745
tp3746
Rp3747
sS'41'
p3748
g9
(g13
S'$\\\x08\xa2\x0fr\x16@'
p3749
tp3750
Rp3751
sa(dp3752
S'281'
p3753
g9
(g13
S'D\xae\xc6\xda\x13\x8f\xbb?'
p3754
tp3755
Rp3756
sS'1783'
p3757
g9
(g13
S'\xf7,\xac\xcc\x91\x92\xbb?'
p3758
tp3759
Rp3760
sS'872'
p3761
g9
(g13
S'\xe3\xe9BcQ$\xc1?'
p3762
tp3763
Rp3764
sS'2063'
p3765
g9
(g13
S'\xc6\xc7\xed\x9c\xed\x15\xc1?'
p3766
tp3767
Rp3768
sS'41'
p3769
g9
(g13
S'\x08\xac\xca\x13\xd4\x1b\xbe?'
p3770
tp3771
Rp3772
saaa(lp3773
I6
ag3062
aS'17'
p3774
a(lp3775
(dp3776
S'281'
p3777
g9
(g13
S'Y\xef\xae\x96|\xdf\x00@'
p3778
tp3779
Rp3780
sS'1783'
p3781
g9
(g13
S'3\x0c\xb8\x1a\xd0\xcc\xfc?'
p3782
tp3783
Rp3784
sS'872'
p3785
g9
(g13
S'a\x06\xac\x85\xccT\xfe?'
p3786
tp3787
Rp3788
sS'2063'
p3789
g9
(g13
S'\x9d\xb7\xd0\x1e\xb2\xf2\x02@'
p3790
tp3791
Rp3792
sS'41'
p3793
g9
(g13
S'+\xa6W~&\xbd\x05@'
p3794
tp3795
Rp3796
sa(dp3797
S'281'
p3798
g9
(g13
S'@\xc7r\x8b\x06\xf0\xbc?'
p3799
tp3800
Rp3801
sS'1783'
p3802
g9
(g13
S'\xbb&R\x13n\x85\xb4?'
p3803
tp3804
Rp3805
sS'872'
p3806
g9
(g13
S'\x19S\x11I{\xb0\xb8?'
p3807
tp3808
Rp3809
sS'2063'
p3810
g9
(g13
S'l\xb3\x18\n)%\xbb?'
p3811
tp3812
Rp3813
sS'41'
p3814
g9
(g13
S'\x9c\x85\xb6c\x08P\xb5?'
p3815
tp3816
Rp3817
saaa(lp3818
I6
ag3062
aS'18'
p3819
a(lp3820
(dp3821
S'281'
p3822
g9
(g13
S'\xf5\xe2\x89X\xf3\x9d\xf1?'
p3823
tp3824
Rp3825
sS'1783'
p3826
g9
(g13
S'\x00\x91\x96\x1ecw\xee?'
p3827
tp3828
Rp3829
sS'872'
p3830
g9
(g13
S'&u\x0e\x83\x84=\xee?'
p3831
tp3832
Rp3833
sS'2063'
p3834
g9
(g13
S'\x90"\xaa$P5\xf2?'
p3835
tp3836
Rp3837
sS'41'
p3838
g9
(g13
S'2B\xb6%\x8d\xf3\xf3?'
p3839
tp3840
Rp3841
sa(dp3842
S'281'
p3843
g9
(g13
S'L\xcf\x07\xf9\xc5\x8d\xbb?'
p3844
tp3845
Rp3846
sS'1783'
p3847
g9
(g13
S',x\xcc\xd5%W\xb8?'
p3848
tp3849
Rp3850
sS'872'
p3851
g9
(g13
S'\xe9(1#\x0e\xfe\xb6?'
p3852
tp3853
Rp3854
sS'2063'
p3855
g9
(g13
S'^\xbf>\x9c\xdc\x8c\xba?'
p3856
tp3857
Rp3858
sS'41'
p3859
g9
(g13
S'~b\x1e\xa4\xecE\xb0?'
p3860
tp3861
Rp3862
saaa(lp3863
I6
ag3062
aS'19'
p3864
a(lp3865
(dp3866
S'281'
p3867
g9
(g13
S'\x18;\xe5\xe0E\xd7\xe4?'
p3868
tp3869
Rp3870
sS'1783'
p3871
g9
(g13
S'}\xaf\xef\xafy\t\xe1?'
p3872
tp3873
Rp3874
sS'872'
p3875
g9
(g13
S'\xf2\x7f;h\x7f\x8e\xe2?'
p3876
tp3877
Rp3878
sS'2063'
p3879
g9
(g13
S'\x06\x93!\xfce\xec\xe2?'
p3880
tp3881
Rp3882
sS'41'
p3883
g9
(g13
S'0\xb3\xffP\xd9\x85\xe5?'
p3884
tp3885
Rp3886
sa(dp3887
S'281'
p3888
g9
(g13
S'\x84\xe2S}l,\xb3?'
p3889
tp3890
Rp3891
sS'1783'
p3892
g9
(g13
S';1\xcf\xc0\xba\xa7\xb2?'
p3893
tp3894
Rp3895
sS'872'
p3896
g9
(g13
S'\xca\x12\x84\xd6\x9c\x97\xb1?'
p3897
tp3898
Rp3899
sS'2063'
p3900
g9
(g13
S'#\xb4kw\xf5\xbf\xb1?'
p3901
tp3902
Rp3903
sS'41'
p3904
g9
(g13
S"@\xcaj('\xf2\xac?"
p3905
tp3906
Rp3907
saaasS'Scan_7'
p3908
(lp3909
(lp3910
I7
aVI2X
p3911
ag5
a(lp3912
(dp3913
S'281'
p3914
g9
(g13
S'\xdd\x8c\x15\x9d\xd8\x9b\xe6?'
p3915
tp3916
Rp3917
sS'1783'
p3918
g9
(g13
S'=r]\xda\rx\xe4?'
p3919
tp3920
Rp3921
sS'872'
p3922
g9
(g13
S'\xc6\x11\x1b\xd6\x0eh\xe3?'
p3923
tp3924
Rp3925
sS'2063'
p3926
g9
(g13
S'\xa5\xf5\x83$\xceJ\xe5?'
p3927
tp3928
Rp3929
sS'41'
p3930
g9
(g13
S'\xad\xdc\xf0:E\t\xe7?'
p3931
tp3932
Rp3933
sa(dp3934
S'281'
p3935
g9
(g13
S'\xc3@er\xf8\xc1\xb2?'
p3936
tp3937
Rp3938
sS'1783'
p3939
g9
(g13
S'\xb6*j\xaa.\xd8\xb0?'
p3940
tp3941
Rp3942
sS'872'
p3943
g9
(g13
S'\xdbJ\x9f\xd6\xea\x1c\xb2?'
p3944
tp3945
Rp3946
sS'2063'
p3947
g9
(g13
S't`7\xd3\xbf\xbe\xab?'
p3948
tp3949
Rp3950
sS'41'
p3951
g9
(g13
S'>\xf2vG\xb3L\xad?'
p3952
tp3953
Rp3954
saaa(lp3955
I7
ag3911
ag57
a(lp3956
(dp3957
S'281'
p3958
g9
(g13
S'n\xa5\xca\x939w\xf2?'
p3959
tp3960
Rp3961
sS'1783'
p3962
g9
(g13
S'\x0b\xb9\x15m\x98\xe5\xf1?'
p3963
tp3964
Rp3965
sS'872'
p3966
g9
(g13
S'UE])6I\xf1?'
p3967
tp3968
Rp3969
sS'2063'
p3970
g9
(g13
S'\xf2\x8f\xcf\x05\x8cz\xf4?'
p3971
tp3972
Rp3973
sS'41'
p3974
g9
(g13
S'\xf0uJ Q\x9b\xf6?'
p3975
tp3976
Rp3977
sa(dp3978
S'281'
p3979
g9
(g13
S'\xf6\x1e\x0e_\xed2\xb2?'
p3980
tp3981
Rp3982
sS'1783'
p3983
g9
(g13
S'\xcb8U\xfbY\xa5\xb0?'
p3984
tp3985
Rp3986
sS'872'
p3987
g9
(g13
S'\x06\xe5\x06ph\xf2\xb2?'
p3988
tp3989
Rp3990
sS'2063'
p3991
g9
(g13
S'r\xdc-&<\xd7\xb6?'
p3992
tp3993
Rp3994
sS'41'
p3995
g9
(g13
S'\x16s\xfca\x82{\xb1?'
p3996
tp3997
Rp3998
saaa(lp3999
I7
ag3911
ag102
a(lp4000
(dp4001
S'281'
p4002
g9
(g13
S'\xad\xc9\x1ax<\xd2\x04@'
p4003
tp4004
Rp4005
sS'1783'
p4006
g9
(g13
S'\xed:w1\x87\xa6\x01@'
p4007
tp4008
Rp4009
sS'872'
p4010
g9
(g13
S'`\xde\xe3\x89\xe4\x97\x03@'
p4011
tp4012
Rp4013
sS'2063'
p4014
g9
(g13
S'\x9b\x94\x91|\xc6\x18\x05@'
p4015
tp4016
Rp4017
sS'41'
p4018
g9
(g13
S'\xa0\xba\xe3\xd1\x14K\x07@'
p4019
tp4020
Rp4021
sa(dp4022
S'281'
p4023
g9
(g13
S'\x85\x11\xdfj\xb7\xa8\xbd?'
p4024
tp4025
Rp4026
sS'1783'
p4027
g9
(g13
S'1\x81pYf\xb1\xb4?'
p4028
tp4029
Rp4030
sS'872'
p4031
g9
(g13
S'\xdf!\x9c\x86E\x8e\xb6?'
p4032
tp4033
Rp4034
sS'2063'
p4035
g9
(g13
S')|[X\x08:\xb7?'
p4036
tp4037
Rp4038
sS'41'
p4039
g9
(g13
S'\x9d\xd9\xdd\n\xe7\xcb\xb9?'
p4040
tp4041
Rp4042
saaa(lp4043
I7
ag3911
ag147
a(lp4044
(dp4045
S'281'
p4046
g9
(g13
S'\x9d\xd5\xdaI\xa6\xb1\x15@'
p4047
tp4048
Rp4049
sS'1783'
p4050
g9
(g13
S'\xc5\x81un\x99\xb4\x14@'
p4051
tp4052
Rp4053
sS'872'
p4054
g9
(g13
S'\xbd\x8d\x0b\xad\x8c\x8a\x15@'
p4055
tp4056
Rp4057
sS'2063'
p4058
g9
(g13
S'\xe7\xbez#\x03\xfa\x16@'
p4059
tp4060
Rp4061
sS'41'
p4062
g9
(g13
S'\xd9i\xc10\x89\xea\x16@'
p4063
tp4064
Rp4065
sa(dp4066
S'281'
p4067
g9
(g13
S'U\xb2Q\xdd\x1dl\xc0?'
p4068
tp4069
Rp4070
sS'1783'
p4071
g9
(g13
S'h\x13W\xd0\xa9)\xbe?'
p4072
tp4073
Rp4074
sS'872'
p4075
g9
(g13
S']\xc6r\x06/4\xc2?'
p4076
tp4077
Rp4078
sS'2063'
p4079
g9
(g13
S'\xb9\x9b\xf6\xcd\x8f\x82\xbe?'
p4080
tp4081
Rp4082
sS'41'
p4083
g9
(g13
S'L\x1d.\x9e\xe4a\xbf?'
p4084
tp4085
Rp4086
saaa(lp4087
I7
ag3911
ag192
a(lp4088
(dp4089
S'281'
p4090
g9
(g13
S'>\x88\xd2\x1cg\xb1&@'
p4091
tp4092
Rp4093
sS'1783'
p4094
g9
(g13
S'\xf8\x1d4\xad\xa0n%@'
p4095
tp4096
Rp4097
sS'872'
p4098
g9
(g13
S'U\x94\xdd$xN%@'
p4099
tp4100
Rp4101
sS'2063'
p4102
g9
(g13
S'P\xf7]S\xcc\xad)@'
p4103
tp4104
Rp4105
sS'41'
p4106
g9
(g13
S'WyR\xe9C\x96&@'
p4107
tp4108
Rp4109
sa(dp4110
S'281'
p4111
g9
(g13
S'\x8d&\x9aLF)\xc6?'
p4112
tp4113
Rp4114
sS'1783'
p4115
g9
(g13
S'\x11s\xb3\xae\x9dc\xc5?'
p4116
tp4117
Rp4118
sS'872'
p4119
g9
(g13
S'\xcc\xea\x98d$\xde\xc4?'
p4120
tp4121
Rp4122
sS'2063'
p4123
g9
(g13
S'\x01#\x86\xb9\xbai\xc6?'
p4124
tp4125
Rp4126
sS'41'
p4127
g9
(g13
S'\\\xcf\xee\x979.\xc5?'
p4128
tp4129
Rp4130
saaa(lp4131
I7
ag3911
ag237
a(lp4132
(dp4133
S'281'
p4134
g9
(g13
S'\xa4s\x949\xe4\xc94@'
p4135
tp4136
Rp4137
sS'1783'
p4138
g9
(g13
S'i%;\x88E\t4@'
p4139
tp4140
Rp4141
sS'872'
p4142
g9
(g13
S'C\x9anz;73@'
p4143
tp4144
Rp4145
sS'2063'
p4146
g9
(g13
S'\x84\xb7\xb5yqe7@'
p4147
tp4148
Rp4149
sS'41'
p4150
g9
(g13
S'\xb2\xb1\xf9\x96a83@'
p4151
tp4152
Rp4153
sa(dp4154
S'281'
p4155
g9
(g13
S'z\x00\xe0k\x9ey\xcb?'
p4156
tp4157
Rp4158
sS'1783'
p4159
g9
(g13
S'rI+\xca&}\xcb?'
p4160
tp4161
Rp4162
sS'872'
p4163
g9
(g13
S'\x17\x05=\xfb:\xd1\xca?'
p4164
tp4165
Rp4166
sS'2063'
p4167
g9
(g13
S'\x0f\x9e\x81J<\x80\xcc?'
p4168
tp4169
Rp4170
sS'41'
p4171
g9
(g13
S'\xbbJ\xa2\xd0`\xac\xcc?'
p4172
tp4173
Rp4174
saaa(lp4175
I7
ag3911
ag282
a(lp4176
(dp4177
S'281'
p4178
g9
(g13
S'c\xef\xf7#~\rA@'
p4179
tp4180
Rp4181
sS'1783'
p4182
g9
(g13
S'\x07\xc2\xa9\x11\x1c\x0f@@'
p4183
tp4184
Rp4185
sS'872'
p4186
g9
(g13
S'\xc8\x0c\xe4\x1c\xc1F?@'
p4187
tp4188
Rp4189
sS'2063'
p4190
g9
(g13
S'\xb5\xb7\x05\xb3\xb2\x0cC@'
p4191
tp4192
Rp4193
sS'41'
p4194
g9
(g13
S'\x03WY\xc1\xe0\xec>@'
p4195
tp4196
Rp4197
sa(dp4198
S'281'
p4199
g9
(g13
S'\xc8\x10\xce\xab\\\xce\xd1?'
p4200
tp4201
Rp4202
sS'1783'
p4203
g9
(g13
S'\x0f\xea7\xc4\x86L\xd1?'
p4204
tp4205
Rp4206
sS'872'
p4207
g9
(g13
S'K9Z\xa9\xc8\x90\xd0?'
p4208
tp4209
Rp4210
sS'2063'
p4211
g9
(g13
S'\x85f1\xc0\xd0\x9c\xd2?'
p4212
tp4213
Rp4214
sS'41'
p4215
g9
(g13
S'\\\x93\x87Y\xafV\xd1?'
p4216
tp4217
Rp4218
saaa(lp4219
I7
ag3911
ag327
a(lp4220
(dp4221
S'281'
p4222
g9
(g13
S'k\x1e\xcebI\xc2G@'
p4223
tp4224
Rp4225
sS'1783'
p4226
g9
(g13
S'\x0c\x1e\xdcNw\xe3F@'
p4227
tp4228
Rp4229
sS'872'
p4230
g9
(g13
S'\x11B\x90Y\x88\xbdE@'
p4231
tp4232
Rp4233
sS'2063'
p4234
g9
(g13
S'Wh-\x89\xcc\xa5J@'
p4235
tp4236
Rp4237
sS'41'
p4238
g9
(g13
S'\x05\xff^ K0E@'
p4239
tp4240
Rp4241
sa(dp4242
S'281'
p4243
g9
(g13
S'h&\xd9\x1b\xac\xf5\xd4?'
p4244
tp4245
Rp4246
sS'1783'
p4247
g9
(g13
S'2<\x84\x85SW\xd4?'
p4248
tp4249
Rp4250
sS'872'
p4251
g9
(g13
S'\xf5i;@o\xbd\xd3?'
p4252
tp4253
Rp4254
sS'2063'
p4255
g9
(g13
S'U\x0cJs\xefe\xd5?'
p4256
tp4257
Rp4258
sS'41'
p4259
g9
(g13
S'\x86\xb2\xff\xb4\xf7<\xd3?'
p4260
tp4261
Rp4262
saaa(lp4263
I7
ag3911
ag372
a(lp4264
(dp4265
S'281'
p4266
g9
(g13
S'\xe4\xda\x91f\xe8\xedL@'
p4267
tp4268
Rp4269
sS'1783'
p4270
g9
(g13
S'\xbb\x14\xd6\xf7\xc2\x03L@'
p4271
tp4272
Rp4273
sS'872'
p4274
g9
(g13
S'\x98C\x88\xeb1\xcaJ@'
p4275
tp4276
Rp4277
sS'2063'
p4278
g9
(g13
S'\xd6\r`\xb4\xdd`P@'
p4279
tp4280
Rp4281
sS'41'
p4282
g9
(g13
S'\x94\xf5\xafE\xe6\xc4I@'
p4283
tp4284
Rp4285
sa(dp4286
S'281'
p4287
g9
(g13
S'\xa2R\xcc)\xa5B\xd6?'
p4288
tp4289
Rp4290
sS'1783'
p4291
g9
(g13
S'\xaa\x7f\x8b\xb8\xa2\xe8\xd5?'
p4292
tp4293
Rp4294
sS'872'
p4295
g9
(g13
S"\x17\x7f\x1e'\xd1l\xd5?"
p4296
tp4297
Rp4298
sS'2063'
p4299
g9
(g13
S'G=\xd7Y\x9aR\xd7?'
p4300
tp4301
Rp4302
sS'41'
p4303
g9
(g13
S'z\xa9GN\xf7\x07\xd5?'
p4304
tp4305
Rp4306
saaa(lp4307
I7
ag3911
aS'10'
p4308
a(lp4309
(dp4310
S'281'
p4311
g9
(g13
S'\x9d\xc0\x80\xee\xa0\xf5N@'
p4312
tp4313
Rp4314
sS'1783'
p4315
g9
(g13
S'\x99\xd3\x83\x88D\x1eN@'
p4316
tp4317
Rp4318
sS'872'
p4319
g9
(g13
S'sbL\x92\xa3\xe0L@'
p4320
tp4321
Rp4322
sS'2063'
p4323
g9
(g13
S'\xac\xd8n\x91s\x81Q@'
p4324
tp4325
Rp4326
sS'41'
p4327
g9
(g13
S'\x14\x00Z"\x1b\x90K@'
p4328
tp4329
Rp4330
sa(dp4331
S'281'
p4332
g9
(g13
S'B\xdc\x89\xd8\\\x14\xd7?'
p4333
tp4334
Rp4335
sS'1783'
p4336
g9
(g13
S"p\x12\xcd'.[\xd7?"
p4337
tp4338
Rp4339
sS'872'
p4340
g9
(g13
S'F\xc3\xb8(\x00\x98\xd6?'
p4341
tp4342
Rp4343
sS'2063'
p4344
g9
(g13
S'\xace\x17\xd0g\x8f\xd8?'
p4345
tp4346
Rp4347
sS'41'
p4348
g9
(g13
S'\x9e\xccM/\xa6\x19\xd6?'
p4349
tp4350
Rp4351
saaa(lp4352
I7
ag3911
aS'11'
p4353
a(lp4354
(dp4355
S'281'
p4356
g9
(g13
S'\xca\xae\xe8\x83\xd1\xa1M@'
p4357
tp4358
Rp4359
sS'1783'
p4360
g9
(g13
S'\xech\xef\xcb\x15eL@'
p4361
tp4362
Rp4363
sS'872'
p4364
g9
(g13
S'k\x0b\xb98(VK@'
p4365
tp4366
Rp4367
sS'2063'
p4368
g9
(g13
S'x\xcdh27\xc6P@'
p4369
tp4370
Rp4371
sS'41'
p4372
g9
(g13
S'\xa1\x00\xd7haDJ@'
p4373
tp4374
Rp4375
sa(dp4376
S'281'
p4377
g9
(g13
S'"\xd1\xaa\xb6B\x9b\xd6?'
p4378
tp4379
Rp4380
sS'1783'
p4381
g9
(g13
S'>8\x7f\xbd\xe0*\xd6?'
p4382
tp4383
Rp4384
sS'872'
p4385
g9
(g13
S'e\x86)\x13\xe5\x96\xd5?'
p4386
tp4387
Rp4388
sS'2063'
p4389
g9
(g13
S'\xcaC2\x97\xbb\xbe\xd7?'
p4390
tp4391
Rp4392
sS'41'
p4393
g9
(g13
S'\xc0\xdfp\xf9|(\xd5?'
p4394
tp4395
Rp4396
saaa(lp4397
I7
ag3911
aS'12'
p4398
a(lp4399
(dp4400
S'281'
p4401
g9
(g13
S'\xbf\xa0\xe5\xca4\x16H@'
p4402
tp4403
Rp4404
sS'1783'
p4405
g9
(g13
S'K\xd2.ZBEG@'
p4406
tp4407
Rp4408
sS'872'
p4409
g9
(g13
S'a\x9d\xfdI&SF@'
p4410
tp4411
Rp4412
sS'2063'
p4413
g9
(g13
S'\x82\xb3\x18hChK@'
p4414
tp4415
Rp4416
sS'41'
p4417
g9
(g13
S'\x9f\x9e\xc1_\xfa\xd6E@'
p4418
tp4419
Rp4420
sa(dp4421
S'281'
p4422
g9
(g13
S'|83\xadp\x9f\xd4?'
p4423
tp4424
Rp4425
sS'1783'
p4426
g9
(g13
S'J\x8b\xe8\xcaH\xc5\xd4?'
p4427
tp4428
Rp4429
sS'872'
p4430
g9
(g13
S'\t\xa9n\xe3\xb5-\xd4?'
p4431
tp4432
Rp4433
sS'2063'
p4434
g9
(g13
S'FH\xec \x1a\x97\xd6?'
p4435
tp4436
Rp4437
sS'41'
p4438
g9
(g13
S'_\x0f \x8c\xdex\xd4?'
p4439
tp4440
Rp4441
saaa(lp4442
I7
ag3911
aS'13'
p4443
a(lp4444
(dp4445
S'281'
p4446
g9
(g13
S'\xce\xa8\xd9\xa2T\x82A@'
p4447
tp4448
Rp4449
sS'1783'
p4450
g9
(g13
S'>\xf3~N:\xdf@@'
p4451
tp4452
Rp4453
sS'872'
p4454
g9
(g13
S'\xb4\x05\x8b\xabge@@'
p4455
tp4456
Rp4457
sS'2063'
p4458
g9
(g13
S'&\xca\xe2&\x81\xc7C@'
p4459
tp4460
Rp4461
sS'41'
p4462
g9
(g13
S'\xa7\xda\x14\xb7\xb1\x8f?@'
p4463
tp4464
Rp4465
sa(dp4466
S'281'
p4467
g9
(g13
S'\xecv\x8f\xf2\x96\xf7\xd1?'
p4468
tp4469
Rp4470
sS'1783'
p4471
g9
(g13
S'%\x08,\xfe\x9e\xc5\xd1?'
p4472
tp4473
Rp4474
sS'872'
p4475
g9
(g13
S'2\xe8.a\xf6x\xd1?'
p4476
tp4477
Rp4478
sS'2063'
p4479
g9
(g13
S'\x81\x87X+\xef\x1f\xd3?'
p4480
tp4481
Rp4482
sS'41'
p4483
g9
(g13
S'\xfcA\xbf\xf4\x07\x10\xd1?'
p4484
tp4485
Rp4486
saaa(lp4487
I7
ag3911
aS'14'
p4488
a(lp4489
(dp4490
S'281'
p4491
g9
(g13
S'\xcfo6\xde\xa8\xcc5@'
p4492
tp4493
Rp4494
sS'1783'
p4495
g9
(g13
S'(5\xca\x8e|\xf14@'
p4496
tp4497
Rp4498
sS'872'
p4499
g9
(g13
S'\x118*O\xebd4@'
p4500
tp4501
Rp4502
sS'2063'
p4503
g9
(g13
S'\x8b\x1a\x9c\x0b\x11\xbf8@'
p4504
tp4505
Rp4506
sS'41'
p4507
g9
(g13
S'@!\x87\xbcw\xb94@'
p4508
tp4509
Rp4510
sa(dp4511
S'281'
p4512
g9
(g13
S'\x8f\xcf\xa5#\xe7\x8a\xcc?'
p4513
tp4514
Rp4515
sS'1783'
p4516
g9
(g13
S"\xc7'H\xc5R\xd9\xcb?"
p4517
tp4518
Rp4519
sS'872'
p4520
g9
(g13
S'Th\x9d\xcd%\xe4\xcb?'
p4521
tp4522
Rp4523
sS'2063'
p4524
g9
(g13
S'\xfeW\xace%\xa2\xcf?'
p4525
tp4526
Rp4527
sS'41'
p4528
g9
(g13
S'\xfa\x89\x02!#\xfb\xcc?'
p4529
tp4530
Rp4531
saaa(lp4532
I7
ag3911
aS'15'
p4533
a(lp4534
(dp4535
S'281'
p4536
g9
(g13
S"I<VB\xab\xbe'@"
p4537
tp4538
Rp4539
sS'1783'
p4540
g9
(g13
S'\xf2\x16\x0e\xff\xa9\x90&@'
p4541
tp4542
Rp4543
sS'872'
p4544
g9
(g13
S'LMv\xac\xe5&&@'
p4545
tp4546
Rp4547
sS'2063'
p4548
g9
(g13
S'\xc1&\xa5\xaa\x92:*@'
p4549
tp4550
Rp4551
sS'41'
p4552
g9
(g13
S"\xc7\xa33o\xb5\xe9'@"
p4553
tp4554
Rp4555
sa(dp4556
S'281'
p4557
g9
(g13
S'\xbe\x84\xf8\x93&\xaa\xc6?'
p4558
tp4559
Rp4560
sS'1783'
p4561
g9
(g13
S'\xb8\x92\xf7\xa5\x90!\xc4?'
p4562
tp4563
Rp4564
sS'872'
p4565
g9
(g13
S'\x07\xfb\x14\xee\x0fe\xc4?'
p4566
tp4567
Rp4568
sS'2063'
p4569
g9
(g13
S'\xfcr\xad~:\xe3\xc6?'
p4570
tp4571
Rp4572
sS'41'
p4573
g9
(g13
S'\xc09\xaa,H\xef\xc6?'
p4574
tp4575
Rp4576
saaa(lp4577
I7
ag3911
aS'16'
p4578
a(lp4579
(dp4580
S'281'
p4581
g9
(g13
S'(\x01~\xc1\xa9\x18\x18@'
p4582
tp4583
Rp4584
sS'1783'
p4585
g9
(g13
S'\xcd\x85\xc8\x7f\x9b\xa8\x15@'
p4586
tp4587
Rp4588
sS'872'
p4589
g9
(g13
S'\xbc\x0b \xaa\xfa\x90\x16@'
p4590
tp4591
Rp4592
sS'2063'
p4593
g9
(g13
S'\r\x0b-\xecj\xb0\x19@'
p4594
tp4595
Rp4596
sS'41'
p4597
g9
(g13
S'H\xd2\xcf\xac\xebM\x18@'
p4598
tp4599
Rp4600
sa(dp4601
S'281'
p4602
g9
(g13
S'\xb7\x9e\x14\x1e\x1a\xe7\xc0?'
p4603
tp4604
Rp4605
sS'1783'
p4606
g9
(g13
S'a\xe2(\x801\xb3\xbf?'
p4607
tp4608
Rp4609
sS'872'
p4610
g9
(g13
S'\xcb\xb77\xa5R\xc0\xbf?'
p4611
tp4612
Rp4613
sS'2063'
p4614
g9
(g13
S'\xb9k4\xdb3-\xc3?'
p4615
tp4616
Rp4617
sS'41'
p4618
g9
(g13
S'~\x9b\x85\xc6\xbc\xde\xc1?'
p4619
tp4620
Rp4621
saaa(lp4622
I7
ag3911
aS'17'
p4623
a(lp4624
(dp4625
S'281'
p4626
g9
(g13
S'\xb3\xb3\xdecB\xdf\x05@'
p4627
tp4628
Rp4629
sS'1783'
p4630
g9
(g13
S'\x1d\x17\x9e$\xe9\xe1\x02@'
p4631
tp4632
Rp4633
sS'872'
p4634
g9
(g13
S'\xd2\n8\x0fam\x04@'
p4635
tp4636
Rp4637
sS'2063'
p4638
g9
(g13
S'v\xcd[A\x04H\x08@'
p4639
tp4640
Rp4641
sS'41'
p4642
g9
(g13
S'W\xfbHK\xc1\r\x08@'
p4643
tp4644
Rp4645
sa(dp4646
S'281'
p4647
g9
(g13
S'2\xa7"\xfdj\x1a\xb9?'
p4648
tp4649
Rp4650
sS'1783'
p4651
g9
(g13
S'$\xbd\xb3\xf1h>\xb6?'
p4652
tp4653
Rp4654
sS'872'
p4655
g9
(g13
S'\x11\x05l\x1fOZ\xb9?'
p4656
tp4657
Rp4658
sS'2063'
p4659
g9
(g13
S'<\xbfy?$^\xb9?'
p4660
tp4661
Rp4662
sS'41'
p4663
g9
(g13
S'\xdb\xf4\x00\xf6L\xae\xbc?'
p4664
tp4665
Rp4666
saaa(lp4667
I7
ag3911
aS'18'
p4668
a(lp4669
(dp4670
S'281'
p4671
g9
(g13
S'\xeb\xce\xf4l\x88h\xf6?'
p4672
tp4673
Rp4674
sS'1783'
p4675
g9
(g13
S'\xe2\xe1\xfd5(\x99\xf3?'
p4676
tp4677
Rp4678
sS'872'
p4679
g9
(g13
S'\xc6Y\xf1M\xa2f\xf2?'
p4680
tp4681
Rp4682
sS'2063'
p4683
g9
(g13
S'\xd6m\x00T\x83\xfc\xf4?'
p4684
tp4685
Rp4686
sS'41'
p4687
g9
(g13
S'\x08X\xb6\xdb\x89k\xf5?'
p4688
tp4689
Rp4690
sa(dp4691
S'281'
p4692
g9
(g13
S'\x9e\xd0\xe2\xe7m\xbd\xbc?'
p4693
tp4694
Rp4695
sS'1783'
p4696
g9
(g13
S'\xf4m\x9a\xf4\xf5\n\xb4?'
p4697
tp4698
Rp4699
sS'872'
p4700
g9
(g13
S'"O\xcb\xb2\t\x9e\xb3?'
p4701
tp4702
Rp4703
sS'2063'
p4704
g9
(g13
S'\xb0_\x12\xa8`\xf4\xb2?'
p4705
tp4706
Rp4707
sS'41'
p4708
g9
(g13
S'\x1e5z\xbfG\x93\xb0?'
p4709
tp4710
Rp4711
saaa(lp4712
I7
ag3911
aS'19'
p4713
a(lp4714
(dp4715
S'281'
p4716
g9
(g13
S'SxmW\xc8X\xe8?'
p4717
tp4718
Rp4719
sS'1783'
p4720
g9
(g13
S'\xc9\x8a\xa4\xb5\xd2u\xe2?'
p4721
tp4722
Rp4723
sS'872'
p4724
g9
(g13
S'\xd9A\x81\xae_!\xe7?'
p4725
tp4726
Rp4727
sS'2063'
p4728
g9
(g13
S'#H\xa7\xadtf\xe4?'
p4729
tp4730
Rp4731
sS'41'
p4732
g9
(g13
S'I\x84"\xcf\x03c\xeb?'
p4733
tp4734
Rp4735
sa(dp4736
S'281'
p4737
g9
(g13
S'j\x1c\xda\x92\xbf\x08\xb3?'
p4738
tp4739
Rp4740
sS'1783'
p4741
g9
(g13
S'v\xb9\xc4\x11\x04\xaa\xac?'
p4742
tp4743
Rp4744
sS'872'
p4745
g9
(g13
S'\x1ak\x85b\x9e\xaf\xb0?'
p4746
tp4747
Rp4748
sS'2063'
p4749
g9
(g13
S'\x05\xe3\xed\xa6\x04N\xa8?'
p4750
tp4751
Rp4752
sS'41'
p4753
g9
(g13
S'k\x94\x81U-\xe1\xb6?'
p4754
tp4755
Rp4756
saaasS'Scan_1'
p4757
(lp4758
(lp4759
I1
aVX1
p4760
ag5
a(lp4761
(dp4762
S'281'
p4763
g9
(g13
S'r1\xae\x01\xcf\xac\xdb?'
p4764
tp4765
Rp4766
sS'1783'
p4767
g9
(g13
S'9\xf4\xa0\x8e\x06\xf4\xda?'
p4768
tp4769
Rp4770
sS'872'
p4771
g9
(g13
S'<\xf1\xe5\xdd\xdb\x9e\xe0?'
p4772
tp4773
Rp4774
sS'2063'
p4775
g9
(g13
S'\x06\\\xfe$\xf9\xc4\xda?'
p4776
tp4777
Rp4778
sS'41'
p4779
g9
(g13
S'\xfb\xc7\xd3\x18<3\xd3?'
p4780
tp4781
Rp4782
sa(dp4783
S'281'
p4784
g9
(g13
S'\x12p\xb9\xb0\x1b\xe1\xb2?'
p4785
tp4786
Rp4787
sS'1783'
p4788
g9
(g13
S'd\r\x85\xd7\xddZ\xb4?'
p4789
tp4790
Rp4791
sS'872'
p4792
g9
(g13
S'\xc6\x04\xc9\xda^\x00\xba?'
p4793
tp4794
Rp4795
sS'2063'
p4796
g9
(g13
S';\x81V\xb7\xaa\xbe\xb3?'
p4797
tp4798
Rp4799
sS'41'
p4800
g9
(g13
S'\xfa\xed\x19O1.\xa4?'
p4801
tp4802
Rp4803
saaa(lp4804
I1
ag4760
ag57
a(lp4805
(dp4806
S'281'
p4807
g9
(g13
S'!|\x02\xb7\x8am\xd7?'
p4808
tp4809
Rp4810
sS'1783'
p4811
g9
(g13
S'n\xd9\n\x08\x9dy\xe0?'
p4812
tp4813
Rp4814
sS'872'
p4815
g9
(g13
S'\x01R~Fk\x8f\xdc?'
p4816
tp4817
Rp4818
sS'2063'
p4819
g9
(g13
S'\x8e{\xeb\x8a\xf3\x8a\xd8?'
p4820
tp4821
Rp4822
sS'41'
p4823
g9
(g13
S'\xdciSz4`\xe3?'
p4824
tp4825
Rp4826
sa(dp4827
S'281'
p4828
g9
(g13
S'\xf4[RZq\xd1\xaa?'
p4829
tp4830
Rp4831
sS'1783'
p4832
g9
(g13
S'\xa1\xee\x93i`\xaf\xb6?'
p4833
tp4834
Rp4835
sS'872'
p4836
g9
(g13
S'\x05L\xc4\x91\xbaO\xb3?'
p4837
tp4838
Rp4839
sS'2063'
p4840
g9
(g13
S'D\xd5>@\xf1\x01\xb0?'
p4841
tp4842
Rp4843
sS'41'
p4844
g9
(g13
S'\x05N3\x9c\n\n\xbf?'
p4845
tp4846
Rp4847
saaa(lp4848
I1
ag4760
ag102
a(lp4849
(dp4850
S'281'
p4851
g9
(g13
S'\xd7\xe2\x8d\x0b\xa1#\xdc?'
p4852
tp4853
Rp4854
sS'1783'
p4855
g9
(g13
S'Iu:\x0edO\xde?'
p4856
tp4857
Rp4858
sS'872'
p4859
g9
(g13
S'\x99^\xf7\xb1\xc6\xa0\xdb?'
p4860
tp4861
Rp4862
sS'2063'
p4863
g9
(g13
S'S\xd4\xcc\x8dl\xdc\xda?'
p4864
tp4865
Rp4866
sS'41'
p4867
g9
(g13
S'\x16~\xed\xb8\xda\xa7\xe0?'
p4868
tp4869
Rp4870
sa(dp4871
S'281'
p4872
g9
(g13
S'N\xb0\x9d2R\xfa\xaf?'
p4873
tp4874
Rp4875
sS'1783'
p4876
g9
(g13
S'\xc3Bn\xddV\xee\xb4?'
p4877
tp4878
Rp4879
sS'872'
p4880
g9
(g13
S'\x13\xb0k\x9b.%\xb3?'
p4881
tp4882
Rp4883
sS'2063'
p4884
g9
(g13
S'\xa8\xebe(J\xf8\xac?'
p4885
tp4886
Rp4887
sS'41'
p4888
g9
(g13
S'?/x\x97\x8d\xeb\xb1?'
p4889
tp4890
Rp4891
saaa(lp4892
I1
ag4760
ag147
a(lp4893
(dp4894
S'281'
p4895
g9
(g13
S'\xb5\xbai\x88\xbc\x19\xe2?'
p4896
tp4897
Rp4898
sS'1783'
p4899
g9
(g13
S'l\x13\x83_\r\x85\xe3?'
p4900
tp4901
Rp4902
sS'872'
p4903
g9
(g13
S'\xbbP\xc2\xbb\n\x88\xe3?'
p4904
tp4905
Rp4906
sS'2063'
p4907
g9
(g13
S'\xfd\xd7g-\x9b\xda\xe3?'
p4908
tp4909
Rp4910
sS'41'
p4911
g9
(g13
S'\x15\x94\xdeT\x15G\xe3?'
p4912
tp4913
Rp4914
sa(dp4915
S'281'
p4916
g9
(g13
S'G\xf0g\xd4\x1f\x84\xb1?'
p4917
tp4918
Rp4919
sS'1783'
p4920
g9
(g13
S'"&6_=\xa7\xb0?'
p4921
tp4922
Rp4923
sS'872'
p4924
g9
(g13
S'\xf2I\xa40\x8b\xcc\xae?'
p4925
tp4926
Rp4927
sS'2063'
p4928
g9
(g13
S"'A#a@\x9c\xb2?"
p4929
tp4930
Rp4931
sS'41'
p4932
g9
(g13
S'\xc8%\x95[\xee\x9f\xa7?'
p4933
tp4934
Rp4935
saaa(lp4936
I1
ag4760
ag192
a(lp4937
(dp4938
S'281'
p4939
g9
(g13
S'\x8ew\xd8H\xad\x81\xf3?'
p4940
tp4941
Rp4942
sS'1783'
p4943
g9
(g13
S'<:,Vu\x99\xf2?'
p4944
tp4945
Rp4946
sS'872'
p4947
g9
(g13
S'\x1aR\xb6{\xd2\x1c\xf0?'
p4948
tp4949
Rp4950
sS'2063'
p4951
g9
(g13
S'?\x92H\xc0\xc2\xb7\xf5?'
p4952
tp4953
Rp4954
sS'41'
p4955
g9
(g13
S'\xcf\x1f\xdeX\xc3\xc2\xf7?'
p4956
tp4957
Rp4958
sa(dp4959
S'281'
p4960
g9
(g13
S'#R\x11m\x80>\xbe?'
p4961
tp4962
Rp4963
sS'1783'
p4964
g9
(g13
S'\x92\x9a>A\xfbf\xb8?'
p4965
tp4966
Rp4967
sS'872'
p4968
g9
(g13
S'Pv\xe5\xc3A"\xb0?'
p4969
tp4970
Rp4971
sS'2063'
p4972
g9
(g13
S'\xaaj\xe8-k\xd2\xc2?'
p4973
tp4974
Rp4975
sS'41'
p4976
g9
(g13
S'y\xe8\x8f\xe2\xd7i\xbc?'
p4977
tp4978
Rp4979
saaa(lp4980
I1
ag4760
ag237
a(lp4981
(dp4982
S'281'
p4983
g9
(g13
S'\xdb8\x1b@\xb0\\\x03@'
p4984
tp4985
Rp4986
sS'1783'
p4987
g9
(g13
S'r\xec\x1dfy\xa3\x02@'
p4988
tp4989
Rp4990
sS'872'
p4991
g9
(g13
S'\x12\x99wa\xabz\x03@'
p4992
tp4993
Rp4994
sS'2063'
p4995
g9
(g13
S'v\x8d\x9c{\xee\xc6\x05@'
p4996
tp4997
Rp4998
sS'41'
p4999
g9
(g13
S'\xe3\xa8\xac\xfb\xc7\xd0\x08@'
p5000
tp5001
Rp5002
sa(dp5003
S'281'
p5004
g9
(g13
S'\x95\x84\xa3\xdc\xdc\xb0\xbe?'
p5005
tp5006
Rp5007
sS'1783'
p5008
g9
(g13
S"}\xec'\x88\xaf\xd2\xb7?"
p5009
tp5010
Rp5011
sS'872'
p5012
g9
(g13
S'\x89\xcc\x17\xfd]\x90\xbe?'
p5013
tp5014
Rp5015
sS'2063'
p5016
g9
(g13
S'\x8d\xa3\xf8\x8b\x95\xbb\xc1?'
p5017
tp5018
Rp5019
sS'41'
p5020
g9
(g13
S's\xf3*T/$\xc1?'
p5021
tp5022
Rp5023
saaa(lp5024
I1
ag4760
ag282
a(lp5025
(dp5026
S'281'
p5027
g9
(g13
S'\xcd\xbct\x14\xf8\x99\x16@'
p5028
tp5029
Rp5030
sS'1783'
p5031
g9
(g13
S'[V\r\xa9\xd7!\x14@'
p5032
tp5033
Rp5034
sS'872'
p5035
g9
(g13
S'\x8c\xa0\x89\xad\x14\xf3\x14@'
p5036
tp5037
Rp5038
sS'2063'
p5039
g9
(g13
S'\xa8\x0b\x0b\xf9e\xf3\x17@'
p5040
tp5041
Rp5042
sS'41'
p5043
g9
(g13
S'\xb6\xcb\xf2\xc8\x06-\x17@'
p5044
tp5045
Rp5046
sa(dp5047
S'281'
p5048
g9
(g13
S'KrI\x0e~B\xc4?'
p5049
tp5050
Rp5051
sS'1783'
p5052
g9
(g13
S'\xe0\x1f\x95B4\x8e\xc2?'
p5053
tp5054
Rp5055
sS'872'
p5056
g9
(g13
S'|v\xf4\xd5\xbbG\xc3?'
p5057
tp5058
Rp5059
sS'2063'
p5060
g9
(g13
S')\x8d\x1d\xe8\xa7\x95\xc2?'
p5061
tp5062
Rp5063
sS'41'
p5064
g9
(g13
S'\x18\xf1\xef\xfe^\xed\xc0?'
p5065
tp5066
Rp5067
saaa(lp5068
I1
ag4760
ag327
a(lp5069
(dp5070
S'281'
p5071
g9
(g13
S'P\x94\x9f\x162s&@'
p5072
tp5073
Rp5074
sS'1783'
p5075
g9
(g13
S'\x97;*w(~$@'
p5076
tp5077
Rp5078
sS'872'
p5079
g9
(g13
S'\xacZzv\xcf\xdf$@'
p5080
tp5081
Rp5082
sS'2063'
p5083
g9
(g13
S'^\x0fx;e!(@'
p5084
tp5085
Rp5086
sS'41'
p5087
g9
(g13
S'\xdc\x16\xa6\x06\xcd\xa6&@'
p5088
tp5089
Rp5090
sa(dp5091
S'281'
p5092
g9
(g13
S'\xb6\x15\xc2\t\xc3/\xc9?'
p5093
tp5094
Rp5095
sS'1783'
p5096
g9
(g13
S'!+?\x15N\x04\xc7?'
p5097
tp5098
Rp5099
sS'872'
p5100
g9
(g13
S'E\xe8\xdc\xbd\xf6g\xc8?'
p5101
tp5102
Rp5103
sS'2063'
p5104
g9
(g13
S'\xbe\x96X\x90\xa10\xc9?'
p5105
tp5106
Rp5107
sS'41'
p5108
g9
(g13
S'\x82\xd9\x1c{\xe8\\\xc8?'
p5109
tp5110
Rp5111
saaa(lp5112
I1
ag4760
ag372
a(lp5113
(dp5114
S'281'
p5115
g9
(g13
S'B\x8a\xcaa\x1eR4@'
p5116
tp5117
Rp5118
sS'1783'
p5119
g9
(g13
S'\x9b\xde\xc7\xb63\x143@'
p5120
tp5121
Rp5122
sS'872'
p5123
g9
(g13
S'\x84\xce\xd3UNF3@'
p5124
tp5125
Rp5126
sS'2063'
p5127
g9
(g13
S'KB\xb4\xdbUM7@'
p5128
tp5129
Rp5130
sS'41'
p5131
g9
(g13
S'\xa7\xcf\xbf\x97\x1aQ3@'
p5132
tp5133
Rp5134
sa(dp5135
S'281'
p5136
g9
(g13
S'.\x90W\x94\xcfF\xd0?'
p5137
tp5138
Rp5139
sS'1783'
p5140
g9
(g13
S'g\xa1\xe7VR6\xcf?'
p5141
tp5142
Rp5143
sS'872'
p5144
g9
(g13
S'r#\x85\x8d\xd7@\xcf?'
p5145
tp5146
Rp5147
sS'2063'
p5148
g9
(g13
S'\x12\xa0c\xc0K\x00\xd2?'
p5149
tp5150
Rp5151
sS'41'
p5152
g9
(g13
S'\xadYo\x01D\xb8\xcf?'
p5153
tp5154
Rp5155
saaa(lp5156
I1
ag4760
aS'10'
p5157
a(lp5158
(dp5159
S'281'
p5160
g9
(g13
S'W2\xa9\x81\x05\x18A@'
p5161
tp5162
Rp5163
sS'1783'
p5164
g9
(g13
S'`\xff`\x13DT@@'
p5165
tp5166
Rp5167
sS'872'
p5168
g9
(g13
S'\xa0\xdf\xcdt\xe9\n?@'
p5169
tp5170
Rp5171
sS'2063'
p5172
g9
(g13
S'I\xd0+y\xaa\xf0B@'
p5173
tp5174
Rp5175
sS'41'
p5176
g9
(g13
S'\x96\\\xb9\x0b$\xf1=@'
p5177
tp5178
Rp5179
sa(dp5180
S'281'
p5181
g9
(g13
S'\x9e\xafg\x9f\x91\xa3\xd4?'
p5182
tp5183
Rp5184
sS'1783'
p5185
g9
(g13
S'$\xf5\xae\x9e\xc4[\xd4?'
p5186
tp5187
Rp5188
sS'872'
p5189
g9
(g13
S'\x9bb~\xfd\x0e\xc2\xd3?'
p5190
tp5191
Rp5192
sS'2063'
p5193
g9
(g13
S'_s\x1c"{l\xd6?'
p5194
tp5195
Rp5196
sS'41'
p5197
g9
(g13
S'\xdd\xfd\x85\x84\xaa.\xd3?'
p5198
tp5199
Rp5200
saaa(lp5201
I1
ag4760
aS'11'
p5202
a(lp5203
(dp5204
S'281'
p5205
g9
(g13
S'\xff\xa8}\x04\xc6|G@'
p5206
tp5207
Rp5208
sS'1783'
p5209
g9
(g13
S'F\xa5.Q`CF@'
p5210
tp5211
Rp5212
sS'872'
p5213
g9
(g13
S'\xc6\x86>\xf7\x1coE@'
p5214
tp5215
Rp5216
sS'2063'
p5217
g9
(g13
S'\xad\xbc\xb01\x8c~J@'
p5218
tp5219
Rp5220
sS'41'
p5221
g9
(g13
S'\xe8<6\x02)\xf8D@'
p5222
tp5223
Rp5224
sa(dp5225
S'281'
p5226
g9
(g13
S'~!\xb2\x05\x8dm\xd8?'
p5227
tp5228
Rp5229
sS'1783'
p5230
g9
(g13
S'\x80\xc2\xbc\x15\xb3J\xd6?'
p5231
tp5232
Rp5233
sS'872'
p5234
g9
(g13
S'\x1cU\x07\x96\xdbD\xd6?'
p5235
tp5236
Rp5237
sS'2063'
p5238
g9
(g13
S'\x1cf\x1a\xa6}\xca\xd8?'
p5239
tp5240
Rp5241
sS'41'
p5242
g9
(g13
S'Z#~\x80B\x02\xd6?'
p5243
tp5244
Rp5245
saaa(lp5246
I1
ag4760
aS'12'
p5247
a(lp5248
(dp5249
S'281'
p5250
g9
(g13
S'\x11\xc2P\xfa\x1b\xbbL@'
p5251
tp5252
Rp5253
sS'1783'
p5254
g9
(g13
S"\xc8'\xfeH`\xbcK@"
p5255
tp5256
Rp5257
sS'872'
p5258
g9
(g13
S'\x1eW\xc2*\x10HJ@'
p5259
tp5260
Rp5261
sS'2063'
p5262
g9
(g13
S'q\x11\xa9\xd9\xfd<P@'
p5263
tp5264
Rp5265
sS'41'
p5266
g9
(g13
S'\xe7\x10}\xe6g9I@'
p5267
tp5268
Rp5269
sa(dp5270
S'281'
p5271
g9
(g13
S'\xf6\x0c\x16\xccAU\xda?'
p5272
tp5273
Rp5274
sS'1783'
p5275
g9
(g13
S'\xc9%\xa7\xbe\x13\x92\xd9?'
p5276
tp5277
Rp5278
sS'872'
p5279
g9
(g13
S'\xae7\xabW\x14\r\xd9?'
p5280
tp5281
Rp5282
sS'2063'
p5283
g9
(g13
S'\xcfv\xf1\xa2\xe3\x11\xdb?'
p5284
tp5285
Rp5286
sS'41'
p5287
g9
(g13
S'\xa9\xe39 0$\xd8?'
p5288
tp5289
Rp5290
saaa(lp5291
I1
ag4760
aS'13'
p5292
a(lp5293
(dp5294
S'281'
p5295
g9
(g13
S'D\x04\xff\x14{\xd2N@'
p5296
tp5297
Rp5298
sS'1783'
p5299
g9
(g13
S'\x98\xe0\xae1\xde\xedM@'
p5300
tp5301
Rp5302
sS'872'
p5303
g9
(g13
S'H}\x1c1n\nL@'
p5304
tp5305
Rp5306
sS'2063'
p5307
g9
(g13
S'\x89/Y\xcd\x06aQ@'
p5308
tp5309
Rp5310
sS'41'
p5311
g9
(g13
S'\xbf\xea\x96p \xbcJ@'
p5312
tp5313
Rp5314
sa(dp5315
S'281'
p5316
g9
(g13
S'\xfe\x12\xe8\\\xed\xf7\xda?'
p5317
tp5318
Rp5319
sS'1783'
p5320
g9
(g13
S'\x1di\xb7\x17d\x81\xda?'
p5321
tp5322
Rp5323
sS'872'
p5324
g9
(g13
S'\xb0m=\xb9\x8f\x85\xd9?'
p5325
tp5326
Rp5327
sS'2063'
p5328
g9
(g13
S'\xb36\xc1D|\x03\xdd?'
p5329
tp5330
Rp5331
sS'41'
p5332
g9
(g13
S"-K\x88Ah'\xd9?"
p5333
tp5334
Rp5335
saaa(lp5336
I1
ag4760
aS'14'
p5337
a(lp5338
(dp5339
S'281'
p5340
g9
(g13
S'\xf5D\xbe\x1a\x8e\xc2L@'
p5341
tp5342
Rp5343
sS'1783'
p5344
g9
(g13
S'\x87\xc1\x05\xbaA\xa9K@'
p5345
tp5346
Rp5347
sS'872'
p5348
g9
(g13
S'(S\x05\xdc\xef6J@'
p5349
tp5350
Rp5351
sS'2063'
p5352
g9
(g13
S'\xf1\x19(\x9fP\x87P@'
p5353
tp5354
Rp5355
sS'41'
p5356
g9
(g13
S'\x94wA\x91\xe3"I@'
p5357
tp5358
Rp5359
sa(dp5360
S'281'
p5361
g9
(g13
S'q\x801\xb7?\x18\xdb?'
p5362
tp5363
Rp5364
sS'1783'
p5365
g9
(g13
S'\xac\x9a\x11\x1d\x89\x1d\xda?'
p5366
tp5367
Rp5368
sS'872'
p5369
g9
(g13
S'\xaeH\xc2$F\x15\xda?'
p5370
tp5371
Rp5372
sS'2063'
p5373
g9
(g13
S'\xc7\xff|\xe8Dn\xdd?'
p5374
tp5375
Rp5376
sS'41'
p5377
g9
(g13
S'\x04,\x8by\xbb\xa8\xd8?'
p5378
tp5379
Rp5380
saaa(lp5381
I1
ag4760
aS'15'
p5382
a(lp5383
(dp5384
S'281'
p5385
g9
(g13
S'\xad\xa5\xffH8wG@'
p5386
tp5387
Rp5388
sS'1783'
p5389
g9
(g13
S'\xf5\xe3C\x18\x16\xb2F@'
p5390
tp5391
Rp5392
sS'872'
p5393
g9
(g13
S'\xd6\x8ba\x9b\xd1\xadE@'
p5394
tp5395
Rp5396
sS'2063'
p5397
g9
(g13
S'"\xc6@\xfb\xfa\xf1J@'
p5398
tp5399
Rp5400
sS'41'
p5401
g9
(g13
S'\x9c\x0b\xe9n\x9e\xf9D@'
p5402
tp5403
Rp5404
sa(dp5405
S'281'
p5406
g9
(g13
S'\x04\x91\xe4\xd9\xb59\xd8?'
p5407
tp5408
Rp5409
sS'1783'
p5410
g9
(g13
S'^\x88\xe2\xa6\xd52\xd7?'
p5411
tp5412
Rp5413
sS'872'
p5414
g9
(g13
S'\x1f\xb8I=\xc9\xf6\xd6?'
p5415
tp5416
Rp5417
sS'2063'
p5418
g9
(g13
S'\xf4mb\xcc-/\xd9?'
p5419
tp5420
Rp5421
sS'41'
p5422
g9
(g13
S'\xad|\x8e\x89\xe7\xdb\xd6?'
p5423
tp5424
Rp5425
saaa(lp5426
I1
ag4760
aS'16'
p5427
a(lp5428
(dp5429
S'281'
p5430
g9
(g13
S'o\xade\x80\xb0\xb3@@'
p5431
tp5432
Rp5433
sS'1783'
p5434
g9
(g13
S'X\t!\xba\x1d>@@'
p5435
tp5436
Rp5437
sS'872'
p5438
g9
(g13
S'.\xb2>`\x8d\xfd?@'
p5439
tp5440
Rp5441
sS'2063'
p5442
g9
(g13
S'r7\xaf\x95\x83hC@'
p5443
tp5444
Rp5445
sS'41'
p5446
g9
(g13
S'\xac\xe7\xbc\xe2\x19i>@'
p5447
tp5448
Rp5449
sa(dp5450
S'281'
p5451
g9
(g13
S'\xdee:;\x19\xe9\xd3?'
p5452
tp5453
Rp5454
sS'1783'
p5455
g9
(g13
S'$,f>\xb9\xee\xd3?'
p5456
tp5457
Rp5458
sS'872'
p5459
g9
(g13
S"\xe0\xc8U\x8d\x0c'\xd4?"
p5460
tp5461
Rp5462
sS'2063'
p5463
g9
(g13
S'D\x07\xa2\xef[=\xd5?'
p5464
tp5465
Rp5466
sS'41'
p5467
g9
(g13
S'z\xbb\x05\xa6R\x1d\xd3?'
p5468
tp5469
Rp5470
saaa(lp5471
I1
ag4760
aS'17'
p5472
a(lp5473
(dp5474
S'281'
p5475
g9
(g13
S'@\x00Q\xe2\xa9\xfe4@'
p5476
tp5477
Rp5478
sS'1783'
p5479
g9
(g13
S'\x10o\xc2\x8f\x85\x104@'
p5480
tp5481
Rp5482
sS'872'
p5483
g9
(g13
S'%?\xfa\xbc[\x844@'
p5484
tp5485
Rp5486
sS'2063'
p5487
g9
(g13
S'\xb6\xa7\x93\x08\x94W7@'
p5488
tp5489
Rp5490
sS'41'
p5491
g9
(g13
S'\x8d\xf6`\xce\xd7\xd23@'
p5492
tp5493
Rp5494
sa(dp5495
S'281'
p5496
g9
(g13
S'\xc6\xdfF\xf1k\xf4\xd0?'
p5497
tp5498
Rp5499
sS'1783'
p5500
g9
(g13
S'\xfc\x7f\xca>\x07\xad\xcf?'
p5501
tp5502
Rp5503
sS'872'
p5504
g9
(g13
S'\x95\xfaR\x17=g\xd0?'
p5505
tp5506
Rp5507
sS'2063'
p5508
g9
(g13
S'\x0br.\xdd\x17\xc6\xd0?'
p5509
tp5510
Rp5511
sS'41'
p5512
g9
(g13
S'\xd8$t\xf49\xe2\xcf?'
p5513
tp5514
Rp5515
saaa(lp5516
I1
ag4760
aS'18'
p5517
a(lp5518
(dp5519
S'281'
p5520
g9
(g13
S"\xc6\xa5\x02\xb9Q\xc7'@"
p5521
tp5522
Rp5523
sS'1783'
p5524
g9
(g13
S'M\x94\x1e\xa5\x9d\xc1&@'
p5525
tp5526
Rp5527
sS'872'
p5528
g9
(g13
S'\xef\xd5\x11UE\xfa&@'
p5529
tp5530
Rp5531
sS'2063'
p5532
g9
(g13
S'\xf8\x9b\x0b\x80;\x87*@'
p5533
tp5534
Rp5535
sS'41'
p5536
g9
(g13
S"'\x8f\xaed:\xf7&@"
p5537
tp5538
Rp5539
sa(dp5540
S'281'
p5541
g9
(g13
S'\xa5X\x1b\x9b\xab\xc3\xca?'
p5542
tp5543
Rp5544
sS'1783'
p5545
g9
(g13
S'}\xaa\xce\xad\xce\t\xca?'
p5546
tp5547
Rp5548
sS'872'
p5549
g9
(g13
S'\xc2\x85\xdc\x96aa\xca?'
p5550
tp5551
Rp5552
sS'2063'
p5553
g9
(g13
S'i~\xc6\x85\x83\xc4\xca?'
p5554
tp5555
Rp5556
sS'41'
p5557
g9
(g13
S'$\xc7\x8d\xc1\xb9\n\xc9?'
p5558
tp5559
Rp5560
saaa(lp5561
I1
ag4760
aS'19'
p5562
a(lp5563
(dp5564
S'281'
p5565
g9
(g13
S'\xd7otD\t\x13\x17@'
p5566
tp5567
Rp5568
sS'1783'
p5569
g9
(g13
S'\n\xba\xaaZ\xb4a\x15@'
p5570
tp5571
Rp5572
sS'872'
p5573
g9
(g13
S'\xb7B6\x9e\xa5u\x15@'
p5574
tp5575
Rp5576
sS'2063'
p5577
g9
(g13
S'\x1e\x90\x10\x80+4\x19@'
p5578
tp5579
Rp5580
sS'41'
p5581
g9
(g13
S'c\xda;1\x9c\x1a\x18@'
p5582
tp5583
Rp5584
sa(dp5585
S'281'
p5586
g9
(g13
S'\x10\xf8\x1c\x1a\n\x03\xc5?'
p5587
tp5588
Rp5589
sS'1783'
p5590
g9
(g13
S'\x9cQ\xb8\xd81\x1d\xc4?'
p5591
tp5592
Rp5593
sS'872'
p5594
g9
(g13
S'10\xefp\xad\xbe\xc2?'
p5595
tp5596
Rp5597
sS'2063'
p5598
g9
(g13
S'\xde7\x1dC\xa4\x15\xc6?'
p5599
tp5600
Rp5601
sS'41'
p5602
g9
(g13
S'\xd1\xa3\x01\x90\xcb!\xc4?'
p5603
tp5604
Rp5605
saaa(lp5606
I1
ag4760
aS'20'
p5607
a(lp5608
(dp5609
S'281'
p5610
g9
(g13
S'\x18\xbb7\xf38\xb8\x04@'
p5611
tp5612
Rp5613
sS'1783'
p5614
g9
(g13
S'\x17L\xc7T\xdaa\x04@'
p5615
tp5616
Rp5617
sS'872'
p5618
g9
(g13
S';\x06\x05\x9b\xb1\xf3\x03@'
p5619
tp5620
Rp5621
sS'2063'
p5622
g9
(g13
S'\x88%I\x0c\x9e \x07@'
p5623
tp5624
Rp5625
sS'41'
p5626
g9
(g13
S'\x88\x90\x13?7m\x07@'
p5627
tp5628
Rp5629
sa(dp5630
S'281'
p5631
g9
(g13
S'\xa7\xd1\x7f\x8a\xd6\x08\xbb?'
p5632
tp5633
Rp5634
sS'1783'
p5635
g9
(g13
S'0d/\x8e\xec\x9e\xc0?'
p5636
tp5637
Rp5638
sS'872'
p5639
g9
(g13
S'\xaa\xef\xe6F\xaf\xe2\xbf?'
p5640
tp5641
Rp5642
sS'2063'
p5643
g9
(g13
S'\xd0\xaf-#\xf7\x0b\xc4?'
p5644
tp5645
Rp5646
sS'41'
p5647
g9
(g13
S'\x9a\xf3b\xc4\xa6b\xbe?'
p5648
tp5649
Rp5650
saaa(lp5651
I1
ag4760
aS'21'
p5652
a(lp5653
(dp5654
S'281'
p5655
g9
(g13
S'\xf9\x1e\x8bF\x8eP\xf4?'
p5656
tp5657
Rp5658
sS'1783'
p5659
g9
(g13
S'S\xfe\x1a^dz\xf0?'
p5660
tp5661
Rp5662
sS'872'
p5663
g9
(g13
S'\xe7+\xb8\xf4\x15\xfd\xf2?'
p5664
tp5665
Rp5666
sS'2063'
p5667
g9
(g13
S'\xed\x18]\x1b\xad\xb3\xf4?'
p5668
tp5669
Rp5670
sS'41'
p5671
g9
(g13
S'1\x83\xc2\xe3\xeav\xf5?'
p5672
tp5673
Rp5674
sa(dp5675
S'281'
p5676
g9
(g13
S']\x92\xde\x98\x96\xa5\xba?'
p5677
tp5678
Rp5679
sS'1783'
p5680
g9
(g13
S'\xbb\xbf\xef?\x97H\xaf?'
p5681
tp5682
Rp5683
sS'872'
p5684
g9
(g13
S'R\xc4S\xa87\x07\xb7?'
p5685
tp5686
Rp5687
sS'2063'
p5688
g9
(g13
S'\xaf+\xb6|\xa5\xb8\xb6?'
p5689
tp5690
Rp5691
sS'41'
p5692
g9
(g13
S'\x99y\x1c\xbfF\xbf\xb5?'
p5693
tp5694
Rp5695
saaa(lp5696
I1
ag4760
aS'22'
p5697
a(lp5698
(dp5699
S'281'
p5700
g9
(g13
S'\xc8t\x94Q?h\xe4?'
p5701
tp5702
Rp5703
sS'1783'
p5704
g9
(g13
S'\xd4\x86\xd1G\xe0(\xe6?'
p5705
tp5706
Rp5707
sS'872'
p5708
g9
(g13
S'\xcc\r\xa7\xad"\xd2\xe6?'
p5709
tp5710
Rp5711
sS'2063'
p5712
g9
(g13
S'\x00\x84\x8e \xfc\xc4\xe6?'
p5713
tp5714
Rp5715
sS'41'
p5716
g9
(g13
S'\xcfu\x7f\x9e{J\xe5?'
p5717
tp5718
Rp5719
sa(dp5720
S'281'
p5721
g9
(g13
S'\r\xde\xea\x1f\xb9z\xb4?'
p5722
tp5723
Rp5724
sS'1783'
p5725
g9
(g13
S'Ih\x15IOZ\xb9?'
p5726
tp5727
Rp5728
sS'872'
p5729
g9
(g13
S'J\x08\xbfg\xd0\x80\xb7?'
p5730
tp5731
Rp5732
sS'2063'
p5733
g9
(g13
S'\xba\xd3\xc4\xa6\x1a"\xb6?'
p5734
tp5735
Rp5736
sS'41'
p5737
g9
(g13
S'\x1dK\x1dq\xb1\xb8\xaf?'
p5738
tp5739
Rp5740
saaa(lp5741
I1
ag4760
aS'23'
p5742
a(lp5743
(dp5744
S'281'
p5745
g9
(g13
S'\xd5\xba\n{\x8a\xf0\xdf?'
p5746
tp5747
Rp5748
sS'1783'
p5749
g9
(g13
S'\xe2\xde+\x96\xda\x11\xdf?'
p5750
tp5751
Rp5752
sS'872'
p5753
g9
(g13
S'ni\xb6Ik\x02\xdd?'
p5754
tp5755
Rp5756
sS'2063'
p5757
g9
(g13
S'\x8b\x18\\\xd8\xdd\xf4\xe1?'
p5758
tp5759
Rp5760
sS'41'
p5761
g9
(g13
S'\x0c\xb9\xc5\x97_\xec\xe4?'
p5762
tp5763
Rp5764
sa(dp5765
S'281'
p5766
g9
(g13
S'Ngv\xf4\xba$\xb5?'
p5767
tp5768
Rp5769
sS'1783'
p5770
g9
(g13
S'%\xa0\xee\xe1.\x1e\xb3?'
p5771
tp5772
Rp5773
sS'872'
p5774
g9
(g13
S'\x93\xbd\x0fS\xc4\xc0\xaf?'
p5775
tp5776
Rp5777
sS'2063'
p5778
g9
(g13
S'\x8et\xdd\x963\x97\xb7?'
p5779
tp5780
Rp5781
sS'41'
p5782
g9
(g13
S'\xdd\x94\xae3)\xb2\xb7?'
p5783
tp5784
Rp5785
saaa(lp5786
I1
ag4760
aS'24'
p5787
a(lp5788
(dp5789
S'281'
p5790
g9
(g13
S'H\x1d%\x8f\xc2#\xde?'
p5791
tp5792
Rp5793
sS'1783'
p5794
g9
(g13
S'\xe8\xd4\x9c\x06\x15\xd0\xe1?'
p5795
tp5796
Rp5797
sS'872'
p5798
g9
(g13
S'\xbd(\xf5\xa3$\xb0\xe0?'
p5799
tp5800
Rp5801
sS'2063'
p5802
g9
(g13
S'(\xc6\xca\xba\xed\xde\xda?'
p5803
tp5804
Rp5805
sS'41'
p5806
g9
(g13
S'E\x91\xf8o\xe8\xdd\xe1?'
p5807
tp5808
Rp5809
sa(dp5810
S'281'
p5811
g9
(g13
S'\x15s\xc6\x93;S\xb7?'
p5812
tp5813
Rp5814
sS'1783'
p5815
g9
(g13
S'>%\x18\xa6HF\xc1?'
p5816
tp5817
Rp5818
sS'872'
p5819
g9
(g13
S'\x90\xe9\xf8A[\xb6\xba?'
p5820
tp5821
Rp5822
sS'2063'
p5823
g9
(g13
S'\xe82\x1b\x82VW\xad?'
p5824
tp5825
Rp5826
sS'41'
p5827
g9
(g13
S'\x92\xc6\xc1\xd4I\xa0\xbc?'
p5828
tp5829
Rp5830
saaa(lp5831
I1
ag4760
aS'25'
p5832
a(lp5833
(dp5834
S'281'
p5835
g9
(g13
S'\x1a\x15u;\x1be\xd6?'
p5836
tp5837
Rp5838
sS'1783'
p5839
g9
(g13
S'^\xbd\xc0R\x92\xd2\xdb?'
p5840
tp5841
Rp5842
sS'872'
p5843
g9
(g13
S'\x00\x00\x00\x00\x00\x00\xd4?'
p5844
tp5845
Rp5846
sS'2063'
p5847
g9
(g13
S'E\xa4I\xf7V\x1e\xdd?'
p5848
tp5849
Rp5850
sS'41'
p5851
g9
(g13
S'Yy\xbb\xd4%D\xdb?'
p5852
tp5853
Rp5854
sa(dp5855
S'281'
p5856
g9
(g13
S'\x1dg\xb98\xa3 \xab?'
p5857
tp5858
Rp5859
sS'1783'
p5860
g9
(g13
S'y\x07\x97E]\xd7\xb3?'
p5861
tp5862
Rp5863
sS'872'
p5864
g9
(g13
S'%\xf5\x83\xbb\x05\xb8\xa5?'
p5865
tp5866
Rp5867
sS'2063'
p5868
g9
(g13
S'\xbd\xe7%\x98\xa6\x95\xb5?'
p5869
tp5870
Rp5871
sS'41'
p5872
g9
(g13
S'N6/o;<\xb2?'
p5873
tp5874
Rp5875
saaasS'Scan_2'
p5876
(lp5877
(lp5878
I2
aVY1
p5879
ag5
a(lp5880
(dp5881
S'281'
p5882
g9
(g13
S'\xd3\x97\xacH\xd9\xd9\xdb?'
p5883
tp5884
Rp5885
sS'1783'
p5886
g9
(g13
S'>\x9a#\xc5\xbf2\xde?'
p5887
tp5888
Rp5889
sS'872'
p5890
g9
(g13
S'\n\xc1\x1b\x15\x1a\xe4\xd7?'
p5891
tp5892
Rp5893
sS'2063'
p5894
g9
(g13
S'\x9c\x1c\xe7\xe9\x94s\xd2?'
p5895
tp5896
Rp5897
sS'41'
p5898
g9
(g13
S'\x0c\x98^X\x9a\xcb\xda?'
p5899
tp5900
Rp5901
sa(dp5902
S'281'
p5903
g9
(g13
S'\xbfW\x02\x88v~\xb5?'
p5904
tp5905
Rp5906
sS'1783'
p5907
g9
(g13
S')\x00\xe7m\xad\x9a\xb7?'
p5908
tp5909
Rp5910
sS'872'
p5911
g9
(g13
S'L\xc4\xf8\xe1\xfaA\xab?'
p5912
tp5913
Rp5914
sS'2063'
p5915
g9
(g13
S'8J\r\x05\xb5k\xa4?'
p5916
tp5917
Rp5918
sS'41'
p5919
g9
(g13
S'V\x82\xcd\x7f\x9d\xa8\xb1?'
p5920
tp5921
Rp5922
saaa(lp5923
I2
ag5879
ag57
a(lp5924
(dp5925
S'281'
p5926
g9
(g13
S'\x10m\x9c\x91W\x0f\xd9?'
p5927
tp5928
Rp5929
sS'1783'
p5930
g9
(g13
S'\xafx\xaa"p\xd1\xd4?'
p5931
tp5932
Rp5933
sS'872'
p5934
g9
(g13
S'\xf7\x7f\xe1\xb5\xce5\xd9?'
p5935
tp5936
Rp5937
sS'2063'
p5938
g9
(g13
S'\xba\x80\x9f\xc7\xb5\x1c\xdd?'
p5939
tp5940
Rp5941
sS'41'
p5942
g9
(g13
S'\xd4"}\x19`\xfa\xdc?'
p5943
tp5944
Rp5945
sa(dp5946
S'281'
p5947
g9
(g13
S'\xeaf\xaeT\xc8\x81\xb1?'
p5948
tp5949
Rp5950
sS'1783'
p5951
g9
(g13
S'\xec\x90\x0f\xdf\x154\xa9?'
p5952
tp5953
Rp5954
sS'872'
p5955
g9
(g13
S'_\xfd\xb0f\xad\xbf\xb1?'
p5956
tp5957
Rp5958
sS'2063'
p5959
g9
(g13
S'\x93\xc6\x18\xca\xc5a\xb4?'
p5960
tp5961
Rp5962
sS'41'
p5963
g9
(g13
S'x\xfc\xa0K\xd5\x0e\xb5?'
p5964
tp5965
Rp5966
saaa(lp5967
I2
ag5879
ag102
a(lp5968
(dp5969
S'281'
p5970
g9
(g13
S'T\xf4\xd4a\xe8\xa5\xe1?'
p5971
tp5972
Rp5973
sS'1783'
p5974
g9
(g13
S'\xfd\x88\x0f\x15\x97;\xd8?'
p5975
tp5976
Rp5977
sS'872'
p5978
g9
(g13
S'\xdb_0&D\t\xd8?'
p5979
tp5980
Rp5981
sS'2063'
p5982
g9
(g13
S'y7\xa9\xde\xd9\xe9\xd7?'
p5983
tp5984
Rp5985
sS'41'
p5986
g9
(g13
S'\xbc\xcd8\xe5\xeb^\xe0?'
p5987
tp5988
Rp5989
sa(dp5990
S'281'
p5991
g9
(g13
S'\xbf&WB\xa3\xb9\xb6?'
p5992
tp5993
Rp5994
sS'1783'
p5995
g9
(g13
S'\xc7\xc3\xec\x14\x8cH\xb0?'
p5996
tp5997
Rp5998
sS'872'
p5999
g9
(g13
S'\x94\xa4+\xedZ{\xaa?'
p6000
tp6001
Rp6002
sS'2063'
p6003
g9
(g13
S'V\xa9X\xc4or\xab?'
p6004
tp6005
Rp6006
sS'41'
p6007
g9
(g13
S"d'c\xcf\x8c\xa5\xb0?"
p6008
tp6009
Rp6010
saaa(lp6011
I2
ag5879
ag147
a(lp6012
(dp6013
S'281'
p6014
g9
(g13
S'\xc7O\x901\x9f\xbd\xe4?'
p6015
tp6016
Rp6017
sS'1783'
p6018
g9
(g13
S'\xdf\x0b\x1ci\xc3e\xe4?'
p6019
tp6020
Rp6021
sS'872'
p6022
g9
(g13
S'\xec*\x9d\x08\x88_\xe3?'
p6023
tp6024
Rp6025
sS'2063'
p6026
g9
(g13
S'<\x01kO\xc9;\xe2?'
p6027
tp6028
Rp6029
sS'41'
p6030
g9
(g13
S'\xde\xd8x}\x95\xe6\xe5?'
p6031
tp6032
Rp6033
sa(dp6034
S'281'
p6035
g9
(g13
S'\x8f:\x1a\x8a\x88\xdf\xb9?'
p6036
tp6037
Rp6038
sS'1783'
p6039
g9
(g13
S'\xdd\xb0\xa7\x04v|\xba?'
p6040
tp6041
Rp6042
sS'872'
p6043
g9
(g13
S'\xbe\x94\xee\x1a\xa7<\xb8?'
p6044
tp6045
Rp6046
sS'2063'
p6047
g9
(g13
S'\xd4[\xcb1\xee\xb3\xb0?'
p6048
tp6049
Rp6050
sS'41'
p6051
g9
(g13
S'&N\xce\xf4O=\xb5?'
p6052
tp6053
Rp6054
saaa(lp6055
I2
ag5879
ag192
a(lp6056
(dp6057
S'281'
p6058
g9
(g13
S'\x93!\xfd\xa8\x97\xa0\xee?'
p6059
tp6060
Rp6061
sS'1783'
p6062
g9
(g13
S'=^\xaf\xfc\xaf`\xf1?'
p6063
tp6064
Rp6065
sS'872'
p6066
g9
(g13
S'h\xfe_u\xe6P\xef?'
p6067
tp6068
Rp6069
sS'2063'
p6070
g9
(g13
S'>"g\x9f\xe1X\xf4?'
p6071
tp6072
Rp6073
sS'41'
p6074
g9
(g13
S'\xe6\x0c\x8f\xd1\xc9@\xf6?'
p6075
tp6076
Rp6077
sa(dp6078
S'281'
p6079
g9
(g13
S'J{\xba!v\x9c\xb6?'
p6080
tp6081
Rp6082
sS'1783'
p6083
g9
(g13
S'\xea\x19\x93P\x97\x1d\xb9?'
p6084
tp6085
Rp6086
sS'872'
p6087
g9
(g13
S'u\xa6\x80\xe6\xfb\xfc\xb5?'
p6088
tp6089
Rp6090
sS'2063'
p6091
g9
(g13
S'\x85\xf4\x83C\xefS\xbb?'
p6092
tp6093
Rp6094
sS'41'
p6095
g9
(g13
S'\x9b\x18\xd3\xb4\xe5\x96\xb4?'
p6096
tp6097
Rp6098
saaa(lp6099
I2
ag5879
ag237
a(lp6100
(dp6101
S'281'
p6102
g9
(g13
S'}\x8d\xf5R\xba\x88\x01@'
p6103
tp6104
Rp6105
sS'1783'
p6106
g9
(g13
S'\xd9\xf84E\xafw\x00@'
p6107
tp6108
Rp6109
sS'872'
p6110
g9
(g13
S'\x0f\xd7\xb2M\xd0\x13\xff?'
p6111
tp6112
Rp6113
sS'2063'
p6114
g9
(g13
S'\xb7\xddzB\xfe5\x01@'
p6115
tp6116
Rp6117
sS'41'
p6118
g9
(g13
S'\x81\xacB\xf9\tB\x06@'
p6119
tp6120
Rp6121
sa(dp6122
S'281'
p6123
g9
(g13
S'\xe3\xf4S\xb0\xf1\xfa\xbb?'
p6124
tp6125
Rp6126
sS'1783'
p6127
g9
(g13
S'\xb0\x02P\xbd\x1f\x0e\xbb?'
p6128
tp6129
Rp6130
sS'872'
p6131
g9
(g13
S'H\xa1\xaat$\xfe\xbb?'
p6132
tp6133
Rp6134
sS'2063'
p6135
g9
(g13
S'\xcb\xc2e{*\xdb\xb9?'
p6136
tp6137
Rp6138
sS'41'
p6139
g9
(g13
S'\xc5;\xd1F\xdb\xb5\xba?'
p6140
tp6141
Rp6142
saaa(lp6143
I2
ag5879
ag282
a(lp6144
(dp6145
S'281'
p6146
g9
(g13
S'\xc17q.\xaa\xbc\x12@'
p6147
tp6148
Rp6149
sS'1783'
p6150
g9
(g13
S'\xa8^\xe3d\xa9\xfe\x10@'
p6151
tp6152
Rp6153
sS'872'
p6154
g9
(g13
S'\x8d\xebK\xbeV\x14\x12@'
p6155
tp6156
Rp6157
sS'2063'
p6158
g9
(g13
S'd\xc4\xf0\xe5I\x8e\x14@'
p6159
tp6160
Rp6161
sS'41'
p6162
g9
(g13
S'\x84\xb15+A\x8c\x18@'
p6163
tp6164
Rp6165
sa(dp6166
S'281'
p6167
g9
(g13
S'\x0b\x14\xe6\x9b>\xeb\xc1?'
p6168
tp6169
Rp6170
sS'1783'
p6171
g9
(g13
S"<\x07\xf4\xae'I\xc0?"
p6172
tp6173
Rp6174
sS'872'
p6175
g9
(g13
S'\xb0\x89\xd5\xf6\x0f\xba\xc1?'
p6176
tp6177
Rp6178
sS'2063'
p6179
g9
(g13
S'\xfa!TB\x807\xc2?'
p6180
tp6181
Rp6182
sS'41'
p6183
g9
(g13
S'&\xde\n8\xb8\x95\xc4?'
p6184
tp6185
Rp6186
saaa(lp6187
I2
ag5879
ag327
a(lp6188
(dp6189
S'281'
p6190
g9
(g13
S'u~\xd0\xf1 \xa2#@'
p6191
tp6192
Rp6193
sS'1783'
p6194
g9
(g13
S'I\x9e\xc4\xed<l"@'
p6195
tp6196
Rp6197
sS'872'
p6198
g9
(g13
S'\xe6\xe2\x1cI\xa2\xae#@'
p6199
tp6200
Rp6201
sS'2063'
p6202
g9
(g13
S'\x107\rUkB&@'
p6203
tp6204
Rp6205
sS'41'
p6206
g9
(g13
S'\xd1w\xa8\xc4*d&@'
p6207
tp6208
Rp6209
sa(dp6210
S'281'
p6211
g9
(g13
S'\x9bs\xd8\x9a#\x89\xc5?'
p6212
tp6213
Rp6214
sS'1783'
p6215
g9
(g13
S'?\xc0t\x96W\xa7\xc6?'
p6216
tp6217
Rp6218
sS'872'
p6219
g9
(g13
S'\xf8\xd3\x14A%\xd3\xc7?'
p6220
tp6221
Rp6222
sS'2063'
p6223
g9
(g13
S'\xc1\x0eO~}U\xc7?'
p6224
tp6225
Rp6226
sS'41'
p6227
g9
(g13
S'\xa86\xec\xc6fa\xc7?'
p6228
tp6229
Rp6230
saaa(lp6231
I2
ag5879
ag372
a(lp6232
(dp6233
S'281'
p6234
g9
(g13
S'\x86\x91=\xb2\xf6]3@'
p6235
tp6236
Rp6237
sS'1783'
p6238
g9
(g13
S',\x12\x8a\x03_B2@'
p6239
tp6240
Rp6241
sS'872'
p6242
g9
(g13
S'(ibVb!2@'
p6243
tp6244
Rp6245
sS'2063'
p6246
g9
(g13
S'\xaf\x8a\xa2\x8b\xc4D6@'
p6247
tp6248
Rp6249
sS'41'
p6250
g9
(g13
S'\xc6\x1b\x0b\xb9\x8e\xac3@'
p6251
tp6252
Rp6253
sa(dp6254
S'281'
p6255
g9
(g13
S'\x1b+\xae\x8e\xbb\xf0\xcf?'
p6256
tp6257
Rp6258
sS'1783'
p6259
g9
(g13
S'\x07\xab\xa1\xe2\x1b\x10\xce?'
p6260
tp6261
Rp6262
sS'872'
p6263
g9
(g13
S'@E\x82\xc0\nV\xcd?'
p6264
tp6265
Rp6266
sS'2063'
p6267
g9
(g13
S'\x14`\xbf\tC\xf3\xd0?'
p6268
tp6269
Rp6270
sS'41'
p6271
g9
(g13
S'9E\x95\xab\xd2g\xd0?'
p6272
tp6273
Rp6274
saaa(lp6275
I2
ag5879
aS'10'
p6276
a(lp6277
(dp6278
S'281'
p6279
g9
(g13
S'\xbe\x03n\x1f\x19\x15@@'
p6280
tp6281
Rp6282
sS'1783'
p6283
g9
(g13
S'\xae_\xc1\xf0NO>@'
p6284
tp6285
Rp6286
sS'872'
p6287
g9
(g13
S'\xd2\xad\x01\x80z\xb7=@'
p6288
tp6289
Rp6290
sS'2063'
p6291
g9
(g13
S'@\xfd\x97\xa2i"B@'
p6292
tp6293
Rp6294
sS'41'
p6295
g9
(g13
S'\xe4\xec\xaa7j\x98>@'
p6296
tp6297
Rp6298
sa(dp6299
S'281'
p6300
g9
(g13
S'*\xd1 4\xd6p\xd3?'
p6301
tp6302
Rp6303
sS'1783'
p6304
g9
(g13
S'.%\\\x13o\xd4\xd2?'
p6305
tp6306
Rp6307
sS'872'
p6308
g9
(g13
S'LW3\\\xd8\xfb\xd2?'
p6309
tp6310
Rp6311
sS'2063'
p6312
g9
(g13
S'\x00l^\xablm\xd4?'
p6313
tp6314
Rp6315
sS'41'
p6316
g9
(g13
S'p\xab\xbc\x13/\x80\xd3?'
p6317
tp6318
Rp6319
saaa(lp6320
I2
ag5879
aS'11'
p6321
a(lp6322
(dp6323
S'281'
p6324
g9
(g13
S'\x9f\xc6\xd0\x9fC\x15G@'
p6325
tp6326
Rp6327
sS'1783'
p6328
g9
(g13
S'\xf9e)\xb8\x8buF@'
p6329
tp6330
Rp6331
sS'872'
p6332
g9
(g13
S'i\x9e\xc4\xaf\xafUE@'
p6333
tp6334
Rp6335
sS'2063'
p6336
g9
(g13
S'\xcb\xb1f\xf8x\rJ@'
p6337
tp6338
Rp6339
sS'41'
p6340
g9
(g13
S'\x95\x18\xe3\xcd\xe5\xb9D@'
p6341
tp6342
Rp6343
sa(dp6344
S'281'
p6345
g9
(g13
S'LCt~\xfe\x9b\xd7?'
p6346
tp6347
Rp6348
sS'1783'
p6349
g9
(g13
S'\xf15\xe4\x11v\x11\xd7?'
p6350
tp6351
Rp6352
sS'872'
p6353
g9
(g13
S'\x8c\x86\x9f\xfe`\xd8\xd6?'
p6354
tp6355
Rp6356
sS'2063'
p6357
g9
(g13
S'/\xb2,\x00z\x12\xd9?'
p6358
tp6359
Rp6360
sS'41'
p6361
g9
(g13
S'\xcb\xc5F?3-\xd6?'
p6362
tp6363
Rp6364
saaa(lp6365
I2
ag5879
aS'12'
p6366
a(lp6367
(dp6368
S'281'
p6369
g9
(g13
S'\xad\xd1\xa1\xe4\xf5\xf1L@'
p6370
tp6371
Rp6372
sS'1783'
p6373
g9
(g13
S'FO\xf5\x1an\x9cK@'
p6374
tp6375
Rp6376
sS'872'
p6377
g9
(g13
S'\xc8jh\x87\xb3TJ@'
p6378
tp6379
Rp6380
sS'2063'
p6381
g9
(g13
S'\x06\xf8\xe2\xd7=RP@'
p6382
tp6383
Rp6384
sS'41'
p6385
g9
(g13
S'\xc1\x1cV\x1a\xdd|I@'
p6386
tp6387
Rp6388
sa(dp6389
S'281'
p6390
g9
(g13
S'\xaf\xad\xa4%E\x02\xdb?'
p6391
tp6392
Rp6393
sS'1783'
p6394
g9
(g13
S'*\x9b|\xaf2\xae\xd9?'
p6395
tp6396
Rp6397
sS'872'
p6398
g9
(g13
S'i9\x98\x0c\xa7a\xd9?'
p6399
tp6400
Rp6401
sS'2063'
p6402
g9
(g13
S'\xbds=\xc9\x08\xd1\xdb?'
p6403
tp6404
Rp6405
sS'41'
p6406
g9
(g13
S'\x04\x97lQ\x92\xf7\xd8?'
p6407
tp6408
Rp6409
saaa(lp6410
I2
ag5879
aS'13'
p6411
a(lp6412
(dp6413
S'281'
p6414
g9
(g13
S'\xbd\xe6\x86\x96r\xdcN@'
p6415
tp6416
Rp6417
sS'1783'
p6418
g9
(g13
S'\x0bp\xdeg\xf4\x87M@'
p6419
tp6420
Rp6421
sS'872'
p6422
g9
(g13
S'\x1cP\xc7\xe7\xe1IL@'
p6423
tp6424
Rp6425
sS'2063'
p6426
g9
(g13
S"w\xde'\xf5\xe8xQ@"
p6427
tp6428
Rp6429
sS'41'
p6430
g9
(g13
S'F\x13$\xf9-=K@'
p6431
tp6432
Rp6433
sa(dp6434
S'281'
p6435
g9
(g13
S'\xc2\xa1\xc1Wt\x16\xdb?'
p6436
tp6437
Rp6438
sS'1783'
p6439
g9
(g13
S'\xe2uH\x9d\xcf\xd1\xda?'
p6440
tp6441
Rp6442
sS'872'
p6443
g9
(g13
S'66\x92\xe6le\xda?'
p6444
tp6445
Rp6446
sS'2063'
p6447
g9
(g13
S'\xf1\xd7cTr\x16\xdd?'
p6448
tp6449
Rp6450
sS'41'
p6451
g9
(g13
S'\x1f\xb3\x7f\xbd\x1e>\xda?'
p6452
tp6453
Rp6454
saaa(lp6455
I2
ag5879
aS'14'
p6456
a(lp6457
(dp6458
S'281'
p6459
g9
(g13
S'\x9f\xfc\xdaT\xe4\xbaL@'
p6460
tp6461
Rp6462
sS'1783'
p6463
g9
(g13
S'i\x98Yz\xd0\xfaK@'
p6464
tp6465
Rp6466
sS'872'
p6467
g9
(g13
S'\\\xe68\x0b\xc7(J@'
p6468
tp6469
Rp6470
sS'2063'
p6471
g9
(g13
S'\x00R\xbe#HrP@'
p6472
tp6473
Rp6474
sS'41'
p6475
g9
(g13
S'\xfa\x7f}\xa5\x13\xb1I@'
p6476
tp6477
Rp6478
sa(dp6479
S'281'
p6480
g9
(g13
S'n\x03\xb4eI\t\xdb?'
p6481
tp6482
Rp6483
sS'1783'
p6484
g9
(g13
S'\xe6\x01\xffN<\x8e\xda?'
p6485
tp6486
Rp6487
sS'872'
p6488
g9
(g13
S'$\x91\xaa\xd7\xdc\xa4\xd9?'
p6489
tp6490
Rp6491
sS'2063'
p6492
g9
(g13
S'\xfe\xb6{WX\xa5\xdc?'
p6493
tp6494
Rp6495
sS'41'
p6496
g9
(g13
S'(1\x0e\x02\x9d\x98\xd9?'
p6497
tp6498
Rp6499
saaa(lp6500
I2
ag5879
aS'15'
p6501
a(lp6502
(dp6503
S'281'
p6504
g9
(g13
S'\xa8\xb2(\x139\x0cG@'
p6505
tp6506
Rp6507
sS'1783'
p6508
g9
(g13
S'2v\xcc\xd3J*F@'
p6509
tp6510
Rp6511
sS'872'
p6512
g9
(g13
S'\x87\x93F\x1b\xcf\x8eE@'
p6513
tp6514
Rp6515
sS'2063'
p6516
g9
(g13
S':Y\x1cr\xd4\x9aJ@'
p6517
tp6518
Rp6519
sS'41'
p6520
g9
(g13
S'\x9a\xbe\xd1\x7f\xd7\xedD@'
p6521
tp6522
Rp6523
sa(dp6524
S'281'
p6525
g9
(g13
S'\xf6\xb3\xeb\xd2\xb0~\xd7?'
p6526
tp6527
Rp6528
sS'1783'
p6529
g9
(g13
S'\x999\x03\xfd\xa5\xd7\xd6?'
p6530
tp6531
Rp6532
sS'872'
p6533
g9
(g13
S'uv-!\xe2,\xd7?'
p6534
tp6535
Rp6536
sS'2063'
p6537
g9
(g13
S'\xb62\x89~\x0fn\xd9?'
p6538
tp6539
Rp6540
sS'41'
p6541
g9
(g13
S'\xbc\xdb\xb5\xb6Q\xc2\xd6?'
p6542
tp6543
Rp6544
saaa(lp6545
I2
ag5879
aS'16'
p6546
a(lp6547
(dp6548
S'281'
p6549
g9
(g13
S'8\xcdK\xad\xeaP@@'
p6550
tp6551
Rp6552
sS'1783'
p6553
g9
(g13
S'r\xf7t\xf4x\xda>@'
p6554
tp6555
Rp6556
sS'872'
p6557
g9
(g13
S'\xac\x085\xbe\x83<>@'
p6558
tp6559
Rp6560
sS'2063'
p6561
g9
(g13
S'\n\xf1x\xbe\x88\x81B@'
p6562
tp6563
Rp6564
sS'41'
p6565
g9
(g13
S' \x1b\xf2\xc4\x1eH?@'
p6566
tp6567
Rp6568
sa(dp6569
S'281'
p6570
g9
(g13
S'\x96\xdd;\xf4uW\xd3?'
p6571
tp6572
Rp6573
sS'1783'
p6574
g9
(g13
S'Ho\x0e\x8e_,\xd3?'
p6575
tp6576
Rp6577
sS'872'
p6578
g9
(g13
S'\x93\xb4B\xad\xf2\xd2\xd2?'
p6579
tp6580
Rp6581
sS'2063'
p6582
g9
(g13
S'\x8c<\xab\xdf\t>\xd5?'
p6583
tp6584
Rp6585
sS'41'
p6586
g9
(g13
S'\xba\xa0\xc2}\xbd\x90\xd3?'
p6587
tp6588
Rp6589
saaa(lp6590
I2
ag5879
aS'17'
p6591
a(lp6592
(dp6593
S'281'
p6594
g9
(g13
S'lFiPm\x8e2@'
p6595
tp6596
Rp6597
sS'1783'
p6598
g9
(g13
S'\x93\xf8\xdeL\xfeL2@'
p6599
tp6600
Rp6601
sS'872'
p6602
g9
(g13
S'P\xf93\xf2\xc5\xa12@'
p6603
tp6604
Rp6605
sS'2063'
p6606
g9
(g13
S'\xcf\x81\x9b\x7f\xb9\x1f6@'
p6607
tp6608
Rp6609
sS'41'
p6610
g9
(g13
S'gP\xa8w\x9f\xe73@'
p6611
tp6612
Rp6613
sa(dp6614
S'281'
p6615
g9
(g13
S'\xab\x93\xb9\xda\xe9\xed\xcd?'
p6616
tp6617
Rp6618
sS'1783'
p6619
g9
(g13
S'\xcfK\xb0\x9b\xf4J\xce?'
p6620
tp6621
Rp6622
sS'872'
p6623
g9
(g13
S'\xab\xd5\xda\xa1Ay\xcf?'
p6624
tp6625
Rp6626
sS'2063'
p6627
g9
(g13
S'b\xdc\t\x97\xf3{\xd0?'
p6628
tp6629
Rp6630
sS'41'
p6631
g9
(g13
S'\x80\x98\xa1\x15\xf5\t\xcf?'
p6632
tp6633
Rp6634
saaa(lp6635
I2
ag5879
aS'18'
p6636
a(lp6637
(dp6638
S'281'
p6639
g9
(g13
S'\xba\xa85\x06\xf8\xe0#@'
p6640
tp6641
Rp6642
sS'1783'
p6643
g9
(g13
S'\xac\x0f7\xe1\x1a&"@'
p6644
tp6645
Rp6646
sS'872'
p6647
g9
(g13
S'\x14\x12Thql#@'
p6648
tp6649
Rp6650
sS'2063'
p6651
g9
(g13
S'\x94\xdaY\x83\x90\xc8&@'
p6652
tp6653
Rp6654
sS'41'
p6655
g9
(g13
S'|L\x04)\xed\xe2&@'
p6656
tp6657
Rp6658
sa(dp6659
S'281'
p6660
g9
(g13
S'\xd0\xb9B\xfe\xdb\\\xc8?'
p6661
tp6662
Rp6663
sS'1783'
p6664
g9
(g13
S'\x7f\xc3\xf6\x95\x15\xbc\xc6?'
p6665
tp6666
Rp6667
sS'872'
p6668
g9
(g13
S'_\x18Y\xf7\x82F\xc7?'
p6669
tp6670
Rp6671
sS'2063'
p6672
g9
(g13
S'\xdf[\x13lE_\xca?'
p6673
tp6674
Rp6675
sS'41'
p6676
g9
(g13
S'[#\x16t9w\xc8?'
p6677
tp6678
Rp6679
saaa(lp6680
I2
ag5879
aS'19'
p6681
a(lp6682
(dp6683
S'281'
p6684
g9
(g13
S'\xd4"\xe9S\xedj\x13@'
p6685
tp6686
Rp6687
sS'1783'
p6688
g9
(g13
S'\xdfg\xb5\xa2\xc7R\x10@'
p6689
tp6690
Rp6691
sS'872'
p6692
g9
(g13
S'F\xd4\xd4\xeaE\xa7\x12@'
p6693
tp6694
Rp6695
sS'2063'
p6696
g9
(g13
S'\xdeK*\n\x06\xd7\x13@'
p6697
tp6698
Rp6699
sS'41'
p6700
g9
(g13
S'\xd0\x13\xbe\xf1c\xdf\x17@'
p6701
tp6702
Rp6703
sa(dp6704
S'281'
p6705
g9
(g13
S'w\xe1?\xdf$\xbe\xc2?'
p6706
tp6707
Rp6708
sS'1783'
p6709
g9
(g13
S'\x8a\xef\xcf\xdaj\x94\xc0?'
p6710
tp6711
Rp6712
sS'872'
p6713
g9
(g13
S'g\x1f\xb7\xfd\x97P\xc5?'
p6714
tp6715
Rp6716
sS'2063'
p6717
g9
(g13
S' \xce\xf60B\x8a\xbe?'
p6718
tp6719
Rp6720
sS'41'
p6721
g9
(g13
S'\xec\xdc\x05\xef\xa9L\xc2?'
p6722
tp6723
Rp6724
saaa(lp6725
I2
ag5879
aS'20'
p6726
a(lp6727
(dp6728
S'281'
p6729
g9
(g13
S'\xbc\xb7\xb5\xfa\x13\x99\x00@'
p6730
tp6731
Rp6732
sS'1783'
p6733
g9
(g13
S'\x0e\x7f>\x1d\xf0\x10\xfd?'
p6734
tp6735
Rp6736
sS'872'
p6737
g9
(g13
S'\xc7/\xc6\xa9\xc8\x19\x01@'
p6738
tp6739
Rp6740
sS'2063'
p6741
g9
(g13
S'\xb1\xa0D<\xf1\xa0\x01@'
p6742
tp6743
Rp6744
sS'41'
p6745
g9
(g13
S'^\x88\xa9\x0c\xa2\xd7\x07@'
p6746
tp6747
Rp6748
sa(dp6749
S'281'
p6750
g9
(g13
S'XC\xa2\xba\xb9?\xbc?'
p6751
tp6752
Rp6753
sS'1783'
p6754
g9
(g13
S'M\xff\x8aoX\xb3\xb7?'
p6755
tp6756
Rp6757
sS'872'
p6758
g9
(g13
S'\xd9\x0bg\x06G\xf5\xbc?'
p6759
tp6760
Rp6761
sS'2063'
p6762
g9
(g13
S'\x04N\x13s\xbd`\xb8?'
p6763
tp6764
Rp6765
sS'41'
p6766
g9
(g13
S'\xe5\x00`\xc5\xb6R\xc2?'
p6767
tp6768
Rp6769
saaa(lp6770
I2
ag5879
aS'21'
p6771
a(lp6772
(dp6773
S'281'
p6774
g9
(g13
S'\xf2\xd0J?\x1a\xda\xec?'
p6775
tp6776
Rp6777
sS'1783'
p6778
g9
(g13
S'\xd4En+Mc\xeb?'
p6779
tp6780
Rp6781
sS'872'
p6782
g9
(g13
S'W\x9a\\\x04i\xa5\xe8?'
p6783
tp6784
Rp6785
sS'2063'
p6786
g9
(g13
S'\xe3"\xc5&\xd3\xaf\xf0?'
p6787
tp6788
Rp6789
sS'41'
p6790
g9
(g13
S'\x130l\x19\x02\xd8\xf5?'
p6791
tp6792
Rp6793
sa(dp6794
S'281'
p6795
g9
(g13
S's:\xf5\x80\xcd\xd9\xb0?'
p6796
tp6797
Rp6798
sS'1783'
p6799
g9
(g13
S'\xbb1\x1aIO\xb5\xb3?'
p6800
tp6801
Rp6802
sS'872'
p6803
g9
(g13
S'\xe0u\xf2\xebT\xf6\xaa?'
p6804
tp6805
Rp6806
sS'2063'
p6807
g9
(g13
S'\x17+b\xd9\xbe9\xb7?'
p6808
tp6809
Rp6810
sS'41'
p6811
g9
(g13
S'\xcc\x15\x94\xbc\x81c\xb4?'
p6812
tp6813
Rp6814
saaa(lp6815
I2
ag5879
aS'22'
p6816
a(lp6817
(dp6818
S'281'
p6819
g9
(g13
S'y\x06Y\xaa\n\x04\xe3?'
p6820
tp6821
Rp6822
sS'1783'
p6823
g9
(g13
S'Gd"\xc0\x81\xe0\xdd?'
p6824
tp6825
Rp6826
sS'872'
p6827
g9
(g13
S'O\x0f\x9d\xab.G\xde?'
p6828
tp6829
Rp6830
sS'2063'
p6831
g9
(g13
S'\xd7\x0c~\x94\xc6\xf9\xe2?'
p6832
tp6833
Rp6834
sS'41'
p6835
g9
(g13
S'r{D\xd08A\xef?'
p6836
tp6837
Rp6838
sa(dp6839
S'281'
p6840
g9
(g13
S'\xdf\x89\xe1\xf4\xf5\x9a\xb2?'
p6841
tp6842
Rp6843
sS'1783'
p6844
g9
(g13
S'C\xc2\xf3\xe5;n\xaa?'
p6845
tp6846
Rp6847
sS'872'
p6848
g9
(g13
S']\xd1\xbc\x9f$+\xad?'
p6849
tp6850
Rp6851
sS'2063'
p6852
g9
(g13
S'\xd1\xc4-\xb2A\x11\xb2?'
p6853
tp6854
Rp6855
sS'41'
p6856
g9
(g13
S'\x0b\x1d\xbcSe1\xc1?'
p6857
tp6858
Rp6859
saaa(lp6860
I2
ag5879
aS'23'
p6861
a(lp6862
(dp6863
S'281'
p6864
g9
(g13
S'\xce\xf7;2\xc9u\xd7?'
p6865
tp6866
Rp6867
sS'1783'
p6868
g9
(g13
S'\xecr\x14\xab\x9e}\xe2?'
p6869
tp6870
Rp6871
sS'872'
p6872
g9
(g13
S'\x8b@\xf1\xd72\x80\xdb?'
p6873
tp6874
Rp6875
sS'2063'
p6876
g9
(g13
S'X\xd6\x1f\x85\x90M\xd8?'
p6877
tp6878
Rp6879
sS'41'
p6880
g9
(g13
S'>Q8$\x0bH\xdf?'
p6881
tp6882
Rp6883
sa(dp6884
S'281'
p6885
g9
(g13
S';\xa6\xacE~\xa6\xaa?'
p6886
tp6887
Rp6888
sS'1783'
p6889
g9
(g13
S'/MD\x815\xb9\xba?'
p6890
tp6891
Rp6892
sS'872'
p6893
g9
(g13
S'\x87a\xdeN\x1f\xd6\xaf?'
p6894
tp6895
Rp6896
sS'2063'
p6897
g9
(g13
S'\x9d\xcb7\x13j\xab\xae?'
p6898
tp6899
Rp6900
sS'41'
p6901
g9
(g13
S'\xf0=\xd4[\xa9E\xb5?'
p6902
tp6903
Rp6904
saaa(lp6905
I2
ag5879
aS'24'
p6906
a(lp6907
(dp6908
S'281'
p6909
g9
(g13
S':\x8c\x08J\xcaG\xdb?'
p6910
tp6911
Rp6912
sS'1783'
p6913
g9
(g13
S'\x0c|\xe7 \xbe\xfd\xe0?'
p6914
tp6915
Rp6916
sS'872'
p6917
g9
(g13
S'7E\xe0\xb8\xe4\x0c\xde?'
p6918
tp6919
Rp6920
sS'2063'
p6921
g9
(g13
S'\x0e\xa4\x10/x7\xd4?'
p6922
tp6923
Rp6924
sS'41'
p6925
g9
(g13
S'\x88\xea\x94\xdf@\xb9\xe0?'
p6926
tp6927
Rp6928
sa(dp6929
S'281'
p6930
g9
(g13
S'\x8fm\xc7\xb4\x18\x9d\xb3?'
p6931
tp6932
Rp6933
sS'1783'
p6934
g9
(g13
S'`r?\xbd\x97"\xb8?'
p6935
tp6936
Rp6937
sS'872'
p6938
g9
(g13
S'\x00\xcaD\x13&Y\xb6?'
p6939
tp6940
Rp6941
sS'2063'
p6942
g9
(g13
S'\x85\xe0\xbe*\x88?\xa8?'
p6943
tp6944
Rp6945
sS'41'
p6946
g9
(g13
S'g\xd4y\x82\xc2-\xbc?'
p6947
tp6948
Rp6949
saaa(lp6950
I2
ag5879
aS'25'
p6951
a(lp6952
(dp6953
S'281'
p6954
g9
(g13
S'\x93\x8fhJ\xa3\x00\xdb?'
p6955
tp6956
Rp6957
sS'1783'
p6958
g9
(g13
S'B\xbb[\xcc$\x8d\xd7?'
p6959
tp6960
Rp6961
sS'872'
p6962
g9
(g13
S'\xa1\xc6\x14\x18V\x12\xdb?'
p6963
tp6964
Rp6965
sS'2063'
p6966
g9
(g13
S'\xeb\xaa.\xfa\xd8\xa9\xe1?'
p6967
tp6968
Rp6969
sS'41'
p6970
g9
(g13
S'\xb8K\x97\xf3\xb3F\xdc?'
p6971
tp6972
Rp6973
sa(dp6974
S'281'
p6975
g9
(g13
S'\x03\x08\xa0\x9f6\xdf\xb2?'
p6976
tp6977
Rp6978
sS'1783'
p6979
g9
(g13
S'0\xc5P\x94nl\xb4?'
p6980
tp6981
Rp6982
sS'872'
p6983
g9
(g13
S'\xbbf]c2\x81\xb1?'
p6984
tp6985
Rp6986
sS'2063'
p6987
g9
(g13
S'\x1d\xeeJ\xb8\x80\xfc\xb8?'
p6988
tp6989
Rp6990
sS'41'
p6991
g9
(g13
S'U\xd6\xc6\xbeP\xf6\xb4?'
p6992
tp6993
Rp6994
saaasS'Scan_3'
p6995
(lp6996
(lp6997
I3
aVY2
p6998
ag5
a(lp6999
(dp7000
S'281'
p7001
g9
(g13
S'\xb3\xa9\xd4\x0b\xac\x83\xd5?'
p7002
tp7003
Rp7004
sS'1783'
p7005
g9
(g13
S'\x05\xf9J&}\x8c\xd8?'
p7006
tp7007
Rp7008
sS'872'
p7009
g9
(g13
S'\xc2\xa8\x99\xb7\x1f\xec\xd3?'
p7010
tp7011
Rp7012
sS'2063'
p7013
g9
(g13
S'|\x04\xa2\x0b\xb3\xb8\xd4?'
p7014
tp7015
Rp7016
sS'41'
p7017
g9
(g13
S'\xac>\x13\x1f\xf9\xe9\xda?'
p7018
tp7019
Rp7020
sa(dp7021
S'281'
p7022
g9
(g13
S'\xea\xea\xd5QW\xed\xab?'
p7023
tp7024
Rp7025
sS'1783'
p7026
g9
(g13
S'z\xf3B\xf16`\xb4?'
p7027
tp7028
Rp7029
sS'872'
p7030
g9
(g13
S'\xb9\xbb\x1799T\xab?'
p7031
tp7032
Rp7033
sS'2063'
p7034
g9
(g13
S'b(X\xae\x7fP\xa7?'
p7035
tp7036
Rp7037
sS'41'
p7038
g9
(g13
S'L\xcf\xaa\x9c\xd4\xfd\xb1?'
p7039
tp7040
Rp7041
saaa(lp7042
I3
ag6998
ag57
a(lp7043
(dp7044
S'281'
p7045
g9
(g13
S'\x15\n\x86\x01#\x1e\xdc?'
p7046
tp7047
Rp7048
sS'1783'
p7049
g9
(g13
S'p\xb8R\x19\xb4\xa8\xd7?'
p7050
tp7051
Rp7052
sS'872'
p7053
g9
(g13
S"\xe1[\xe5'3\x0f\xdf?"
p7054
tp7055
Rp7056
sS'2063'
p7057
g9
(g13
S'X\xe6@@yY\xd9?'
p7058
tp7059
Rp7060
sS'41'
p7061
g9
(g13
S'$\x7f\xe9\x910C\xdc?'
p7062
tp7063
Rp7064
sa(dp7065
S'281'
p7066
g9
(g13
S'\x8f\xedZ\xcdz<\xb6?'
p7067
tp7068
Rp7069
sS'1783'
p7070
g9
(g13
S'\xa1\xe0\xd2\x94$\xba\xb2?'
p7071
tp7072
Rp7073
sS'872'
p7074
g9
(g13
S'\x9a\xee;\xa5\xde\xb9\xb9?'
p7075
tp7076
Rp7077
sS'2063'
p7078
g9
(g13
S'\xd7\xa9X\x15\x8e1\xb3?'
p7079
tp7080
Rp7081
sS'41'
p7082
g9
(g13
S'R\x7f\xc7\xd2\x8b\x15\xb4?'
p7083
tp7084
Rp7085
saaa(lp7086
I3
ag6998
ag102
a(lp7087
(dp7088
S'281'
p7089
g9
(g13
S'\x1b,BEM\xec\xd9?'
p7090
tp7091
Rp7092
sS'1783'
p7093
g9
(g13
S'\x03\xbe\x8f\xda\xdeu\xd7?'
p7094
tp7095
Rp7096
sS'872'
p7097
g9
(g13
S'\xef\x9a\xb3\x91\x8f[\xd7?'
p7098
tp7099
Rp7100
sS'2063'
p7101
g9
(g13
S'\xb6\x9a\xd6MW\xed\xd7?'
p7102
tp7103
Rp7104
sS'41'
p7105
g9
(g13
S'\xff\x89\x98B\x11\x19\xe0?'
p7106
tp7107
Rp7108
sa(dp7109
S'281'
p7110
g9
(g13
S'\x93\x04w\xfePo\xb3?'
p7111
tp7112
Rp7113
sS'1783'
p7114
g9
(g13
S'\x0b\xb0oBV\x89\xac?'
p7115
tp7116
Rp7117
sS'872'
p7118
g9
(g13
S'\xf5\xda\x91\x1ah\xab\xaa?'
p7119
tp7120
Rp7121
sS'2063'
p7122
g9
(g13
S'~\xbe\xa05\x97\xb8\xae?'
p7123
tp7124
Rp7125
sS'41'
p7126
g9
(g13
S"'\xf9*5\x84D\xb3?"
p7127
tp7128
Rp7129
saaa(lp7130
I3
ag6998
ag147
a(lp7131
(dp7132
S'281'
p7133
g9
(g13
S'Y\xc0]n\xa7\x99\xe6?'
p7134
tp7135
Rp7136
sS'1783'
p7137
g9
(g13
S'\xefL\xa3#>\x04\xe0?'
p7138
tp7139
Rp7140
sS'872'
p7141
g9
(g13
S'\xe2\x86\x1bn\xb8\xe1\xe6?'
p7142
tp7143
Rp7144
sS'2063'
p7145
g9
(g13
S'\xcb\xcdz\x96\xb1\xa8\xe4?'
p7146
tp7147
Rp7148
sS'41'
p7149
g9
(g13
S'C\xc4\xb3b\xdcl\xe9?'
p7150
tp7151
Rp7152
sa(dp7153
S'281'
p7154
g9
(g13
S':\x18(\x9e\xd9e\xbe?'
p7155
tp7156
Rp7157
sS'1783'
p7158
g9
(g13
S'*T6bRt\xb0?'
p7159
tp7160
Rp7161
sS'872'
p7162
g9
(g13
S'|`\xf1m\xf1\x9e\xb8?'
p7163
tp7164
Rp7165
sS'2063'
p7166
g9
(g13
S'\x17o\xc8\xca\xa1\x02\xb3?'
p7167
tp7168
Rp7169
sS'41'
p7170
g9
(g13
S'R\xd8\xcb\x97\xfe\x88\xb3?'
p7171
tp7172
Rp7173
saaa(lp7174
I3
ag6998
ag192
a(lp7175
(dp7176
S'281'
p7177
g9
(g13
S'\x1e/\xf9[\x16\xc4\xec?'
p7178
tp7179
Rp7180
sS'1783'
p7181
g9
(g13
S'`\x87`@\xf6F\xf1?'
p7182
tp7183
Rp7184
sS'872'
p7185
g9
(g13
S'\x12\xda\x93\x00\xcb\xb4\xed?'
p7186
tp7187
Rp7188
sS'2063'
p7189
g9
(g13
S'\xbaC\xdb\xb5k\x8c\xf2?'
p7190
tp7191
Rp7192
sS'41'
p7193
g9
(g13
S'\xfb\x9b\xb8-\xe8\xd5\xf5?'
p7194
tp7195
Rp7196
sa(dp7197
S'281'
p7198
g9
(g13
S'\x91\x90`\xb2\xc7\x0e\xad?'
p7199
tp7200
Rp7201
sS'1783'
p7202
g9
(g13
S'\x9d7\xe9]T\x83\xbb?'
p7203
tp7204
Rp7205
sS'872'
p7206
g9
(g13
S'\x95\xb6)\xf49d\xb1?'
p7207
tp7208
Rp7209
sS'2063'
p7210
g9
(g13
S'\r\x92\xcf\xf2\x17@\xb8?'
p7211
tp7212
Rp7213
sS'41'
p7214
g9
(g13
S'G\xeb\xe4:\xb5\xe8\xb5?'
p7215
tp7216
Rp7217
saaa(lp7218
I3
ag6998
ag237
a(lp7219
(dp7220
S'281'
p7221
g9
(g13
S'3\xae\x17\xeb\x84\xab\x01@'
p7222
tp7223
Rp7224
sS'1783'
p7225
g9
(g13
S'\xdf\xa5\xc5\xd4\xee\x16\xfd?'
p7226
tp7227
Rp7228
sS'872'
p7229
g9
(g13
S'r\xcf\xe0\x12\xf2\x17\x00@'
p7230
tp7231
Rp7232
sS'2063'
p7233
g9
(g13
S'K/\xabS\xe8\x8d\x02@'
p7234
tp7235
Rp7236
sS'41'
p7237
g9
(g13
S'!p\x06\xa6\x9a}\x05@'
p7238
tp7239
Rp7240
sa(dp7241
S'281'
p7242
g9
(g13
S'\xa8\xbc\xb3\x08\x95\x9f\xbb?'
p7243
tp7244
Rp7245
sS'1783'
p7246
g9
(g13
S'\x96\x19\xa7\x06\xe5\x04\xb7?'
p7247
tp7248
Rp7249
sS'872'
p7250
g9
(g13
S'\xf7\xd4\xba\x82\x1a\x1d\xba?'
p7251
tp7252
Rp7253
sS'2063'
p7254
g9
(g13
S'\xc5\xe4\x92c\xd1\x10\xc0?'
p7255
tp7256
Rp7257
sS'41'
p7258
g9
(g13
S'\x98\n\x0cV7\x11\xba?'
p7259
tp7260
Rp7261
saaa(lp7262
I3
ag6998
ag282
a(lp7263
(dp7264
S'281'
p7265
g9
(g13
S'\xba=\xea\x1c?\x90\x12@'
p7266
tp7267
Rp7268
sS'1783'
p7269
g9
(g13
S']\xe5\xa8\xbb\n^\x10@'
p7270
tp7271
Rp7272
sS'872'
p7273
g9
(g13
S'\x06\x91\xd8\x07\x81_\x12@'
p7274
tp7275
Rp7276
sS'2063'
p7277
g9
(g13
S'j\xd7FN\x16X\x15@'
p7278
tp7279
Rp7280
sS'41'
p7281
g9
(g13
S'\xe3\xdf\xd4\xa8\xf87\x17@'
p7282
tp7283
Rp7284
sa(dp7285
S'281'
p7286
g9
(g13
S'\x8cv\xe0dp\x9c\xc1?'
p7287
tp7288
Rp7289
sS'1783'
p7290
g9
(g13
S'|\xb9u)\xfa)\xbf?'
p7291
tp7292
Rp7293
sS'872'
p7294
g9
(g13
S'\xbb\x0c\x95\xc7\xf3{\xc1?'
p7295
tp7296
Rp7297
sS'2063'
p7298
g9
(g13
S'\xd9\x94H\xf9\xbf~\xc1?'
p7299
tp7300
Rp7301
sS'41'
p7302
g9
(g13
S'\x86j\x16m\x8b\xea\xc2?'
p7303
tp7304
Rp7305
saaa(lp7306
I3
ag6998
ag327
a(lp7307
(dp7308
S'281'
p7309
g9
(g13
S'\x96\xdf\xcd\x90Z\xec#@'
p7310
tp7311
Rp7312
sS'1783'
p7313
g9
(g13
S'\x85\x82C\x03\x98\x1a"@'
p7314
tp7315
Rp7316
sS'872'
p7317
g9
(g13
S'=8W\x85\x81\xd3"@'
p7318
tp7319
Rp7320
sS'2063'
p7321
g9
(g13
S'\xed!\xa2\xc3q\xf5&@'
p7322
tp7323
Rp7324
sS'41'
p7325
g9
(g13
S'.\xb5\xf8\xb6\xc4\xbc&@'
p7326
tp7327
Rp7328
sa(dp7329
S'281'
p7330
g9
(g13
S'\xec\x97\xe0\xfdyH\xc6?'
p7331
tp7332
Rp7333
sS'1783'
p7334
g9
(g13
S'A\xe3|\x80+\xf4\xc5?'
p7335
tp7336
Rp7337
sS'872'
p7338
g9
(g13
S'=|\xd3\xb5\xa2\n\xc7?'
p7339
tp7340
Rp7341
sS'2063'
p7342
g9
(g13
S'\x19\xb0\xc1\xd4kR\xca?'
p7343
tp7344
Rp7345
sS'41'
p7346
g9
(g13
S'\x94\xe6\x86\xdc\xebi\xc9?'
p7347
tp7348
Rp7349
saaa(lp7350
I3
ag6998
ag372
a(lp7351
(dp7352
S'281'
p7353
g9
(g13
S'\xf6\xb0a\xe1\xa0-3@'
p7354
tp7355
Rp7356
sS'1783'
p7357
g9
(g13
S'\\\x94\xc2@\x83\x1c2@'
p7358
tp7359
Rp7360
sS'872'
p7361
g9
(g13
S'\xfa>\xbf\x87\xc3\x042@'
p7362
tp7363
Rp7364
sS'2063'
p7365
g9
(g13
S'\x01\xb1\x0b\xa2\xae\xc55@'
p7366
tp7367
Rp7368
sS'41'
p7369
g9
(g13
S'C\x83RXN\xeb3@'
p7370
tp7371
Rp7372
sa(dp7373
S'281'
p7374
g9
(g13
S'\x1f\xf3(O\xb3H\xce?'
p7375
tp7376
Rp7377
sS'1783'
p7378
g9
(g13
S'|\xe5vJE\xd4\xcd?'
p7379
tp7380
Rp7381
sS'872'
p7382
g9
(g13
S'\x109\xb4\xd4&z\xcd?'
p7383
tp7384
Rp7385
sS'2063'
p7386
g9
(g13
S'F\xf1\r2~\x80\xcf?'
p7387
tp7388
Rp7389
sS'41'
p7390
g9
(g13
S'w\xa7\xb3k)"\xd0?'
p7391
tp7392
Rp7393
saaa(lp7394
I3
ag6998
aS'10'
p7395
a(lp7396
(dp7397
S'281'
p7398
g9
(g13
S'\xb7oT\x97\xf1\xa1?@'
p7399
tp7400
Rp7401
sS'1783'
p7402
g9
(g13
S'\xab\xe9\x91\xad\xc5W>@'
p7403
tp7404
Rp7405
sS'872'
p7406
g9
(g13
S'\xf6\x13\x19<S\x85=@'
p7407
tp7408
Rp7409
sS'2063'
p7410
g9
(g13
S'zy\x93\x97uLB@'
p7411
tp7412
Rp7413
sS'41'
p7414
g9
(g13
S'\xb8ut\x1c\x0c\x14?@'
p7415
tp7416
Rp7417
sa(dp7418
S'281'
p7419
g9
(g13
S'H`\xdd\xbac\x95\xd3?'
p7420
tp7421
Rp7422
sS'1783'
p7423
g9
(g13
S'\xe7\xbb=HI\xc3\xd3?'
p7424
tp7425
Rp7426
sS'872'
p7427
g9
(g13
S'\xc6/\x91\xb06\x9f\xd2?'
p7428
tp7429
Rp7430
sS'2063'
p7431
g9
(g13
S'\xac\x00*.C\xbf\xd4?'
p7432
tp7433
Rp7434
sS'41'
p7435
g9
(g13
S'\xc3\x98\x883\x81\x03\xd3?'
p7436
tp7437
Rp7438
saaa(lp7439
I3
ag6998
aS'11'
p7440
a(lp7441
(dp7442
S'281'
p7443
g9
(g13
S'\xccVAa\xeb=G@'
p7444
tp7445
Rp7446
sS'1783'
p7447
g9
(g13
S'\xc0D\x93*\xb6&F@'
p7448
tp7449
Rp7450
sS'872'
p7451
g9
(g13
S'\x8f\xc6\x7fp\xc7\x8fE@'
p7452
tp7453
Rp7454
sS'2063'
p7455
g9
(g13
S'\xd0y\x89\x83J%J@'
p7456
tp7457
Rp7458
sS'41'
p7459
g9
(g13
S'\xd15[\xf8\x88\x01E@'
p7460
tp7461
Rp7462
sa(dp7463
S'281'
p7464
g9
(g13
S'<i*!NY\xd7?'
p7465
tp7466
Rp7467
sS'1783'
p7468
g9
(g13
S'\xd2\x81\xce\n\xe3\x91\xd7?'
p7469
tp7470
Rp7471
sS'872'
p7472
g9
(g13
S'\x04\xf1\xca$\x0c\xe3\xd6?'
p7473
tp7474
Rp7475
sS'2063'
p7476
g9
(g13
S'\x88N\x9f1M\x9f\xd8?'
p7477
tp7478
Rp7479
sS'41'
p7480
g9
(g13
S'\xe9\x19\xef\xc2\xdf\x90\xd6?'
p7481
tp7482
Rp7483
saaa(lp7484
I3
ag6998
aS'12'
p7485
a(lp7486
(dp7487
S'281'
p7488
g9
(g13
S'\xff\xb8\x8d{\xde\xccL@'
p7489
tp7490
Rp7491
sS'1783'
p7492
g9
(g13
S'\x7f\xd0\x16d\xe0\xa6K@'
p7493
tp7494
Rp7495
sS'872'
p7496
g9
(g13
S'\xa8UN}0\xeeI@'
p7497
tp7498
Rp7499
sS'2063'
p7500
g9
(g13
S"\xc3\xf3\xfa\x96'>P@"
p7501
tp7502
Rp7503
sS'41'
p7504
g9
(g13
S'\x99\xcc\xe3IE\xbdI@'
p7505
tp7506
Rp7507
sa(dp7508
S'281'
p7509
g9
(g13
S'\xf2<\xa1"\x85\x93\xd9?'
p7510
tp7511
Rp7512
sS'1783'
p7513
g9
(g13
S'\xba\x87Sr\x80 \xd9?'
p7514
tp7515
Rp7516
sS'872'
p7517
g9
(g13
S'+\xd6c\x85\xab\xcb\xd8?'
p7518
tp7519
Rp7520
sS'2063'
p7521
g9
(g13
S'd\xfd\x8fDO\x89\xdb?'
p7522
tp7523
Rp7524
sS'41'
p7525
g9
(g13
S'/\x0f\x9cq\xcb\xef\xd8?'
p7526
tp7527
Rp7528
saaa(lp7529
I3
ag6998
aS'13'
p7530
a(lp7531
(dp7532
S'281'
p7533
g9
(g13
S'\x0eOw\x14_\x0cO@'
p7534
tp7535
Rp7536
sS'1783'
p7537
g9
(g13
S'\x0bM\xd5\xee\xb80N@'
p7538
tp7539
Rp7540
sS'872'
p7541
g9
(g13
S'YsF#\xaehL@'
p7542
tp7543
Rp7544
sS'2063'
p7545
g9
(g13
S'P\x01\x1ez\x9dPQ@'
p7546
tp7547
Rp7548
sS'41'
p7549
g9
(g13
S'\x84\x92\x92\x88\xa8\xa3J@'
p7550
tp7551
Rp7552
sa(dp7553
S'281'
p7554
g9
(g13
S'\xc7\x04\x92N\x9c\n\xdb?'
p7555
tp7556
Rp7557
sS'1783'
p7558
g9
(g13
S'\xd4\xd0\xf0\x18\xbe\xd6\xda?'
p7559
tp7560
Rp7561
sS'872'
p7562
g9
(g13
S'\xb5,\xbe\xcdQ\x97\xd9?'
p7563
tp7564
Rp7565
sS'2063'
p7566
g9
(g13
S'\x0f| \x88p\xd0\xdb?'
p7567
tp7568
Rp7569
sS'41'
p7570
g9
(g13
S'\xf1Ki,\xb2\x9f\xd8?'
p7571
tp7572
Rp7573
saaa(lp7574
I3
ag6998
aS'14'
p7575
a(lp7576
(dp7577
S'281'
p7578
g9
(g13
S'\xefE\x11P\xf5\xe9L@'
p7579
tp7580
Rp7581
sS'1783'
p7582
g9
(g13
S'H\xb7\x0f \x88\x18L@'
p7583
tp7584
Rp7585
sS'872'
p7586
g9
(g13
S'\x81t\r_\xa0+J@'
p7587
tp7588
Rp7589
sS'2063'
p7590
g9
(g13
S'\xc4[\xfa\xf8yEP@'
p7591
tp7592
Rp7593
sS'41'
p7594
g9
(g13
S'\xfb2\x91#\xae\xbeI@'
p7595
tp7596
Rp7597
sa(dp7598
S'281'
p7599
g9
(g13
S':\xcd=\xccm\x9d\xda?'
p7600
tp7601
Rp7602
sS'1783'
p7603
g9
(g13
S'\x9f\xe5B\xea\xbd>\xda?'
p7604
tp7605
Rp7606
sS'872'
p7607
g9
(g13
S'\x9e\xdc\xbf\xd3\xb9\x08\xd9?'
p7608
tp7609
Rp7610
sS'2063'
p7611
g9
(g13
S'E}\xa3\xddC\xcd\xdb?'
p7612
tp7613
Rp7614
sS'41'
p7615
g9
(g13
S'_\xd4\n[\xc2N\xd9?'
p7616
tp7617
Rp7618
saaa(lp7619
I3
ag6998
aS'15'
p7620
a(lp7621
(dp7622
S'281'
p7623
g9
(g13
S'\xaa^\xbcd\x8a.G@'
p7624
tp7625
Rp7626
sS'1783'
p7627
g9
(g13
S'-o0\xb66!F@'
p7628
tp7629
Rp7630
sS'872'
p7631
g9
(g13
S'\x9d\xed\xd5\x16^sE@'
p7632
tp7633
Rp7634
sS'2063'
p7635
g9
(g13
S'\x03\xf9\x9fFP|J@'
p7636
tp7637
Rp7638
sS'41'
p7639
g9
(g13
S'7\x0e\xfcv\x0eGE@'
p7640
tp7641
Rp7642
sa(dp7643
S'281'
p7644
g9
(g13
S'\\`\xfc\x87\xb9\xb7\xd6?'
p7645
tp7646
Rp7647
sS'1783'
p7648
g9
(g13
S'\x92k:<\x03\xcf\xd6?'
p7649
tp7650
Rp7651
sS'872'
p7652
g9
(g13
S'\xba;8OT\xed\xd5?'
p7653
tp7654
Rp7655
sS'2063'
p7656
g9
(g13
S'm7c\x97\xa4-\xd8?'
p7657
tp7658
Rp7659
sS'41'
p7660
g9
(g13
S'\x84\xf6T9\xf4#\xd6?'
p7661
tp7662
Rp7663
saaa(lp7664
I3
ag6998
aS'16'
p7665
a(lp7666
(dp7667
S'281'
p7668
g9
(g13
S'\xb1]\t\xd4vG@@'
p7669
tp7670
Rp7671
sS'1783'
p7672
g9
(g13
S'7J\x81\x10\xb7\xd6>@'
p7673
tp7674
Rp7675
sS'872'
p7676
g9
(g13
S'\x88\xbar\x1a\xdf\xbb=@'
p7677
tp7678
Rp7679
sS'2063'
p7680
g9
(g13
S'\xaa\xb1\xec\xad_\xe6A@'
p7681
tp7682
Rp7683
sS'41'
p7684
g9
(g13
S'\x18A\x82z1\x84>@'
p7685
tp7686
Rp7687
sa(dp7688
S'281'
p7689
g9
(g13
S'X8\x11\xfe+\xdd\xd3?'
p7690
tp7691
Rp7692
sS'1783'
p7693
g9
(g13
S'\xc6\xdb\xdfOm>\xd3?'
p7694
tp7695
Rp7696
sS'872'
p7697
g9
(g13
S'5\xb1\tL80\xd3?'
p7698
tp7699
Rp7700
sS'2063'
p7701
g9
(g13
S'\xfc\xdf\x01\x05>\x87\xd4?'
p7702
tp7703
Rp7704
sS'41'
p7705
g9
(g13
S'\xfb\x1d!-\xf6\x1e\xd3?'
p7706
tp7707
Rp7708
saaa(lp7709
I3
ag6998
aS'17'
p7710
a(lp7711
(dp7712
S'281'
p7713
g9
(g13
S'*d\x8b\xf3\xad#3@'
p7714
tp7715
Rp7716
sS'1783'
p7717
g9
(g13
S'E;G\x8d\xa5M2@'
p7718
tp7719
Rp7720
sS'872'
p7721
g9
(g13
S'n5\x0b\x93\xa602@'
p7722
tp7723
Rp7724
sS'2063'
p7725
g9
(g13
S'\xdf\xafO\xbf\x07\xb65@'
p7726
tp7727
Rp7728
sS'41'
p7729
g9
(g13
S'\xa1\xa7T\x92\x85\x853@'
p7730
tp7731
Rp7732
sa(dp7733
S'281'
p7734
g9
(g13
S'\xe1\xaa0\xc6\xf3\x14\xce?'
p7735
tp7736
Rp7737
sS'1783'
p7738
g9
(g13
S'\xf7\xaf\x91-\x14\xe8\xcd?'
p7739
tp7740
Rp7741
sS'872'
p7742
g9
(g13
S'\x8e\x16\xe2\xdf0\xc7\xcd?'
p7743
tp7744
Rp7745
sS'2063'
p7746
g9
(g13
S'^\xc5\xe0[\xba{\xd0?'
p7747
tp7748
Rp7749
sS'41'
p7750
g9
(g13
S'\xbc\xe6[\xe2\xfbZ\xce?'
p7751
tp7752
Rp7753
saaa(lp7754
I3
ag6998
aS'18'
p7755
a(lp7756
(dp7757
S'281'
p7758
g9
(g13
S'\x92\xeb\xdcFm\xd5#@'
p7759
tp7760
Rp7761
sS'1783'
p7762
g9
(g13
S'Y\xa4\x86,\x11\xb5"@'
p7763
tp7764
Rp7765
sS'872'
p7766
g9
(g13
S'\xd8\x83O\xedI\xf5"@'
p7767
tp7768
Rp7769
sS'2063'
p7770
g9
(g13
S'&\xa8\xd4s\x07M&@'
p7771
tp7772
Rp7773
sS'41'
p7774
g9
(g13
S"\xa7_\x8a1\xe6\x04'@"
p7775
tp7776
Rp7777
sa(dp7778
S'281'
p7779
g9
(g13
S'\x8a\xbb\xf1\x82\x99z\xc9?'
p7780
tp7781
Rp7782
sS'1783'
p7783
g9
(g13
S'\x1c\xe7J\xbe\xbbR\xc7?'
p7784
tp7785
Rp7786
sS'872'
p7787
g9
(g13
S'\x0f\xee%>\x92\xfe\xc4?'
p7788
tp7789
Rp7790
sS'2063'
p7791
g9
(g13
S'\xea\xf74\xb3\x93y\xc7?'
p7792
tp7793
Rp7794
sS'41'
p7795
g9
(g13
S'\xae\xee\xcb\x90Oa\xc8?'
p7796
tp7797
Rp7798
saaa(lp7799
I3
ag6998
aS'19'
p7800
a(lp7801
(dp7802
S'281'
p7803
g9
(g13
S'\x8a\x1b\xaf>\xba\n\x12@'
p7804
tp7805
Rp7806
sS'1783'
p7807
g9
(g13
S'Ij\xa7t$\xff\x10@'
p7808
tp7809
Rp7810
sS'872'
p7811
g9
(g13
S'\xben\xb5f\x13\xb7\x11@'
p7812
tp7813
Rp7814
sS'2063'
p7815
g9
(g13
S'\xaa(\xd9\xc7\xc1u\x15@'
p7816
tp7817
Rp7818
sS'41'
p7819
g9
(g13
S'Z4\x8f\xbb)M\x17@'
p7820
tp7821
Rp7822
sa(dp7823
S'281'
p7824
g9
(g13
S'*\xff\xf5\x91\xeb\xe3\xbf?'
p7825
tp7826
Rp7827
sS'1783'
p7828
g9
(g13
S'\xf7\xee\xd5r\xd0\xfb\xbf?'
p7829
tp7830
Rp7831
sS'872'
p7832
g9
(g13
S'n\xc3nyg{\xbd?'
p7833
tp7834
Rp7835
sS'2063'
p7836
g9
(g13
S'\x94\x83\x1fI\xb7q\xc2?'
p7837
tp7838
Rp7839
sS'41'
p7840
g9
(g13
S'\x088\xad\xee\r\xa5\xc2?'
p7841
tp7842
Rp7843
saaa(lp7844
I3
ag6998
aS'20'
p7845
a(lp7846
(dp7847
S'281'
p7848
g9
(g13
S'\xf9m$ia\xd2\x00@'
p7849
tp7850
Rp7851
sS'1783'
p7852
g9
(g13
S'X\xf7\x07n\x18M\xfd?'
p7853
tp7854
Rp7855
sS'872'
p7856
g9
(g13
S'{\xec\xda(\xf6\xf3\xff?'
p7857
tp7858
Rp7859
sS'2063'
p7860
g9
(g13
S'\xcd\xb6\xe5F\xb4\xa6\x02@'
p7861
tp7862
Rp7863
sS'41'
p7864
g9
(g13
S'n\xfeb\x89\xea\xc3\x07@'
p7865
tp7866
Rp7867
sa(dp7868
S'281'
p7869
g9
(g13
S'\x11\x04r\x9b\xef\xb7\xbb?'
p7870
tp7871
Rp7872
sS'1783'
p7873
g9
(g13
S'\xc3o\xce\x8c\x94t\xba?'
p7874
tp7875
Rp7876
sS'872'
p7877
g9
(g13
S'uo\xad\nc\x93\xbd?'
p7878
tp7879
Rp7880
sS'2063'
p7881
g9
(g13
S'\x02\xe1&\x8e\xcf\xb0\xc0?'
p7882
tp7883
Rp7884
sS'41'
p7885
g9
(g13
S'\xf4Q\x9cK\xb1\xd9\xc1?'
p7886
tp7887
Rp7888
saaa(lp7889
I3
ag6998
aS'21'
p7890
a(lp7891
(dp7892
S'281'
p7893
g9
(g13
S'B\xd5\xca\xb2\xe6\xcd\xef?'
p7894
tp7895
Rp7896
sS'1783'
p7897
g9
(g13
S'p\xac=\x18Z-\xef?'
p7898
tp7899
Rp7900
sS'872'
p7901
g9
(g13
S'\xcf\x11\xe3\xad\xe0>\xec?'
p7902
tp7903
Rp7904
sS'2063'
p7905
g9
(g13
S'-\x05\xab{\x00b\xf0?'
p7906
tp7907
Rp7908
sS'41'
p7909
g9
(g13
S'\x939\x94^M\x12\xf5?'
p7910
tp7911
Rp7912
sa(dp7913
S'281'
p7914
g9
(g13
S'\xe5$\xea\xa7w\xc6\xbd?'
p7915
tp7916
Rp7917
sS'1783'
p7918
g9
(g13
S'\xeaW\x03\x013N\xc2?'
p7919
tp7920
Rp7921
sS'872'
p7922
g9
(g13
S'\x90W\xff\x84\xe2i\xb8?'
p7923
tp7924
Rp7925
sS'2063'
p7926
g9
(g13
S'\x1d\xe9\xbaX\x97\x99\xbb?'
p7927
tp7928
Rp7929
sS'41'
p7930
g9
(g13
S'\x14\xab\xbf\xa6\xdb\xae\xb4?'
p7931
tp7932
Rp7933
saaa(lp7934
I3
ag6998
aS'22'
p7935
a(lp7936
(dp7937
S'281'
p7938
g9
(g13
S'\x8f!\xe2G&7\xe2?'
p7939
tp7940
Rp7941
sS'1783'
p7942
g9
(g13
S'K\x1d\xf9u/\xa1\xe2?'
p7943
tp7944
Rp7945
sS'872'
p7946
g9
(g13
S'\xe2?\x9f\x15\x0e\xd4\xe4?'
p7947
tp7948
Rp7949
sS'2063'
p7950
g9
(g13
S'\x96$\x05\xcd\xb1\x15\xe2?'
p7951
tp7952
Rp7953
sS'41'
p7954
g9
(g13
S'\r\xcc\x02\xa2&\x01\xe9?'
p7955
tp7956
Rp7957
sa(dp7958
S'281'
p7959
g9
(g13
S'\xb5u\xb0\xf6I9\xb1?'
p7960
tp7961
Rp7962
sS'1783'
p7963
g9
(g13
S'\t\x94\x88\xc8\xb4\x9f\xb3?'
p7964
tp7965
Rp7966
sS'872'
p7967
g9
(g13
S'\xd9:\x16\xca?\xfb\xbf?'
p7968
tp7969
Rp7970
sS'2063'
p7971
g9
(g13
S'\xe3U\xbd\xc7*#\xae?'
p7972
tp7973
Rp7974
sS'41'
p7975
g9
(g13
S'\xd6e\xaf\x1eJ-\xb4?'
p7976
tp7977
Rp7978
saaa(lp7979
I3
ag6998
aS'23'
p7980
a(lp7981
(dp7982
S'281'
p7983
g9
(g13
S'\x00\xd8$%\x0f\x98\xdb?'
p7984
tp7985
Rp7986
sS'1783'
p7987
g9
(g13
S'\xe5 j\xcc\xdd{\xdd?'
p7988
tp7989
Rp7990
sS'872'
p7991
g9
(g13
S'o9\xdc\x91\xda\xe3\xde?'
p7992
tp7993
Rp7994
sS'2063'
p7995
g9
(g13
S"\xd6{\x0e\xfb\xa2'\xd6?"
p7996
tp7997
Rp7998
sS'41'
p7999
g9
(g13
S"y\x9a'i\x10\xdc\xdb?"
p8000
tp8001
Rp8002
sa(dp8003
S'281'
p8004
g9
(g13
S'\x0f\xbb\x83\x08mN\xb0?'
p8005
tp8006
Rp8007
sS'1783'
p8008
g9
(g13
S'\xfd\xea1\x83k\xff\xb3?'
p8009
tp8010
Rp8011
sS'872'
p8012
g9
(g13
S'$W\xf0F\xe1\xc6\xb1?'
p8013
tp8014
Rp8015
sS'2063'
p8016
g9
(g13
S'\x1d \x85i\xd1E\xa4?'
p8017
tp8018
Rp8019
sS'41'
p8020
g9
(g13
S'E:\xf46\x95\xe2\xa9?'
p8021
tp8022
Rp8023
saaa(lp8024
I3
ag6998
aS'24'
p8025
a(lp8026
(dp8027
S'281'
p8028
g9
(g13
S'\x1d\xe4\x9f\xbd\xcd\x8c\xd3?'
p8029
tp8030
Rp8031
sS'1783'
p8032
g9
(g13
S'\x0b\xfe^\x1d>`\xd9?'
p8033
tp8034
Rp8035
sS'872'
p8036
g9
(g13
S'\x92\x91\rr\xca\x9c\xd8?'
p8037
tp8038
Rp8039
sS'2063'
p8040
g9
(g13
S'\xab\xf3\x02\xed\xb7\xdb\xda?'
p8041
tp8042
Rp8043
sS'41'
p8044
g9
(g13
S'\xc5oD\n\x9b\xdd\xdf?'
p8045
tp8046
Rp8047
sa(dp8048
S'281'
p8049
g9
(g13
S'\xce\xbf\x14\x0fJ\xb2\xa5?'
p8050
tp8051
Rp8052
sS'1783'
p8053
g9
(g13
S'B\x98\xbb\xb4\xa7\xb0\xb3?'
p8054
tp8055
Rp8056
sS'872'
p8057
g9
(g13
S'\xa9\xf4o\x12\x07\xb7\xaf?'
p8058
tp8059
Rp8060
sS'2063'
p8061
g9
(g13
S"n?'X4o\xb0?"
p8062
tp8063
Rp8064
sS'41'
p8065
g9
(g13
S'\xcew`\x8a\xd0\x07\xb5?'
p8066
tp8067
Rp8068
saaa(lp8069
I3
ag6998
aS'25'
p8070
a(lp8071
(dp8072
S'281'
p8073
g9
(g13
S'\xb5B~*\xd5 \xdc?'
p8074
tp8075
Rp8076
sS'1783'
p8077
g9
(g13
S'\xff,\x95\xd5\x19 \xdd?'
p8078
tp8079
Rp8080
sS'872'
p8081
g9
(g13
S"'\xf9.*dp\xd5?"
p8082
tp8083
Rp8084
sS'2063'
p8085
g9
(g13
S'\xbc\x02|\x8b\xcb\xbd\xd9?'
p8086
tp8087
Rp8088
sS'41'
p8089
g9
(g13
S'h\xc4{\xc5\xc1\xf8\xd8?'
p8090
tp8091
Rp8092
sa(dp8093
S'281'
p8094
g9
(g13
S'\x08\xcaI\xbc}\x97\xb3?'
p8095
tp8096
Rp8097
sS'1783'
p8098
g9
(g13
S'\xbej\x11\x91\xff]\xb3?'
p8099
tp8100
Rp8101
sS'872'
p8102
g9
(g13
S'i\xff\x10\x94\x96\x16\xaa?'
p8103
tp8104
Rp8105
sS'2063'
p8106
g9
(g13
S'\xb7\xc1\xda@p\x8a\xb0?'
p8107
tp8108
Rp8109
sS'41'
p8110
g9
(g13
S'\x1e|\x03\n\xeb\xb7\xb2?'
p8111
tp8112
Rp8113
saaasS'Scan_8'
p8114
(lp8115
(lp8116
I8
aVI2Y
p8117
ag5
a(lp8118
(dp8119
S'281'
p8120
g9
(g13
S') e={\x8c\xe2?'
p8121
tp8122
Rp8123
sS'1783'
p8124
g9
(g13
S'[Bt5d\x85\xe4?'
p8125
tp8126
Rp8127
sS'872'
p8128
g9
(g13
S'\xed&Jym\x0e\xe1?'
p8129
tp8130
Rp8131
sS'2063'
p8132
g9
(g13
S'\x12\x92\xe4g\xddz\xe4?'
p8133
tp8134
Rp8135
sS'41'
p8136
g9
(g13
S'\xe5;\xa5\xa0)k\xe8?'
p8137
tp8138
Rp8139
sa(dp8140
S'281'
p8141
g9
(g13
S'9\x831r\xd4(\xb0?'
p8142
tp8143
Rp8144
sS'1783'
p8145
g9
(g13
S'\x1d+qjh\xd7\xb5?'
p8146
tp8147
Rp8148
sS'872'
p8149
g9
(g13
S'<\xaa\xab\xf1\x0er\xac?'
p8150
tp8151
Rp8152
sS'2063'
p8153
g9
(g13
S'\xd1\xaap\x8c\x95\xf8\xac?'
p8154
tp8155
Rp8156
sS'41'
p8157
g9
(g13
S'4me\xa7\x9d\xec\xaf?'
p8158
tp8159
Rp8160
saaa(lp8161
I8
ag8117
ag57
a(lp8162
(dp8163
S'281'
p8164
g9
(g13
S'\x0e\x97\xfa\xe0\x12\xe6\xed?'
p8165
tp8166
Rp8167
sS'1783'
p8168
g9
(g13
S'A\xe9\xe1\xe0\xd4\xa9\xf0?'
p8169
tp8170
Rp8171
sS'872'
p8172
g9
(g13
S'\xcf\xe0\x99\xc3_|\xee?'
p8173
tp8174
Rp8175
sS'2063'
p8176
g9
(g13
S'\xd2\xb1\x1a\xcd\xde,\xf0?'
p8177
tp8178
Rp8179
sS'41'
p8180
g9
(g13
S'\x8f\xe8\xe0\xfau\xdc\xf3?'
p8181
tp8182
Rp8183
sa(dp8184
S'281'
p8185
g9
(g13
S'\xce\t\xb9\x94l\xe8\xb3?'
p8186
tp8187
Rp8188
sS'1783'
p8189
g9
(g13
S'\xa3\x11\x1c\xdbu\xe5\xbb?'
p8190
tp8191
Rp8192
sS'872'
p8193
g9
(g13
S'f;\xeeZ2\x8f\xb4?'
p8194
tp8195
Rp8196
sS'2063'
p8197
g9
(g13
S'\xabYJ_\x1bj\xb1?'
p8198
tp8199
Rp8200
sS'41'
p8201
g9
(g13
S'\xf2\x89\xc5H\x07W\xb6?'
p8202
tp8203
Rp8204
saaa(lp8205
I8
ag8117
ag102
a(lp8206
(dp8207
S'281'
p8208
g9
(g13
S',\x02\xa3W\xaf\xd7\x00@'
p8209
tp8210
Rp8211
sS'1783'
p8212
g9
(g13
S'\xe3\xe9\x96\xc4h\xa9\xfd?'
p8213
tp8214
Rp8215
sS'872'
p8216
g9
(g13
S'\xe51\xc1\xcc\xcf2\xfc?'
p8217
tp8218
Rp8219
sS'2063'
p8220
g9
(g13
S'Q\x1c\xaf\xad\x97g\x01@'
p8221
tp8222
Rp8223
sS'41'
p8224
g9
(g13
S'\x9f\x18@M!7\x06@'
p8225
tp8226
Rp8227
sa(dp8228
S'281'
p8229
g9
(g13
S'h\x18\xaeQ\xd1\xb4\xb8?'
p8230
tp8231
Rp8232
sS'1783'
p8233
g9
(g13
S'\x92\x1c\rb&\xe0\xb7?'
p8234
tp8235
Rp8236
sS'872'
p8237
g9
(g13
S'\x0beMi\x15\xbd\xb2?'
p8238
tp8239
Rp8240
sS'2063'
p8241
g9
(g13
S'\x14\x9f\xf7\xd1\xc23\xb5?'
p8242
tp8243
Rp8244
sS'41'
p8245
g9
(g13
S'{\xce:\x02\x85u\xba?'
p8246
tp8247
Rp8248
saaa(lp8249
I8
ag8117
ag147
a(lp8250
(dp8251
S'281'
p8252
g9
(g13
S'\xe4\xaf<\xd9\xa6L\x12@'
p8253
tp8254
Rp8255
sS'1783'
p8256
g9
(g13
S'/\xb8\nr:"\x10@'
p8257
tp8258
Rp8259
sS'872'
p8260
g9
(g13
S'\x04\xdcT\xa4\x001\x11@'
p8261
tp8262
Rp8263
sS'2063'
p8264
g9
(g13
S'\x9b\xa4.\x9a=\x17\x14@'
p8265
tp8266
Rp8267
sS'41'
p8268
g9
(g13
S'o\x87C\x8e\x92D\x17@'
p8269
tp8270
Rp8271
sa(dp8272
S'281'
p8273
g9
(g13
S'?\xe7pk\xd2I\xbe?'
p8274
tp8275
Rp8276
sS'1783'
p8277
g9
(g13
S'\xd9\xf4\x87?\x8e\x1c\xbb?'
p8278
tp8279
Rp8280
sS'872'
p8281
g9
(g13
S"\x9d\xe2\x97\xe4\xa0'\xbe?"
p8282
tp8283
Rp8284
sS'2063'
p8285
g9
(g13
S'\xb2w\x01c\xd3\xa5\xbe?'
p8286
tp8287
Rp8288
sS'41'
p8289
g9
(g13
S'\x18\xc0D\x8a-4\xc0?'
p8290
tp8291
Rp8292
saaa(lp8293
I8
ag8117
ag192
a(lp8294
(dp8295
S'281'
p8296
g9
(g13
S'~\xb5[\x96a\x1b#@'
p8297
tp8298
Rp8299
sS'1783'
p8300
g9
(g13
S'MB"\xe1CK"@'
p8301
tp8302
Rp8303
sS'872'
p8304
g9
(g13
S'\x97\xd8r\xd1\xaf\xd8!@'
p8305
tp8306
Rp8307
sS'2063'
p8308
g9
(g13
S'\xe5\xd5U\xa5\xcb\xeb%@'
p8309
tp8310
Rp8311
sS'41'
p8312
g9
(g13
S'u\x18\x87\xc7Y-&@'
p8313
tp8314
Rp8315
sa(dp8316
S'281'
p8317
g9
(g13
S'\x95x\x98<X\xbd\xc2?'
p8318
tp8319
Rp8320
sS'1783'
p8321
g9
(g13
S'\xeb\xa0\x88O$g\xc2?'
p8322
tp8323
Rp8324
sS'872'
p8325
g9
(g13
S'\xf9$\x19n\xfd\xf6\xc2?'
p8326
tp8327
Rp8328
sS'2063'
p8329
g9
(g13
S'\xab\xc5\xcbX\x148\xc4?'
p8330
tp8331
Rp8332
sS'41'
p8333
g9
(g13
S'\x8e\xa5\xf5_g~\xc3?'
p8334
tp8335
Rp8336
saaa(lp8337
I8
ag8117
ag237
a(lp8338
(dp8339
S'281'
p8340
g9
(g13
S'W\xc0Z\x01k\x852@'
p8341
tp8342
Rp8343
sS'1783'
p8344
g9
(g13
S'^\x93:\x06\xc5\xea1@'
p8345
tp8346
Rp8347
sS'872'
p8348
g9
(g13
S'\xc0\xba\xfd\xab\xdb\xb71@'
p8349
tp8350
Rp8351
sS'2063'
p8352
g9
(g13
S',\xf4*(#@5@'
p8353
tp8354
Rp8355
sS'41'
p8356
g9
(g13
S'|#\x9a\xcc\x8f\x943@'
p8357
tp8358
Rp8359
sa(dp8360
S'281'
p8361
g9
(g13
S'\xccj\xfe\xd7I\xbc\xc9?'
p8362
tp8363
Rp8364
sS'1783'
p8365
g9
(g13
S'o\x96O\x07\xf9\xd7\xc9?'
p8366
tp8367
Rp8368
sS'872'
p8369
g9
(g13
S'\xbf19_\x1b\xef\xc8?'
p8370
tp8371
Rp8372
sS'2063'
p8373
g9
(g13
S'\xe0\xc4*\x9c\x0e5\xcb?'
p8374
tp8375
Rp8376
sS'41'
p8377
g9
(g13
S'\xb9f\x14\\\x1d\x0b\xcc?'
p8378
tp8379
Rp8380
saaa(lp8381
I8
ag8117
ag282
a(lp8382
(dp8383
S'281'
p8384
g9
(g13
S'-]\x1f\x1c\x84\x04@@'
p8385
tp8386
Rp8387
sS'1783'
p8388
g9
(g13
S'\x83\xba\xd1/\x92\xa7>@'
p8389
tp8390
Rp8391
sS'872'
p8392
g9
(g13
S'\xc5.\xde\x07\xf6\xf7=@'
p8393
tp8394
Rp8395
sS'2063'
p8396
g9
(g13
S'e-\xf2\x86\x87\x16B@'
p8397
tp8398
Rp8399
sS'41'
p8400
g9
(g13
S'\xe4\xdd\x1cbLR?@'
p8401
tp8402
Rp8403
sa(dp8404
S'281'
p8405
g9
(g13
S'\xa3\xca\xfeF\x01[\xd1?'
p8406
tp8407
Rp8408
sS'1783'
p8409
g9
(g13
S'p\xd3@Y\x06\xac\xd0?'
p8410
tp8411
Rp8412
sS'872'
p8413
g9
(g13
S'\xf8\xab\x01\xa9\x7fZ\xd0?'
p8414
tp8415
Rp8416
sS'2063'
p8417
g9
(g13
S'\x89\x08\x96\xdb\xf0\x16\xd2?'
p8418
tp8419
Rp8420
sS'41'
p8421
g9
(g13
S'\x1c\x16\xcdb\nf\xd1?'
p8422
tp8423
Rp8424
saaa(lp8425
I8
ag8117
ag327
a(lp8426
(dp8427
S'281'
p8428
g9
(g13
S'\x0eu\xfc\xea\xa2IG@'
p8429
tp8430
Rp8431
sS'1783'
p8432
g9
(g13
S'\x0b\xa5\xd4\xf9FnF@'
p8433
tp8434
Rp8435
sS'872'
p8436
g9
(g13
S'\xff\xaa\x80\xf0[\xc7E@'
p8437
tp8438
Rp8439
sS'2063'
p8440
g9
(g13
S'\xba\xbb\xa22\x00\xbdJ@'
p8441
tp8442
Rp8443
sS'41'
p8444
g9
(g13
S'\x95\x99\x10\xe7\xa0\x83E@'
p8445
tp8446
Rp8447
sa(dp8448
S'281'
p8449
g9
(g13
S'\xdd\x9e\x16\xce\x06f\xd4?'
p8450
tp8451
Rp8452
sS'1783'
p8453
g9
(g13
S'\xff\x80\xa9\xd4\x86\xab\xd3?'
p8454
tp8455
Rp8456
sS'872'
p8457
g9
(g13
S'UD\x95\xb5M\xd8\xd3?'
p8458
tp8459
Rp8460
sS'2063'
p8461
g9
(g13
S'Ik\xcf\xca\xd7\xbc\xd5?'
p8462
tp8463
Rp8464
sS'41'
p8465
g9
(g13
S"\x0b\xb1P/4'\xd4?"
p8466
tp8467
Rp8468
saaa(lp8469
I8
ag8117
ag372
a(lp8470
(dp8471
S'281'
p8472
g9
(g13
S'\xdf\xa5\xc1\xeb\xc7]M@'
p8473
tp8474
Rp8475
sS'1783'
p8476
g9
(g13
S'\xa1w\xf0\x83]RL@'
p8477
tp8478
Rp8479
sS'872'
p8480
g9
(g13
S'\xb9~5\xb2@\xb6J@'
p8481
tp8482
Rp8483
sS'2063'
p8484
g9
(g13
S'\x0e]\xed\xd3=\x87P@'
p8485
tp8486
Rp8487
sS'41'
p8488
g9
(g13
S'%\x1f\xa0\x8e\x06\x00J@'
p8489
tp8490
Rp8491
sa(dp8492
S'281'
p8493
g9
(g13
S'B\x0f#x\xe4\xd0\xd6?'
p8494
tp8495
Rp8496
sS'1783'
p8497
g9
(g13
S'\xe6s\x0e\x98\xf2\x08\xd6?'
p8498
tp8499
Rp8500
sS'872'
p8501
g9
(g13
S'\xb5\xe4J\xb1(@\xd5?'
p8502
tp8503
Rp8504
sS'2063'
p8505
g9
(g13
S'\x98\xa5I\xe3\x8c\xeb\xd7?'
p8506
tp8507
Rp8508
sS'41'
p8509
g9
(g13
S'a|\xb7\xac!c\xd5?'
p8510
tp8511
Rp8512
saaa(lp8513
I8
ag8117
aS'10'
p8514
a(lp8515
(dp8516
S'281'
p8517
g9
(g13
S'B \xf6H\x96\xb0O@'
p8518
tp8519
Rp8520
sS'1783'
p8521
g9
(g13
S'\x9f\xec\x8f5<+N@'
p8522
tp8523
Rp8524
sS'872'
p8525
g9
(g13
S'\xa7\xf3`w5\xd2L@'
p8526
tp8527
Rp8528
sS'2063'
p8529
g9
(g13
S'\x93\xbe\x8c1\xc8\xbeQ@'
p8530
tp8531
Rp8532
sS'41'
p8533
g9
(g13
S'v\x8a\xc3W\x97oK@'
p8534
tp8535
Rp8536
sa(dp8537
S'281'
p8538
g9
(g13
S'<\xbdvz\xb7V\xd7?'
p8539
tp8540
Rp8541
sS'1783'
p8542
g9
(g13
S'\x9f1\xf1\xff\xcd)\xd7?'
p8543
tp8544
Rp8545
sS'872'
p8546
g9
(g13
S'\xf5\x01qHf\xa0\xd6?'
p8547
tp8548
Rp8549
sS'2063'
p8550
g9
(g13
S'\xbbi\x99\\S\xb7\xd8?'
p8551
tp8552
Rp8553
sS'41'
p8554
g9
(g13
S'`]K\xd2\xcb&\xd6?'
p8555
tp8556
Rp8557
saaa(lp8558
I8
ag8117
aS'11'
p8559
a(lp8560
(dp8561
S'281'
p8562
g9
(g13
S'V"\xbe5*=M@'
p8563
tp8564
Rp8565
sS'1783'
p8566
g9
(g13
S'Ujw\x02W1L@'
p8567
tp8568
Rp8569
sS'872'
p8570
g9
(g13
S'\x08\xe5\x10+%\xadJ@'
p8571
tp8572
Rp8573
sS'2063'
p8574
g9
(g13
S'\xf4\xcd\xfb\xb9\xb8OP@'
p8575
tp8576
Rp8577
sS'41'
p8578
g9
(g13
S'/w\x8ce\xa5\xd0I@'
p8579
tp8580
Rp8581
sa(dp8582
S'281'
p8583
g9
(g13
S'\x91\x92\xeb\xc1\xd8+\xd6?'
p8584
tp8585
Rp8586
sS'1783'
p8587
g9
(g13
S'\x08\xf0T@\xa9\x11\xd6?'
p8588
tp8589
Rp8590
sS'872'
p8591
g9
(g13
S'O\x92\x16\xa4\xf1\x06\xd5?'
p8592
tp8593
Rp8594
sS'2063'
p8595
g9
(g13
S'\x9b\xd3W\x00\xec\x94\xd7?'
p8596
tp8597
Rp8598
sS'41'
p8599
g9
(g13
S'\x14\xd1&\xb0\xf5\xbc\xd4?'
p8600
tp8601
Rp8602
saaa(lp8603
I8
ag8117
aS'12'
p8604
a(lp8605
(dp8606
S'281'
p8607
g9
(g13
S'\xcbR\xb9\xef\xef\xebF@'
p8608
tp8609
Rp8610
sS'1783'
p8611
g9
(g13
S'\xdb\xc1O/\xe5XF@'
p8612
tp8613
Rp8614
sS'872'
p8615
g9
(g13
S'\x94\xf3\xd9\xee\x1f\x83E@'
p8616
tp8617
Rp8618
sS'2063'
p8619
g9
(g13
S'&)\xf11\xad#J@'
p8620
tp8621
Rp8622
sS'41'
p8623
g9
(g13
S'\x9b\xad<\x81\xb6NE@'
p8624
tp8625
Rp8626
sa(dp8627
S'281'
p8628
g9
(g13
S'c\x12\xaf\xa8\xd6\x1e\xd4?'
p8629
tp8630
Rp8631
sS'1783'
p8632
g9
(g13
S'\xd0\xe4\x19\x81\x9c\xae\xd3?'
p8633
tp8634
Rp8635
sS'872'
p8636
g9
(g13
S'&0\xbe\xa7\x82n\xd3?'
p8637
tp8638
Rp8639
sS'2063'
p8640
g9
(g13
S'\xc3f\x0eW\xa1v\xd5?'
p8641
tp8642
Rp8643
sS'41'
p8644
g9
(g13
S'\xf46\xafd\xbf~\xd3?'
p8645
tp8646
Rp8647
saaa(lp8648
I8
ag8117
aS'13'
p8649
a(lp8650
(dp8651
S'281'
p8652
g9
(g13
S'((<0\xe5N?@'
p8653
tp8654
Rp8655
sS'1783'
p8656
g9
(g13
S'\x15\xd0\x03x\x05q>@'
p8657
tp8658
Rp8659
sS'872'
p8660
g9
(g13
S'\x96\x03k\xb0\xa4\x9d=@'
p8661
tp8662
Rp8663
sS'2063'
p8664
g9
(g13
S'\xd2\xf0\xc5\x8c\x06\xf3A@'
p8665
tp8666
Rp8667
sS'41'
p8668
g9
(g13
S'\x03\xef\xe1\xb4\x19|>@'
p8669
tp8670
Rp8671
sa(dp8672
S'281'
p8673
g9
(g13
S'\xd7\xf1\x1d*\xe4\x10\xd1?'
p8674
tp8675
Rp8676
sS'1783'
p8677
g9
(g13
S'\xbf(\xcd\x8c\xe8\x12\xd1?'
p8678
tp8679
Rp8680
sS'872'
p8681
g9
(g13
S'\xae\x12Z\x8fF\xb7\xd0?'
p8682
tp8683
Rp8684
sS'2063'
p8685
g9
(g13
S's\xf7B\xcc\xd1}\xd2?'
p8686
tp8687
Rp8688
sS'41'
p8689
g9
(g13
S'\xcdH\xf4wJ\x95\xd1?'
p8690
tp8691
Rp8692
saaa(lp8693
I8
ag8117
aS'14'
p8694
a(lp8695
(dp8696
S'281'
p8697
g9
(g13
S'\x83@hmN+2@'
p8698
tp8699
Rp8700
sS'1783'
p8701
g9
(g13
S'j6\x0f\xe5}t1@'
p8702
tp8703
Rp8704
sS'872'
p8705
g9
(g13
S'\x84\x1c\xee\x8b\x03c1@'
p8706
tp8707
Rp8708
sS'2063'
p8709
g9
(g13
S'\xf4\xd7\x03\x05\xf1\x8c4@'
p8710
tp8711
Rp8712
sS'41'
p8713
g9
(g13
S'\x82\xe0\xf8\xde\x9a\xe32@'
p8714
tp8715
Rp8716
sa(dp8717
S'281'
p8718
g9
(g13
S'\xf1\xf6(\xa7\x04\xab\xca?'
p8719
tp8720
Rp8721
sS'1783'
p8722
g9
(g13
S'\xe1\x8d\x0cag\xb0\xca?'
p8723
tp8724
Rp8725
sS'872'
p8726
g9
(g13
S'Ed\xc6\x8c^!\xc9?'
p8727
tp8728
Rp8729
sS'2063'
p8730
g9
(g13
S'\xb9\x0c\xc8\x0f"D\xcc?'
p8731
tp8732
Rp8733
sS'41'
p8734
g9
(g13
S'\xb7\xf5\xe7\xf0\x86\x8e\xca?'
p8735
tp8736
Rp8737
saaa(lp8738
I8
ag8117
aS'15'
p8739
a(lp8740
(dp8741
S'281'
p8742
g9
(g13
S'\xf89\x81\xd3\xd4#"@'
p8743
tp8744
Rp8745
sS'1783'
p8746
g9
(g13
S'\xd3\x9f\xfb\xba\xb9\xef @'
p8747
tp8748
Rp8749
sS'872'
p8750
g9
(g13
S'\x8e\xb1Y\xaa\x18\x89!@'
p8751
tp8752
Rp8753
sS'2063'
p8754
g9
(g13
S'<\x00|A\x8aq%@'
p8755
tp8756
Rp8757
sS'41'
p8758
g9
(g13
S'\xa5Oh\xf9?2%@'
p8759
tp8760
Rp8761
sa(dp8762
S'281'
p8763
g9
(g13
S'T<\x8c\x01<Z\xc3?'
p8764
tp8765
Rp8766
sS'1783'
p8767
g9
(g13
S'\xc2Y\xe0\x99\x96\x8f\xc3?'
p8768
tp8769
Rp8770
sS'872'
p8771
g9
(g13
S'\xed\xf9\xab;\xe6\xec\xc2?'
p8772
tp8773
Rp8774
sS'2063'
p8775
g9
(g13
S' \xba\xb5\xcd\xceH\xc5?'
p8776
tp8777
Rp8778
sS'41'
p8779
g9
(g13
S'\x9c\xfa\xf5\xae\xdf\xd0\xc4?'
p8780
tp8781
Rp8782
saaa(lp8783
I8
ag8117
aS'16'
p8784
a(lp8785
(dp8786
S'281'
p8787
g9
(g13
S'c\xb8\xbb\xdd\xb8^\x10@'
p8788
tp8789
Rp8790
sS'1783'
p8791
g9
(g13
S'\x13\xaa\xe7N\xce\xe8\x0c@'
p8792
tp8793
Rp8794
sS'872'
p8795
g9
(g13
S'\xc97\x9b\xbd\x00\x83\x0f@'
p8796
tp8797
Rp8798
sS'2063'
p8799
g9
(g13
S'd i\x90\x98\x13\x13@'
p8800
tp8801
Rp8802
sS'41'
p8803
g9
(g13
S'\rO\x9a\xbap9\x15@'
p8804
tp8805
Rp8806
sa(dp8807
S'281'
p8808
g9
(g13
S'\xaf\x9a\xea\x15Bz\xbb?'
p8809
tp8810
Rp8811
sS'1783'
p8812
g9
(g13
S'l)\xce\xc3\xf3\x1f\xb7?'
p8813
tp8814
Rp8815
sS'872'
p8816
g9
(g13
S'\xb9\x9cR\xb2\xdc\xe5\xba?'
p8817
tp8818
Rp8819
sS'2063'
p8820
g9
(g13
S'_\xb0\xb8\xfb\xc5g\xbf?'
p8821
tp8822
Rp8823
sS'41'
p8824
g9
(g13
S'\x15&u\x16\x1a\xdd\xbf?'
p8825
tp8826
Rp8827
saaa(lp8828
I8
ag8117
aS'17'
p8829
a(lp8830
(dp8831
S'281'
p8832
g9
(g13
S'\xfd&\xb16\x9a\xf6\xf9?'
p8833
tp8834
Rp8835
sS'1783'
p8836
g9
(g13
S'\xcd\x1c\x04>\xb7\xaf\xfc?'
p8837
tp8838
Rp8839
sS'872'
p8840
g9
(g13
S'\xd7{,\xc5\xe8\x0e\xfa?'
p8841
tp8842
Rp8843
sS'2063'
p8844
g9
(g13
S'e\x99\xea\xaf5B\x01@'
p8845
tp8846
Rp8847
sS'41'
p8848
g9
(g13
S'\xb4\x0f\xaf\xc8\xbd\xa4\x04@'
p8849
tp8850
Rp8851
sa(dp8852
S'281'
p8853
g9
(g13
S'z\xc7O\xc9o\xa9\xb0?'
p8854
tp8855
Rp8856
sS'1783'
p8857
g9
(g13
S'\x07\xaa\x15$\xaf\x1b\xb6?'
p8858
tp8859
Rp8860
sS'872'
p8861
g9
(g13
S'At\xaf\xf1\x1a\xb4\xaf?'
p8862
tp8863
Rp8864
sS'2063'
p8865
g9
(g13
S'7;\xf9\xfa\x1d\x8b\xb7?'
p8866
tp8867
Rp8868
sS'41'
p8869
g9
(g13
S'\xd0\x18r{]\xa3\xb9?'
p8870
tp8871
Rp8872
saaa(lp8873
I8
ag8117
aS'18'
p8874
a(lp8875
(dp8876
S'281'
p8877
g9
(g13
S'\xcf3b\n\x0c\xd2\xef?'
p8878
tp8879
Rp8880
sS'1783'
p8881
g9
(g13
S'b\xe6>wr\xb0\xea?'
p8882
tp8883
Rp8884
sS'872'
p8885
g9
(g13
S']\xbaM\x1f\x81\x7f\xe6?'
p8886
tp8887
Rp8888
sS'2063'
p8889
g9
(g13
S'H\x9c\x8a\x04\xef\xc4\xf1?'
p8890
tp8891
Rp8892
sS'41'
p8893
g9
(g13
S'\x90a\xd42\xb6\xf0\xf3?'
p8894
tp8895
Rp8896
sa(dp8897
S'281'
p8898
g9
(g13
S'G\x97\xef\xc7\xb5\x98\xb7?'
p8899
tp8900
Rp8901
sS'1783'
p8902
g9
(g13
S'\xad\xe1\xbd\x89f\x00\xb4?'
p8903
tp8904
Rp8905
sS'872'
p8906
g9
(g13
S't\xa5\x11\x82L\x08\xa9?'
p8907
tp8908
Rp8909
sS'2063'
p8910
g9
(g13
S'\xa6\xefmSx\xc1\xba?'
p8911
tp8912
Rp8913
sS'41'
p8914
g9
(g13
S'\xb8\xc5p\x11\x01\xed\xb4?'
p8915
tp8916
Rp8917
saaa(lp8918
I8
ag8117
aS'19'
p8919
a(lp8920
(dp8921
S'281'
p8922
g9
(g13
S'\x0f\xfec\xe2t|\xde?'
p8923
tp8924
Rp8925
sS'1783'
p8926
g9
(g13
S'\xc0\xb7\n\xe2\x0fR\xe1?'
p8927
tp8928
Rp8929
sS'872'
p8930
g9
(g13
S'}#\xf4\xda\xac\xef\xe0?'
p8931
tp8932
Rp8933
sS'2063'
p8934
g9
(g13
S's\xad\xd5\xbb"\xad\xe9?'
p8935
tp8936
Rp8937
sS'41'
p8938
g9
(g13
S'\x06\xb4[\xd1\x90\xb5\xe2?'
p8939
tp8940
Rp8941
sa(dp8942
S'281'
p8943
g9
(g13
S'\xffc5z\xc7\x9c\xa4?'
p8944
tp8945
Rp8946
sS'1783'
p8947
g9
(g13
S'2\xccn\x1e\xb0\xac\xad?'
p8948
tp8949
Rp8950
sS'872'
p8951
g9
(g13
S'2\x07\xf0\xda4\xad\xb0?'
p8952
tp8953
Rp8954
sS'2063'
p8955
g9
(g13
S'`_\x8c\xbe\x87\xb0\xbb?'
p8956
tp8957
Rp8958
sS'41'
p8959
g9
(g13
S'\x8a\x16d\x82\xee\xa2\xa7?'
p8960
tp8961
Rp8962
saaasS'Scan_9'
p8963
(lp8964
(lp8965
I9
aVX3
p8966
ag5
a(lp8967
(dp8968
S'281'
p8969
g9
(g13
S'\x92\xd23\x88/\xf9\xd6?'
p8970
tp8971
Rp8972
sS'1783'
p8973
g9
(g13
S'\xa3\x96\xbc\x19H5\xd6?'
p8974
tp8975
Rp8976
sS'872'
p8977
g9
(g13
S'\x1eD\xee\xbb\x13\xee\xe3?'
p8978
tp8979
Rp8980
sS'2063'
p8981
g9
(g13
S'IL2G\x88\xe2\xdc?'
p8982
tp8983
Rp8984
sS'41'
p8985
g9
(g13
S'\xb7\xdd\x83/\xfe\xa3\xd6?'
p8986
tp8987
Rp8988
sa(dp8989
S'281'
p8990
g9
(g13
S'w\x82\xf1\xb0\xe1]\xaa?'
p8991
tp8992
Rp8993
sS'1783'
p8994
g9
(g13
S'\x85Q\x88\xe8\x9b\x87\xa8?'
p8995
tp8996
Rp8997
sS'872'
p8998
g9
(g13
S'\x8d\x96K\xe6\x80/\xba?'
p8999
tp9000
Rp9001
sS'2063'
p9002
g9
(g13
S'\x1f\xfb\x7f\xca(\x99\xac?'
p9003
tp9004
Rp9005
sS'41'
p9006
g9
(g13
S'q/\xd31\xa2\xf6\xa2?'
p9007
tp9008
Rp9009
saaa(lp9010
I9
ag8966
ag57
a(lp9011
(dp9012
S'281'
p9013
g9
(g13
S'\xac,\x90\xe8by\xe0?'
p9014
tp9015
Rp9016
sS'1783'
p9017
g9
(g13
S'l\xdf\x11\x18\xe0\xbd\xd5?'
p9018
tp9019
Rp9020
sS'872'
p9021
g9
(g13
S'\x89\xf1\xf1\xf8!\xa6\xd7?'
p9022
tp9023
Rp9024
sS'2063'
p9025
g9
(g13
S'\x8a\x8c(\xca\xda\xe5\xdb?'
p9026
tp9027
Rp9028
sS'41'
p9029
g9
(g13
S'\x87\xe5?D\x0b\xf4\xe2?'
p9030
tp9031
Rp9032
sa(dp9033
S'281'
p9034
g9
(g13
S'\xf7\xe0^\xfd\x19J\xba?'
p9035
tp9036
Rp9037
sS'1783'
p9038
g9
(g13
S'\x83o\xf6s\xa6Z\xaf?'
p9039
tp9040
Rp9041
sS'872'
p9042
g9
(g13
S'\xe6wt\xa1\x897\xab?'
p9043
tp9044
Rp9045
sS'2063'
p9046
g9
(g13
S'oS2Z\xd8Z\xb0?'
p9047
tp9048
Rp9049
sS'41'
p9050
g9
(g13
S'\xe7\xd9\x0c\xf0\x8f\xa0\xb5?'
p9051
tp9052
Rp9053
saaa(lp9054
I9
ag8966
ag102
a(lp9055
(dp9056
S'281'
p9057
g9
(g13
S'C\xdd\x82\n\x08\xa1\xe8?'
p9058
tp9059
Rp9060
sS'1783'
p9061
g9
(g13
S'\x9a\xdf\x1c\x84\x19\xc8\xdb?'
p9062
tp9063
Rp9064
sS'872'
p9065
g9
(g13
S'\xa1?5_\xcb6\xe5?'
p9066
tp9067
Rp9068
sS'2063'
p9069
g9
(g13
S'\x03\xc6@\xe0\n+\xe0?'
p9070
tp9071
Rp9072
sS'41'
p9073
g9
(g13
S'\xb8\x85p\x8dnv\xe2?'
p9074
tp9075
Rp9076
sa(dp9077
S'281'
p9078
g9
(g13
S'\x89\xe4A\xf3\x01u\xc2?'
p9079
tp9080
Rp9081
sS'1783'
p9082
g9
(g13
S'\xbc\xb8\xa2o\xb3N\xb0?'
p9083
tp9084
Rp9085
sS'872'
p9086
g9
(g13
S'\xc4=t\xe4\xe1\x8e\xbc?'
p9087
tp9088
Rp9089
sS'2063'
p9090
g9
(g13
S'\x97\xd9\x00\t#7\xb1?'
p9091
tp9092
Rp9093
sS'41'
p9094
g9
(g13
S's\x1c\xb0\xe8D\x01\xba?'
p9095
tp9096
Rp9097
saaa(lp9098
I9
ag8966
ag147
a(lp9099
(dp9100
S'281'
p9101
g9
(g13
S'\x18\xff\xde\xf5\xbcM\xe5?'
p9102
tp9103
Rp9104
sS'1783'
p9105
g9
(g13
S'\xafy\x82CQ\xfa\xe8?'
p9106
tp9107
Rp9108
sS'872'
p9109
g9
(g13
S'n\xce\xb6\xd0O[\xe7?'
p9110
tp9111
Rp9112
sS'2063'
p9113
g9
(g13
S'T\xc9\x9ajC8\xe6?'
p9114
tp9115
Rp9116
sS'41'
p9117
g9
(g13
S'y\\v\xf9\xbc\xda\xe8?'
p9118
tp9119
Rp9120
sa(dp9121
S'281'
p9122
g9
(g13
S'\xac\xb7v\xf1\xf2\x17\xb3?'
p9123
tp9124
Rp9125
sS'1783'
p9126
g9
(g13
S'\xf8\x86\xdf\xddj\\\xb5?'
p9127
tp9128
Rp9129
sS'872'
p9130
g9
(g13
S'O\x05h\xb3\x1c\xaf\xb3?'
p9131
tp9132
Rp9133
sS'2063'
p9134
g9
(g13
S'\xf6\x92\x8c\xb1\xad\x8b\xb1?'
p9135
tp9136
Rp9137
sS'41'
p9138
g9
(g13
S'\x17"\xff,\x04z\xb6?'
p9139
tp9140
Rp9141
saaa(lp9142
I9
ag8966
ag192
a(lp9143
(dp9144
S'281'
p9145
g9
(g13
S'G\x8brzH\x98\xf2?'
p9146
tp9147
Rp9148
sS'1783'
p9149
g9
(g13
S'#d\xff\xeb\xc4G\xf2?'
p9150
tp9151
Rp9152
sS'872'
p9153
g9
(g13
S'\t5V\x8e\x1b\x10\xf2?'
p9154
tp9155
Rp9156
sS'2063'
p9157
g9
(g13
S'\xbdE\xa0h8\xa2\xf5?'
p9158
tp9159
Rp9160
sS'41'
p9161
g9
(g13
S'=\x8f\xe6V-D\xf4?'
p9162
tp9163
Rp9164
sa(dp9165
S'281'
p9166
g9
(g13
S'\xf8\xf6\\\xebi\x9c\xb2?'
p9167
tp9168
Rp9169
sS'1783'
p9170
g9
(g13
S'\x7fF\x92\xdf\x15U\xb4?'
p9171
tp9172
Rp9173
sS'872'
p9174
g9
(g13
S'\xb4\\^\x96\\\\\xb9?'
p9175
tp9176
Rp9177
sS'2063'
p9178
g9
(g13
S'O\xcb\xd6\x86q\xb4\xb9?'
p9179
tp9180
Rp9181
sS'41'
p9182
g9
(g13
S'\xd6\xcf\xf7\xb5\xc2\xfc\xb1?'
p9183
tp9184
Rp9185
saaa(lp9186
I9
ag8966
ag237
a(lp9187
(dp9188
S'281'
p9189
g9
(g13
S'3\xf2 \xcaF_\x02@'
p9190
tp9191
Rp9192
sS'1783'
p9193
g9
(g13
S'\xfcJ\xeeX4\xd1\x02@'
p9194
tp9195
Rp9196
sS'872'
p9197
g9
(g13
S'%\x1d>\xb6\xfc\x9d\x02@'
p9198
tp9199
Rp9200
sS'2063'
p9201
g9
(g13
S'z \x85,*P\x05@'
p9202
tp9203
Rp9204
sS'41'
p9205
g9
(g13
S'e\xd4\xe2\xbf\x8d/\x07@'
p9206
tp9207
Rp9208
sa(dp9209
S'281'
p9210
g9
(g13
S'\xb7\x13\xba\xcf \xa1\xb6?'
p9211
tp9212
Rp9213
sS'1783'
p9214
g9
(g13
S'^\xca3\xa2o\xe5\xbb?'
p9215
tp9216
Rp9217
sS'872'
p9218
g9
(g13
S'\x0c\xed\xab%\x9e\x81\xb9?'
p9219
tp9220
Rp9221
sS'2063'
p9222
g9
(g13
S'\xb9\xb3G\xdd,\xf8\xbd?'
p9223
tp9224
Rp9225
sS'41'
p9226
g9
(g13
S'/\xf8\xf2\xf8\xac\xe6\xc0?'
p9227
tp9228
Rp9229
saaa(lp9230
I9
ag8966
ag282
a(lp9231
(dp9232
S'281'
p9233
g9
(g13
S"V\xa1'm\x1c:\x16@"
p9234
tp9235
Rp9236
sS'1783'
p9237
g9
(g13
S'\xe3 ?\xee\xef]\x15@'
p9238
tp9239
Rp9240
sS'872'
p9241
g9
(g13
S'uv\x85\x9f\x08\x1b\x16@'
p9242
tp9243
Rp9244
sS'2063'
p9245
g9
(g13
S'3\xfe|9u\x86\x19@'
p9246
tp9247
Rp9248
sS'41'
p9249
g9
(g13
S'j%\xb2\xdb:\xc2\x17@'
p9250
tp9251
Rp9252
sa(dp9253
S'281'
p9254
g9
(g13
S'\xaei\xc7\xa98\xe7\xc1?'
p9255
tp9256
Rp9257
sS'1783'
p9258
g9
(g13
S'\xea\x8c\x0esZ4\xc2?'
p9259
tp9260
Rp9261
sS'872'
p9262
g9
(g13
S"U\xbb'\xb1\xe0\x19\xc1?"
p9263
tp9264
Rp9265
sS'2063'
p9266
g9
(g13
S'\xd5\xacqYan\xc3?'
p9267
tp9268
Rp9269
sS'41'
p9270
g9
(g13
S'5\xdc\x9b\xe8i$\xc3?'
p9271
tp9272
Rp9273
saaa(lp9274
I9
ag8966
ag327
a(lp9275
(dp9276
S'281'
p9277
g9
(g13
S"\xf8\x87\xc3\xc5\xea\xd7'@"
p9278
tp9279
Rp9280
sS'1783'
p9281
g9
(g13
S'\xc7}\xd6\xd9\xbf\xf4$@'
p9282
tp9283
Rp9284
sS'872'
p9285
g9
(g13
S'QO\x05,\xddi%@'
p9286
tp9287
Rp9288
sS'2063'
p9289
g9
(g13
S"\x8c\xc2u'\x19\xe2(@"
p9290
tp9291
Rp9292
sS'41'
p9293
g9
(g13
S'`\xa5\xd7\xcb\x95(&@'
p9294
tp9295
Rp9296
sa(dp9297
S'281'
p9298
g9
(g13
S'\x08B-\x8a\xfe\xcc\xca?'
p9299
tp9300
Rp9301
sS'1783'
p9302
g9
(g13
S'\xb7?;\x1f#B\xc6?'
p9303
tp9304
Rp9305
sS'872'
p9306
g9
(g13
S'j\xb2\xf4@\xa7\xdb\xc9?'
p9307
tp9308
Rp9309
sS'2063'
p9310
g9
(g13
S'x\xdb\xa9l.\xe5\xc9?'
p9311
tp9312
Rp9313
sS'41'
p9314
g9
(g13
S'\x8f\x8c\xb7\xdc \xf0\xc7?'
p9315
tp9316
Rp9317
saaa(lp9318
I9
ag8966
ag372
a(lp9319
(dp9320
S'281'
p9321
g9
(g13
S'\x11\xb4\xca\x8b\xa4N5@'
p9322
tp9323
Rp9324
sS'1783'
p9325
g9
(g13
S'\xa0\xc2#\xb2\xe6b4@'
p9326
tp9327
Rp9328
sS'872'
p9329
g9
(g13
S'\x03n\xcf>K=4@'
p9330
tp9331
Rp9332
sS'2063'
p9333
g9
(g13
S'4\xf8\x16\xdc_\x058@'
p9334
tp9335
Rp9336
sS'41'
p9337
g9
(g13
S'\xe2b\x7f\xf2\xd6\xf83@'
p9338
tp9339
Rp9340
sa(dp9341
S'281'
p9342
g9
(g13
S'%\x82\xdf\xb4~9\xd0?'
p9343
tp9344
Rp9345
sS'1783'
p9346
g9
(g13
S'\x9b\xed\xbc\xd3\xc0\xa7\xcf?'
p9347
tp9348
Rp9349
sS'872'
p9350
g9
(g13
S'\x1c\xff!\xb2\xd8\x13\xcf?'
p9351
tp9352
Rp9353
sS'2063'
p9354
g9
(g13
S'\xd4@\x8el\x03\x90\xd1?'
p9355
tp9356
Rp9357
sS'41'
p9358
g9
(g13
S'\x01\xc2\x8f\xc6&1\xd1?'
p9359
tp9360
Rp9361
saaa(lp9362
I9
ag8966
aS'10'
p9363
a(lp9364
(dp9365
S'281'
p9366
g9
(g13
S'\\\xef\t$\xe7aA@'
p9367
tp9368
Rp9369
sS'1783'
p9370
g9
(g13
S'\xf5\xf8\xc9J\x8e_@@'
p9371
tp9372
Rp9373
sS'872'
p9374
g9
(g13
S'\xd9*b\x0f\x8a\xdd?@'
p9375
tp9376
Rp9377
sS'2063'
p9378
g9
(g13
S'.@Z\x8a\xe0\x97C@'
p9379
tp9380
Rp9381
sS'41'
p9382
g9
(g13
S'~\xec\xaa\xb8\xde\xb5?@'
p9383
tp9384
Rp9385
sa(dp9386
S'281'
p9387
g9
(g13
S'\n\x8a\xd5\x13\xea\xf6\xd4?'
p9388
tp9389
Rp9390
sS'1783'
p9391
g9
(g13
S'Nu\xf6\xb37\xe5\xd3?'
p9392
tp9393
Rp9394
sS'872'
p9395
g9
(g13
S'\xac\x06^C\xaaW\xd4?'
p9396
tp9397
Rp9398
sS'2063'
p9399
g9
(g13
S'\xc5\xf1\x15\xd9\xc5\xb0\xd5?'
p9400
tp9401
Rp9402
sS'41'
p9403
g9
(g13
S'\xe8\x8d\x17\x08\xe1\xe7\xd3?'
p9404
tp9405
Rp9406
saaa(lp9407
I9
ag8966
aS'11'
p9408
a(lp9409
(dp9410
S'281'
p9411
g9
(g13
S'}\xef\xa5\x93lAH@'
p9412
tp9413
Rp9414
sS'1783'
p9415
g9
(g13
S'\xbel\xbeF\xfc\x05G@'
p9416
tp9417
Rp9418
sS'872'
p9419
g9
(g13
S'\xfd"\x81!\xd1RF@'
p9420
tp9421
Rp9422
sS'2063'
p9423
g9
(g13
S'\x15F\x17\x16kfK@'
p9424
tp9425
Rp9426
sS'41'
p9427
g9
(g13
S'\xc3\xe3\xa0$w\xa9E@'
p9428
tp9429
Rp9430
sa(dp9431
S'281'
p9432
g9
(g13
S'\xf7\xb9\xbc\x89Dy\xd8?'
p9433
tp9434
Rp9435
sS'1783'
p9436
g9
(g13
S'\xa6\xd8\xa4\xa4\xfe\xf1\xd7?'
p9437
tp9438
Rp9439
sS'872'
p9440
g9
(g13
S'{\x7f\xdbU\xe9\xc1\xd7?'
p9441
tp9442
Rp9443
sS'2063'
p9444
g9
(g13
S'\xcem\x1f\x8e\x9eY\xda?'
p9445
tp9446
Rp9447
sS'41'
p9448
g9
(g13
S'\x84\x0e\x93\r\xb0{\xd7?'
p9449
tp9450
Rp9451
saaa(lp9452
I9
ag8966
aS'12'
p9453
a(lp9454
(dp9455
S'281'
p9456
g9
(g13
S'\x7f\x9e\x17\xca\\uM@'
p9457
tp9458
Rp9459
sS'1783'
p9460
g9
(g13
S'\x94!\xa0\xe3KpL@'
p9461
tp9462
Rp9463
sS'872'
p9464
g9
(g13
S'\x89=\x80G\xb9\x17K@'
p9465
tp9466
Rp9467
sS'2063'
p9468
g9
(g13
S'?\xf5\xffw\x04\xa3P@'
p9469
tp9470
Rp9471
sS'41'
p9472
g9
(g13
S'9\x08\x95\x88y\xfcI@'
p9473
tp9474
Rp9475
sa(dp9476
S'281'
p9477
g9
(g13
S'\xe81\x9bEf7\xda?'
p9478
tp9479
Rp9480
sS'1783'
p9481
g9
(g13
S'\xc1f.])\x03\xda?'
p9482
tp9483
Rp9484
sS'872'
p9485
g9
(g13
S'\xc2\xc5Y\x94\xda)\xd9?'
p9486
tp9487
Rp9488
sS'2063'
p9489
g9
(g13
S'\xee\xd1O\x89\xc4\xa6\xdb?'
p9490
tp9491
Rp9492
sS'41'
p9493
g9
(g13
S'\xcf\xa8I\xd6S\x9d\xd8?'
p9494
tp9495
Rp9496
saaa(lp9497
I9
ag8966
aS'13'
p9498
a(lp9499
(dp9500
S'281'
p9501
g9
(g13
S'kY[&\xd9\x82O@'
p9502
tp9503
Rp9504
sS'1783'
p9505
g9
(g13
S'\x98P\xe4N]MN@'
p9506
tp9507
Rp9508
sS'872'
p9509
g9
(g13
S'\x0c2\x0c\x86\xaaoM@'
p9510
tp9511
Rp9512
sS'2063'
p9513
g9
(g13
S'\xbeef\xf5\xdf\xe1Q@'
p9514
tp9515
Rp9516
sS'41'
p9517
g9
(g13
S'\x06\xb3\x0c\x9fZ\x07L@'
p9518
tp9519
Rp9520
sa(dp9521
S'281'
p9522
g9
(g13
S'\x13VA\xc8G\x9c\xda?'
p9523
tp9524
Rp9525
sS'1783'
p9526
g9
(g13
S'\xf1\xcf\x11\xa8KP\xda?'
p9527
tp9528
Rp9529
sS'872'
p9530
g9
(g13
S'\x04`Gp\x90z\xd9?'
p9531
tp9532
Rp9533
sS'2063'
p9534
g9
(g13
S'\xda\t\xff--\x18\xdc?'
p9535
tp9536
Rp9537
sS'41'
p9538
g9
(g13
S'\x8f\x9a\x1a\xbd6\xf8\xd8?'
p9539
tp9540
Rp9541
saaa(lp9542
I9
ag8966
aS'14'
p9543
a(lp9544
(dp9545
S'281'
p9546
g9
(g13
S'\xb5\x11!"o\xebM@'
p9547
tp9548
Rp9549
sS'1783'
p9550
g9
(g13
S'\x8d\xa3_\xf3\xa2\x03M@'
p9551
tp9552
Rp9553
sS'872'
p9554
g9
(g13
S'\xf2\xae\x1e\xdaZ\xa3K@'
p9555
tp9556
Rp9557
sS'2063'
p9558
g9
(g13
S'\xd4\x84\xd0\xb4\x05\xf8P@'
p9559
tp9560
Rp9561
sS'41'
p9562
g9
(g13
S'\x0be\x1b\xa3BqJ@'
p9563
tp9564
Rp9565
sa(dp9566
S'281'
p9567
g9
(g13
S'\xc4j\xc5\x06\x93\x8b\xda?'
p9568
tp9569
Rp9570
sS'1783'
p9571
g9
(g13
S'\xda\xb89\\\xf8\xac\xda?'
p9572
tp9573
Rp9574
sS'872'
p9575
g9
(g13
S'H>\xdfHp\x03\xda?'
p9576
tp9577
Rp9578
sS'2063'
p9579
g9
(g13
S'\xaf\xa3\xa5\xd5YU\xdc?'
p9580
tp9581
Rp9582
sS'41'
p9583
g9
(g13
S'J\x07d\xe1\xe9\x08\xd9?'
p9584
tp9585
Rp9586
saaa(lp9587
I9
ag8966
aS'15'
p9588
a(lp9589
(dp9590
S'281'
p9591
g9
(g13
S'4\x17\x0fo$\xe4H@'
p9592
tp9593
Rp9594
sS'1783'
p9595
g9
(g13
S'\x16%\x9f\x8a\x89DH@'
p9596
tp9597
Rp9598
sS'872'
p9599
g9
(g13
S'\xf4\xed\xa3WZ\x1aG@'
p9600
tp9601
Rp9602
sS'2063'
p9603
g9
(g13
S'\x0f\xdf\xca~\n\x05L@'
p9604
tp9605
Rp9606
sS'41'
p9607
g9
(g13
S'\xefn"\xf1\xa9)F@'
p9608
tp9609
Rp9610
sa(dp9611
S'281'
p9612
g9
(g13
S'M\xa1\xdb\xc0K\x1c\xd9?'
p9613
tp9614
Rp9615
sS'1783'
p9616
g9
(g13
S'}s\x95\xfa2\x04\xd9?'
p9617
tp9618
Rp9619
sS'872'
p9620
g9
(g13
S'\x1c\x97\x86\xf3\xe1M\xd8?'
p9621
tp9622
Rp9623
sS'2063'
p9624
g9
(g13
S'W\xee\x0e\x89\x8fP\xda?'
p9625
tp9626
Rp9627
sS'41'
p9628
g9
(g13
S'\x1d\xd5\x85\x8fX\x9b\xd7?'
p9629
tp9630
Rp9631
saaa(lp9632
I9
ag8966
aS'16'
p9633
a(lp9634
(dp9635
S'281'
p9636
g9
(g13
S'\xa8\xc2YK\x12\x1dB@'
p9637
tp9638
Rp9639
sS'1783'
p9640
g9
(g13
S'mS4\xae\x86:A@'
p9641
tp9642
Rp9643
sS'872'
p9644
g9
(g13
S'\xdeUY\x91\xf7\xb6@@'
p9645
tp9646
Rp9647
sS'2063'
p9648
g9
(g13
S'\x11\\(\x83\x0enD@'
p9649
tp9650
Rp9651
sS'41'
p9652
g9
(g13
S'\xa3\xb7\xa3\x18\xdch@@'
p9653
tp9654
Rp9655
sa(dp9656
S'281'
p9657
g9
(g13
S'$\xd2\x10)\x94\xeb\xd4?'
p9658
tp9659
Rp9660
sS'1783'
p9661
g9
(g13
S't\xa8\xbeG\xc4\x1a\xd4?'
p9662
tp9663
Rp9664
sS'872'
p9665
g9
(g13
S']\xe9\x99A\n\xfe\xd3?'
p9666
tp9667
Rp9668
sS'2063'
p9669
g9
(g13
S'\xc9{\x0b\xea\x12[\xd6?'
p9670
tp9671
Rp9672
sS'41'
p9673
g9
(g13
S'SP\xfd\xa3\xeed\xd3?'
p9674
tp9675
Rp9676
saaa(lp9677
I9
ag8966
aS'17'
p9678
a(lp9679
(dp9680
S'281'
p9681
g9
(g13
S'\xce\xa9_\x97Q\xbf6@'
p9682
tp9683
Rp9684
sS'1783'
p9685
g9
(g13
S'\x7f\x9c\x95\xdc\x84\xd05@'
p9686
tp9687
Rp9688
sS'872'
p9689
g9
(g13
S"\\\xbf\na\xc7'5@"
p9690
tp9691
Rp9692
sS'2063'
p9693
g9
(g13
S'\x02\x17.\xb3oH9@'
p9694
tp9695
Rp9696
sS'41'
p9697
g9
(g13
S']e\x89H"\xad4@'
p9698
tp9699
Rp9700
sa(dp9701
S'281'
p9702
g9
(g13
S'\xd1chN\xbbg\xd0?'
p9703
tp9704
Rp9705
sS'1783'
p9706
g9
(g13
S'|\x87\xbc\xc1\x12\xcc\xd0?'
p9707
tp9708
Rp9709
sS'872'
p9710
g9
(g13
S'0]\xe8@R\x86\xd0?'
p9711
tp9712
Rp9713
sS'2063'
p9714
g9
(g13
S'\xad\xa9\x17\t\x1ax\xd1?'
p9715
tp9716
Rp9717
sS'41'
p9718
g9
(g13
S'\xbe\x1c\xde\xd0q\xcd\xce?'
p9719
tp9720
Rp9721
saaa(lp9722
I9
ag8966
aS'18'
p9723
a(lp9724
(dp9725
S'281'
p9726
g9
(g13
S'\xf3\x04v\x0f\x8d\xc0)@'
p9727
tp9728
Rp9729
sS'1783'
p9730
g9
(g13
S'\xfc\xec\xac\xba4s(@'
p9731
tp9732
Rp9733
sS'872'
p9734
g9
(g13
S"\xbbv\x82\x8f\x93\xeb'@"
p9735
tp9736
Rp9737
sS'2063'
p9738
g9
(g13
S'7G\xb0C\xb9L,@'
p9739
tp9740
Rp9741
sS'41'
p9742
g9
(g13
S'\xd6\x96\xfd\xac\x89W(@'
p9743
tp9744
Rp9745
sa(dp9746
S'281'
p9747
g9
(g13
S'\xcfN:\xfexS\xcc?'
p9748
tp9749
Rp9750
sS'1783'
p9751
g9
(g13
S'\xebV$\xda\xb1\x05\xcc?'
p9752
tp9753
Rp9754
sS'872'
p9755
g9
(g13
S'&\xb4!\xc0rT\xc9?'
p9756
tp9757
Rp9758
sS'2063'
p9759
g9
(g13
S"\xf6\x19(':U\xcb?"
p9760
tp9761
Rp9762
sS'41'
p9763
g9
(g13
S'\x06\x17\xc4qN\x1b\xc8?'
p9764
tp9765
Rp9766
saaa(lp9767
I9
ag8966
aS'19'
p9768
a(lp9769
(dp9770
S'281'
p9771
g9
(g13
S"\xe1'\xa4'\x80\x11\x19@"
p9772
tp9773
Rp9774
sS'1783'
p9775
g9
(g13
S'\xa1\xc1\xfd\xf2r.\x17@'
p9776
tp9777
Rp9778
sS'872'
p9779
g9
(g13
S'\xce\x89`\xa3\x1f\xe6\x16@'
p9780
tp9781
Rp9782
sS'2063'
p9783
g9
(g13
S'\xd2\xa3Li(\x9b\x1b@'
p9784
tp9785
Rp9786
sS'41'
p9787
g9
(g13
S'\x1c\xc99\xea\x0b\x9b\x19@'
p9788
tp9789
Rp9790
sa(dp9791
S'281'
p9792
g9
(g13
S'*\xf3r\xc6\xf5\x80\xc4?'
p9793
tp9794
Rp9795
sS'1783'
p9796
g9
(g13
S'\x13L\t\xe0x\x00\xc5?'
p9797
tp9798
Rp9799
sS'872'
p9800
g9
(g13
S'O\xbc\xda\x12m\xdf\xc1?'
p9801
tp9802
Rp9803
sS'2063'
p9804
g9
(g13
S'\x18\xc0Zr\x06\xc2\xc4?'
p9805
tp9806
Rp9807
sS'41'
p9808
g9
(g13
S'\xb6\x1a\x0b!r\x94\xc4?'
p9809
tp9810
Rp9811
saaa(lp9812
I9
ag8966
aS'20'
p9813
a(lp9814
(dp9815
S'281'
p9816
g9
(g13
S'\xbc\xb7\x12\x94\xc7l\x06@'
p9817
tp9818
Rp9819
sS'1783'
p9820
g9
(g13
S'\xe0\xe9\x82\x9d\xb7\xcf\x04@'
p9821
tp9822
Rp9823
sS'872'
p9824
g9
(g13
S'%3\x1f!W\xd3\x03@'
p9825
tp9826
Rp9827
sS'2063'
p9828
g9
(g13
S'\x1bD\x9e\x955\xf3\x08@'
p9829
tp9830
Rp9831
sS'41'
p9832
g9
(g13
S'a8\xea\xcd\x9c\x1d\x08@'
p9833
tp9834
Rp9835
sa(dp9836
S'281'
p9837
g9
(g13
S'\xbc\xcd\xaf\xbf\x94\xd1\xbe?'
p9838
tp9839
Rp9840
sS'1783'
p9841
g9
(g13
S'\xab\n\xe2\xee\x1e\x92\xbd?'
p9842
tp9843
Rp9844
sS'872'
p9845
g9
(g13
S'\xd4\x08x\x993J\xba?'
p9846
tp9847
Rp9848
sS'2063'
p9849
g9
(g13
S'\xdclA\xe9\xd7\xb9\xbf?'
p9850
tp9851
Rp9852
sS'41'
p9853
g9
(g13
S'\x86$\x7fY\xbb\xa5\xbd?'
p9854
tp9855
Rp9856
saaa(lp9857
I9
ag8966
aS'21'
p9858
a(lp9859
(dp9860
S'281'
p9861
g9
(g13
S'!\x12\xc0"\xf0\x97\xf5?'
p9862
tp9863
Rp9864
sS'1783'
p9865
g9
(g13
S'\xef\x06\xef\x14\x0b\x10\xf4?'
p9866
tp9867
Rp9868
sS'872'
p9869
g9
(g13
S'/U$\xe4<\x11\xf4?'
p9870
tp9871
Rp9872
sS'2063'
p9873
g9
(g13
S';(7Q\x8e\x99\xf5?'
p9874
tp9875
Rp9876
sS'41'
p9877
g9
(g13
S'\xf7\xde\xf9\xd6\xb4)\xf7?'
p9878
tp9879
Rp9880
sa(dp9881
S'281'
p9882
g9
(g13
S'\x18\x17\xe7\xbc\xbd\xf6\xb8?'
p9883
tp9884
Rp9885
sS'1783'
p9886
g9
(g13
S'\xd98\x17\xffDB\xb7?'
p9887
tp9888
Rp9889
sS'872'
p9890
g9
(g13
S'\x8d\x82\xcc\xa6\xcd\xa2\xb8?'
p9891
tp9892
Rp9893
sS'2063'
p9894
g9
(g13
S'\xb1\xfe?\xd3\x9a\x18\xb7?'
p9895
tp9896
Rp9897
sS'41'
p9898
g9
(g13
S'\x0c\x15\x16\xb3fc\xb7?'
p9899
tp9900
Rp9901
saaa(lp9902
I9
ag8966
aS'22'
p9903
a(lp9904
(dp9905
S'281'
p9906
g9
(g13
S'\xc1\xd7\x1b\xebNG\xe7?'
p9907
tp9908
Rp9909
sS'1783'
p9910
g9
(g13
S'\xdd\xd7\x10\xe8\x92\xd2\xe6?'
p9911
tp9912
Rp9913
sS'872'
p9914
g9
(g13
S'#\xee\xad\xa2\xb1\xad\xe6?'
p9915
tp9916
Rp9917
sS'2063'
p9918
g9
(g13
S'v\x05\xa5wK\x85\xeb?'
p9919
tp9920
Rp9921
sS'41'
p9922
g9
(g13
S'\xdb\xa4.\xcd\xf7N\xea?'
p9923
tp9924
Rp9925
sa(dp9926
S'281'
p9927
g9
(g13
S'\xcak\x8c\x9f#g\xb1?'
p9928
tp9929
Rp9930
sS'1783'
p9931
g9
(g13
S'\xeaKL\xf7\xa6+\xb7?'
p9932
tp9933
Rp9934
sS'872'
p9935
g9
(g13
S';\xfb\xc0^\xaa4\xb8?'
p9936
tp9937
Rp9938
sS'2063'
p9939
g9
(g13
S'{\xa8\xe2\xfcB9\xba?'
p9940
tp9941
Rp9942
sS'41'
p9943
g9
(g13
S'{*\xbcEn\x85\xb1?'
p9944
tp9945
Rp9946
saaa(lp9947
I9
ag8966
aS'23'
p9948
a(lp9949
(dp9950
S'281'
p9951
g9
(g13
S"C-X'\xec\xb3\xdf?"
p9952
tp9953
Rp9954
sS'1783'
p9955
g9
(g13
S'P\xb1\x8e\xc2\x1d\x8f\xde?'
p9956
tp9957
Rp9958
sS'872'
p9959
g9
(g13
S'\xc0\x1ds\xd59\xff\xe0?'
p9960
tp9961
Rp9962
sS'2063'
p9963
g9
(g13
S'\xf4P\xc7;\xd9\xdd\xde?'
p9964
tp9965
Rp9966
sS'41'
p9967
g9
(g13
S'2\xb1\xe3\xc9Z\x17\xe1?'
p9968
tp9969
Rp9970
sa(dp9971
S'281'
p9972
g9
(g13
S'\x04)t\xd1z\xbd\xb5?'
p9973
tp9974
Rp9975
sS'1783'
p9976
g9
(g13
S'\xc8\x88\xe7\xe5I?\xb2?'
p9977
tp9978
Rp9979
sS'872'
p9980
g9
(g13
S'@\xdf\xa4\xa9\xc0\xfb\xb6?'
p9981
tp9982
Rp9983
sS'2063'
p9984
g9
(g13
S'\x84\x16\xb6\xfb\xe2S\xb3?'
p9985
tp9986
Rp9987
sS'41'
p9988
g9
(g13
S'\x1f\xc9\xc1\x088\xfb\xb0?'
p9989
tp9990
Rp9991
saaa(lp9992
I9
ag8966
aS'24'
p9993
a(lp9994
(dp9995
S'281'
p9996
g9
(g13
S'\xe4\x13K\xd1\x19N\xe1?'
p9997
tp9998
Rp9999
sS'1783'
p10000
g9
(g13
S'\x99\xfdl\xa8\xcd\xbf\xe0?'
p10001
tp10002
Rp10003
sS'872'
p10004
g9
(g13
S'\xa70\x04\x9c\x9b\xc8\xdc?'
p10005
tp10006
Rp10007
sS'2063'
p10008
g9
(g13
S'\xacX\xad\xf6E\x8f\xe0?'
p10009
tp10010
Rp10011
sS'41'
p10012
g9
(g13
S'\xc01k\xb5\x86\xde\xdb?'
p10013
tp10014
Rp10015
sa(dp10016
S'281'
p10017
g9
(g13
S'\xe7M\xa4A\xbd\x89\xb7?'
p10018
tp10019
Rp10020
sS'1783'
p10021
g9
(g13
S'\x932\xb8)9\xd6\xb7?'
p10022
tp10023
Rp10024
sS'872'
p10025
g9
(g13
S'\xb0\xbc\xf3U\xa1\xab\xb2?'
p10026
tp10027
Rp10028
sS'2063'
p10029
g9
(g13
S'\t\xfa\xcb\xe1\xdd\xd2\xb4?'
p10030
tp10031
Rp10032
sS'41'
p10033
g9
(g13
S'\xfa\xa9f\x91i\x14\xb2?'
p10034
tp10035
Rp10036
saaa(lp10037
I9
ag8966
aS'25'
p10038
a(lp10039
(dp10040
S'281'
p10041
g9
(g13
S'\xe5-\x99"\x02\xb7\xdc?'
p10042
tp10043
Rp10044
sS'1783'
p10045
g9
(g13
S'W(\xb0x\x86\xa0\xd9?'
p10046
tp10047
Rp10048
sS'872'
p10049
g9
(g13
S'\xb2fO\xbf[\xf0\xdf?'
p10050
tp10051
Rp10052
sS'2063'
p10053
g9
(g13
S'\xc7\x98\x13\x04\xe6\xf6\xe0?'
p10054
tp10055
Rp10056
sS'41'
p10057
g9
(g13
S'Gs1\xf8\x13\xb4\xdf?'
p10058
tp10059
Rp10060
sa(dp10061
S'281'
p10062
g9
(g13
S'/\xf8\x87\xbe\x1e\xfd\xb1?'
p10063
tp10064
Rp10065
sS'1783'
p10066
g9
(g13
S'\xa1\x9e4\xeco\x1b\xb0?'
p10067
tp10068
Rp10069
sS'872'
p10070
g9
(g13
S'\x94\x9b\xd9q\\\xb6\xb2?'
p10071
tp10072
Rp10073
sS'2063'
p10074
g9
(g13
S'C\x85\xda?kF\xbe?'
p10075
tp10076
Rp10077
sS'41'
p10078
g9
(g13
S'~\xf6\xf4K\x18\xad\xb5?'
p10079
tp10080
Rp10081
saaas.