(lp0
(lp1
S'XscanNumber_YscanNumber'
p2
aS'Type'
p3
aS'BCID'
p4
aS'xsec'
p5
aS'xsecErr'
p6
aS'normChange'
p7
aS'normChangeErr'
p8
aa(lp9
S'1_2'
p10
aS'XY'
p11
aS'sum'
p12
aF-498205120.93041027
aF-70104141428.78232
aF-999.0
aF-999.0
aa(lp13
S'1_2'
p14
ag11
aS'1783'
p15
aF8391849.707664233
aF26637.564266545334
aF-999.0
aF-999.0
aa(lp16
S'1_2'
p17
ag11
aS'872'
p18
aF8484087.077881534
aF28610.478330504528
aF-999.0
aF-999.0
aa(lp19
S'1_2'
p20
ag11
aS'41'
p21
aF8425048.71150803
aF30359.887084143473
aF-999.0
aF-999.0
aa(lp22
S'1_2'
p23
ag11
aS'281'
p24
aF8433367.120957738
aF27618.203381871594
aF-999.0
aF-999.0
aa(lp25
S'1_2'
p26
ag11
aS'2063'
p27
aF8450561.23052826
aF24858.421180616988
aF-999.0
aF-999.0
aa(lp28
S'4_3'
p29
ag11
aS'sum'
p30
aF-779950188.4180242
aF-37261390017.31391
aF-999.0
aF-999.0
aa(lp31
S'4_3'
p32
ag11
aS'1783'
p33
aF8404338.586937524
aF26631.396468215204
aF-999.0
aF-999.0
aa(lp34
S'4_3'
p35
ag11
aS'872'
p36
aF8471666.077957183
aF28478.273261883347
aF-999.0
aF-999.0
aa(lp37
S'4_3'
p38
ag11
aS'41'
p39
aF8437594.103434613
aF30431.08630833745
aF-999.0
aF-999.0
aa(lp40
S'4_3'
p41
ag11
aS'281'
p42
aF8464818.710409764
aF27346.633972641503
aF-999.0
aF-999.0
aa(lp43
S'4_3'
p44
ag11
aS'2063'
p45
aF8445777.656261595
aF25257.836917473887
aF-999.0
aF-999.0
aa(lp46
S'5_6'
p47
ag11
aS'sum'
p48
aF-271045420.0972777
aF-144316631.55739054
aF-999.0
aF-999.0
aa(lp49
S'5_6'
p50
ag11
aS'1783'
p51
aF8312666.572900046
aF24204.662821468897
aF-999.0
aF-999.0
aa(lp52
S'5_6'
p53
ag11
aS'872'
p54
aF8360584.895497001
aF25575.876533321654
aF-999.0
aF-999.0
aa(lp55
S'5_6'
p56
ag11
aS'41'
p57
aF8346806.988546787
aF25724.69713778964
aF-999.0
aF-999.0
aa(lp58
S'5_6'
p59
ag11
aS'281'
p60
aF8346243.435006282
aF24028.907554399204
aF-999.0
aF-999.0
aa(lp61
S'5_6'
p62
ag11
aS'2063'
p63
aF8372988.560013042
aF22835.01320440907
aF-999.0
aF-999.0
aa(lp64
S'7_8'
p65
ag11
aS'sum'
p66
aF-269937589.26280046
aF-143950014.43430588
aF-999.0
aF-999.0
aa(lp67
S'7_8'
p68
ag11
aS'1783'
p69
aF8430957.678151103
aF24357.705543394964
aF-999.0
aF-999.0
aa(lp70
S'7_8'
p71
ag11
aS'872'
p72
aF8445861.8013503
aF25572.151062438857
aF-999.0
aF-999.0
aa(lp73
S'7_8'
p74
ag11
aS'41'
p75
aF8438926.081859019
aF29114.659753195432
aF-999.0
aF-999.0
aa(lp76
S'7_8'
p77
ag11
aS'281'
p78
aF8425701.709631288
aF25784.548978449096
aF-999.0
aF-999.0
aa(lp79
S'7_8'
p80
ag11
aS'2063'
p81
aF8436003.957524125
aF22326.65597310997
aF-999.0
aF-999.0
aa(lp82
S'9_10'
p83
ag11
aS'sum'
p84
aF-1088635602.2122061
aF-65631319719.85831
aF-999.0
aF-999.0
aa(lp85
S'9_10'
p86
ag11
aS'1783'
p87
aF8452358.316867478
aF26904.09383091218
aF-999.0
aF-999.0
aa(lp88
S'9_10'
p89
ag11
aS'872'
p90
aF8500629.712997502
aF28033.88481983725
aF-999.0
aF-999.0
aa(lp91
S'9_10'
p92
ag11
aS'41'
p93
aF8425849.380356278
aF29073.478013585365
aF-999.0
aF-999.0
aa(lp94
S'9_10'
p95
ag11
aS'281'
p96
aF8481586.855457384
aF26410.393443928886
aF-999.0
aF-999.0
aa(lp97
S'9_10'
p98
ag11
aS'2063'
p99
aF8438538.72272108
aF24682.451481036453
aF-999.0
aF-999.0
aa.