(lp0
(lp1
S'XscanNumber_YscanNumber'
p2
aS'Type'
p3
aS'BCID'
p4
aS'xsec'
p5
aS'xsecErr'
p6
aS'normChange'
p7
aS'normChangeErr'
p8
aa(lp9
S'1_2'
p10
aS'XY'
p11
aS'211'
p12
aF248.96553410773507
aF4.3095240814968525
aF-999.0
aF-999.0
aa(lp13
S'1_2'
p14
ag11
aS'2291'
p15
aF245.85200000856807
aF1.9874762509434063
aF-999.0
aF-999.0
aa(lp16
S'1_2'
p17
ag11
aS'2451'
p18
aF244.1136529329554
aF3.7672220284263283
aF-999.0
aF-999.0
aa(lp19
S'1_2'
p20
ag11
aS'131'
p21
aF247.6314363835748
aF2.310170595447706
aF-999.0
aF-999.0
aa(lp22
S'1_2'
p23
ag11
aS'1871'
p24
aF243.1112475913435
aF1.851783890731833
aF-999.0
aF-999.0
aa(lp25
S'1_2'
p26
ag11
aS'251'
p27
aF246.7248343109408
aF1.9191594313157998
aF-999.0
aF-999.0
aa(lp28
S'1_2'
p29
ag11
aS'171'
p30
aF244.16758879440405
aF2.1350066875933695
aF-999.0
aF-999.0
aa(lp31
S'1_2'
p32
ag11
aS'1631'
p33
aF245.21134714193164
aF1.5802111256268805
aF-999.0
aF-999.0
aa(lp34
S'1_2'
p35
ag11
aS'1711'
p36
aF241.86874122140213
aF1.8349883170675123
aF-999.0
aF-999.0
aa(lp37
S'1_2'
p38
ag11
aS'1831'
p39
aF248.1252787915247
aF1.8588199611974991
aF-999.0
aF-999.0
aa(lp40
S'1_2'
p41
ag11
aS'851'
p42
aF244.436502798081
aF1.9006615420705832
aF-999.0
aF-999.0
aa(lp43
S'1_2'
p44
ag11
aS'971'
p45
aF246.41508750145124
aF1.9239484189931342
aF-999.0
aF-999.0
aa(lp46
S'1_2'
p47
ag11
aS'sum'
p48
aF8.214347309295803
aF0.012271194018389957
aF-999.0
aF-999.0
aa(lp49
S'1_2'
p50
ag11
aS'1'
p51
aF245.0298169863109
aF3.9557774436299757
aF-999.0
aF-999.0
aa(lp52
S'1_2'
p53
ag11
aS'811'
p54
aF245.86706837033861
aF1.5541851028821012
aF-999.0
aF-999.0
aa(lp55
S'1_2'
p56
ag11
aS'931'
p57
aF246.48936827246254
aF1.5979295590874025
aF-999.0
aF-999.0
aa(lp58
S'1_2'
p59
ag11
aS'1671'
p60
aF246.10330307277894
aF1.8763689944423723
aF-999.0
aF-999.0
aa(lp61
S'1_2'
p62
ag11
aS'1751'
p63
aF245.79885401616127
aF2.305719877945442
aF-999.0
aF-999.0
aa(lp64
S'1_2'
p65
ag11
aS'891'
p66
aF246.2391135816085
aF2.128933522648746
aF-999.0
aF-999.0
aa(lp67
S'1_2'
p68
ag11
aS'771'
p69
aF244.38034245489757
aF1.661289470260291
aF-999.0
aF-999.0
aa(lp70
S'1_2'
p71
ag11
aS'1791'
p72
aF247.48745720960156
aF1.890276624271838
aF-999.0
aF-999.0
aa(lp73
S'1_2'
p74
ag11
aS'91'
p75
aF248.53649991729583
aF5.520387306097331
aF-999.0
aF-999.0
aa(lp76
S'1_2'
p77
ag11
aS'2331'
p78
aF244.41769009590803
aF2.0419128972529843
aF-999.0
aF-999.0
aa(lp79
S'1_2'
p80
ag11
aS'2211'
p81
aF248.42590944600175
aF1.7219793599741362
aF-999.0
aF-999.0
aa(lp82
S'1_2'
p83
ag11
aS'51'
p84
aF249.42571576198122
aF1.6109774226911364
aF-999.0
aF-999.0
aa(lp85
S'1_2'
p86
ag11
aS'1011'
p87
aF246.04124462319456
aF2.199159364974076
aF-999.0
aF-999.0
aa(lp88
S'1_2'
p89
ag11
aS'2411'
p90
aF247.88990225281643
aF3.030217077899052
aF-999.0
aF-999.0
aa(lp91
S'1_2'
p92
ag11
aS'2674'
p93
aF256.6010604126271
aF2.646891129447226
aF-999.0
aF-999.0
aa(lp94
S'1_2'
p95
ag11
aS'2371'
p96
aF252.42235285982704
aF6.5776015238784185
aF-999.0
aF-999.0
aa(lp97
S'1_2'
p98
ag11
aS'2251'
p99
aF246.63161323954958
aF1.7774403531762673
aF-999.0
aF-999.0
aa(lp100
S'1_2'
p101
ag11
aS'291'
p102
aF248.63811218157272
aF1.9745895229040566
aF-999.0
aF-999.0
aa(lp103
S'4_3'
p104
ag11
aS'211'
p105
aF251.34241114451316
aF1.7079964963789964
aF-999.0
aF-999.0
aa(lp106
S'4_3'
p107
ag11
aS'2291'
p108
aF247.74536878859047
aF2.0236054518613207
aF-999.0
aF-999.0
aa(lp109
S'4_3'
p110
ag11
aS'2451'
p111
aF245.96929138024453
aF1.7925590916493384
aF-999.0
aF-999.0
aa(lp112
S'4_3'
p113
ag11
aS'131'
p114
aF250.81678367628135
aF1.9916472341743814
aF-999.0
aF-999.0
aa(lp115
S'4_3'
p116
ag11
aS'1871'
p117
aF247.08607276281026
aF2.5894772506157637
aF-999.0
aF-999.0
aa(lp118
S'4_3'
p119
ag11
aS'251'
p120
aF247.3131401740006
aF2.760661085381135
aF-999.0
aF-999.0
aa(lp121
S'4_3'
p122
ag11
aS'171'
p123
aF246.89551480552228
aF2.1396804601852972
aF-999.0
aF-999.0
aa(lp124
S'4_3'
p125
ag11
aS'1631'
p126
aF247.00405505439608
aF1.6346529974740975
aF-999.0
aF-999.0
aa(lp127
S'4_3'
p128
ag11
aS'1711'
p129
aF248.91898902733766
aF2.188625827115147
aF-999.0
aF-999.0
aa(lp130
S'4_3'
p131
ag11
aS'1831'
p132
aF247.34342357930723
aF1.8509755742085374
aF-999.0
aF-999.0
aa(lp133
S'4_3'
p134
ag11
aS'851'
p135
aF248.4847118567723
aF1.5833982724798161
aF-999.0
aF-999.0
aa(lp136
S'4_3'
p137
ag11
aS'971'
p138
aF247.7593710950548
aF1.8336913122726228
aF-999.0
aF-999.0
aa(lp139
S'4_3'
p140
ag11
aS'sum'
p141
aF8.257774601581746
aF0.011754876466088688
aF-999.0
aF-999.0
aa(lp142
S'4_3'
p143
ag11
ag51
aF249.6598972577793
aF1.7007828701079453
aF-999.0
aF-999.0
aa(lp144
S'4_3'
p145
ag11
aS'811'
p146
aF248.41225966218013
aF1.8353883611410093
aF-999.0
aF-999.0
aa(lp147
S'4_3'
p148
ag11
aS'931'
p149
aF248.36071172137434
aF1.502269927452431
aF-999.0
aF-999.0
aa(lp150
S'4_3'
p151
ag11
aS'1671'
p152
aF247.4727187218319
aF2.1508062754767034
aF-999.0
aF-999.0
aa(lp153
S'4_3'
p154
ag11
aS'1751'
p155
aF244.54909291541486
aF1.7422049442284406
aF-999.0
aF-999.0
aa(lp156
S'4_3'
p157
ag11
aS'891'
p158
aF245.30274512676374
aF1.660407304698907
aF-999.0
aF-999.0
aa(lp159
S'4_3'
p160
ag11
aS'771'
p161
aF248.48987490966027
aF2.4755413837573967
aF-999.0
aF-999.0
aa(lp162
S'4_3'
p163
ag11
aS'1791'
p164
aF249.5499930459787
aF2.5074383103448863
aF-999.0
aF-999.0
aa(lp165
S'4_3'
p166
ag11
aS'91'
p167
aF246.61408866605535
aF1.9056482709129734
aF-999.0
aF-999.0
aa(lp168
S'4_3'
p169
ag11
aS'2331'
p170
aF244.30557690268233
aF2.6278309939324647
aF-999.0
aF-999.0
aa(lp171
S'4_3'
p172
ag11
aS'2211'
p173
aF250.08640910937373
aF3.4800307696262336
aF-999.0
aF-999.0
aa(lp174
S'4_3'
p175
ag11
aS'51'
p176
aF248.47178897967098
aF1.6369316348262861
aF-999.0
aF-999.0
aa(lp177
S'4_3'
p178
ag11
aS'1011'
p179
aF250.28738830286412
aF1.9116072902548618
aF-999.0
aF-999.0
aa(lp180
S'4_3'
p181
ag11
aS'2411'
p182
aF246.83851996613734
aF2.0416122538899892
aF-999.0
aF-999.0
aa(lp183
S'4_3'
p184
ag11
aS'2674'
p185
aF254.4081751048518
aF2.1012349424643086
aF-999.0
aF-999.0
aa(lp186
S'4_3'
p187
ag11
aS'2371'
p188
aF248.58202021904697
aF1.813730142392775
aF-999.0
aF-999.0
aa(lp189
S'4_3'
p190
ag11
aS'2251'
p191
aF248.94229285851617
aF1.8551919056910837
aF-999.0
aF-999.0
aa(lp192
S'4_3'
p193
ag11
aS'291'
p194
aF250.80659514031947
aF1.7171975687267735
aF-999.0
aF-999.0
aa(lp195
S'5_6'
p196
ag11
aS'211'
p197
aF243.37685167813862
aF1.5460771004039509
aF-999.0
aF-999.0
aa(lp198
S'5_6'
p199
ag11
aS'2291'
p200
aF247.48912312092506
aF1.7840420016618634
aF-999.0
aF-999.0
aa(lp201
S'5_6'
p202
ag11
aS'2451'
p203
aF241.606064705542
aF1.7388853737600656
aF-999.0
aF-999.0
aa(lp204
S'5_6'
p205
ag11
aS'131'
p206
aF242.81457142783705
aF2.720048649761326
aF-999.0
aF-999.0
aa(lp207
S'5_6'
p208
ag11
aS'1871'
p209
aF243.17226204690772
aF1.6522914132005866
aF-999.0
aF-999.0
aa(lp210
S'5_6'
p211
ag11
aS'251'
p212
aF244.03546095319925
aF2.598172988925124
aF-999.0
aF-999.0
aa(lp213
S'5_6'
p214
ag11
aS'171'
p215
aF241.8059999022965
aF2.7936571358706077
aF-999.0
aF-999.0
aa(lp216
S'5_6'
p217
ag11
aS'1631'
p218
aF247.21470793130763
aF3.5060452053332085
aF-999.0
aF-999.0
aa(lp219
S'5_6'
p220
ag11
aS'1711'
p221
aF245.6809570804413
aF1.9503717741149988
aF-999.0
aF-999.0
aa(lp222
S'5_6'
p223
ag11
aS'1831'
p224
aF241.2540582100642
aF2.0104181111066124
aF-999.0
aF-999.0
aa(lp225
S'5_6'
p226
ag11
aS'851'
p227
aF243.55011450339586
aF1.9442852862281539
aF-999.0
aF-999.0
aa(lp228
S'5_6'
p229
ag11
aS'971'
p230
aF242.23733285443646
aF1.7017014561350088
aF-999.0
aF-999.0
aa(lp231
S'5_6'
p232
ag11
aS'sum'
p233
aF8.187958709631891
aF0.012200863071662847
aF-999.0
aF-999.0
aa(lp234
S'5_6'
p235
ag11
ag51
aF248.6818292171711
aF1.8099815898460285
aF-999.0
aF-999.0
aa(lp236
S'5_6'
p237
ag11
aS'811'
p238
aF244.04051643115102
aF1.5969438269327456
aF-999.0
aF-999.0
aa(lp239
S'5_6'
p240
ag11
aS'931'
p241
aF243.96479166517625
aF1.7830687862786634
aF-999.0
aF-999.0
aa(lp242
S'5_6'
p243
ag11
aS'1671'
p244
aF242.2257662444182
aF2.163530297456869
aF-999.0
aF-999.0
aa(lp245
S'5_6'
p246
ag11
aS'1751'
p247
aF240.0480203546122
aF1.8564504613110442
aF-999.0
aF-999.0
aa(lp248
S'5_6'
p249
ag11
aS'891'
p250
aF241.83579541961714
aF2.081998569604836
aF-999.0
aF-999.0
aa(lp251
S'5_6'
p252
ag11
aS'771'
p253
aF243.42517622241564
aF2.102070844895356
aF-999.0
aF-999.0
aa(lp254
S'5_6'
p255
ag11
aS'1791'
p256
aF244.1259714030726
aF3.242635872030791
aF-999.0
aF-999.0
aa(lp257
S'5_6'
p258
ag11
aS'91'
p259
aF243.913511628828
aF2.8268959426039704
aF-999.0
aF-999.0
aa(lp260
S'5_6'
p261
ag11
aS'2331'
p262
aF243.70116629603208
aF3.111312617197851
aF-999.0
aF-999.0
aa(lp263
S'5_6'
p264
ag11
aS'2211'
p265
aF243.20983273015867
aF11.25545536175461
aF-999.0
aF-999.0
aa(lp266
S'5_6'
p267
ag11
aS'51'
p268
aF246.40482065601017
aF1.7602815126292184
aF-999.0
aF-999.0
aa(lp269
S'5_6'
p270
ag11
aS'1011'
p271
aF246.41126537329066
aF1.7362515862663428
aF-999.0
aF-999.0
aa(lp272
S'5_6'
p273
ag11
aS'2411'
p274
aF243.68350076167826
aF1.6699491884859292
aF-999.0
aF-999.0
aa(lp275
S'5_6'
p276
ag11
aS'2674'
p277
aF252.2908802006062
aF2.0918339242946358
aF-999.0
aF-999.0
aa(lp278
S'5_6'
p279
ag11
aS'2371'
p280
aF245.23457540854199
aF1.6749700331492567
aF-999.0
aF-999.0
aa(lp281
S'5_6'
p282
ag11
aS'2251'
p283
aF244.6993107480563
aF2.503656907659474
aF-999.0
aF-999.0
aa(lp284
S'5_6'
p285
ag11
aS'291'
p286
aF243.2226745159635
aF1.8135971328277012
aF-999.0
aF-999.0
aa(lp287
S'7_8'
p288
ag11
aS'211'
p289
aF245.36140395258263
aF1.5400704925839093
aF-999.0
aF-999.0
aa(lp290
S'7_8'
p291
ag11
aS'2291'
p292
aF249.95581674242268
aF1.9083253529846793
aF-999.0
aF-999.0
aa(lp293
S'7_8'
p294
ag11
aS'2451'
p295
aF247.44332397698625
aF1.75172071240984
aF-999.0
aF-999.0
aa(lp296
S'7_8'
p297
ag11
aS'131'
p298
aF249.8666910083698
aF2.1651458025403136
aF-999.0
aF-999.0
aa(lp299
S'7_8'
p300
ag11
aS'1871'
p301
aF245.76683273043525
aF2.7058052200031413
aF-999.0
aF-999.0
aa(lp302
S'7_8'
p303
ag11
aS'251'
p304
aF251.04827892523747
aF3.425069719910785
aF-999.0
aF-999.0
aa(lp305
S'7_8'
p306
ag11
aS'171'
p307
aF248.4940377942055
aF11.162868454978303
aF-999.0
aF-999.0
aa(lp308
S'7_8'
p309
ag11
aS'1631'
p310
aF248.15613548050894
aF1.7914127202973857
aF-999.0
aF-999.0
aa(lp311
S'7_8'
p312
ag11
aS'1711'
p313
aF247.74546999017858
aF2.060366238794244
aF-999.0
aF-999.0
aa(lp314
S'7_8'
p315
ag11
aS'1831'
p316
aF249.40852073312283
aF1.787813425311383
aF-999.0
aF-999.0
aa(lp317
S'7_8'
p318
ag11
aS'851'
p319
aF247.73597445526747
aF1.782314822948077
aF-999.0
aF-999.0
aa(lp320
S'7_8'
p321
ag11
aS'971'
p322
aF245.69865870477585
aF2.707037555729417
aF-999.0
aF-999.0
aa(lp323
S'7_8'
p324
ag11
aS'sum'
p325
aF8.320015431000996
aF0.011862086908316931
aF-999.0
aF-999.0
aa(lp326
S'7_8'
p327
ag11
ag51
aF250.27372511314977
aF2.4623970835445403
aF-999.0
aF-999.0
aa(lp328
S'7_8'
p329
ag11
aS'811'
p330
aF246.28508164901348
aF1.9755092789708628
aF-999.0
aF-999.0
aa(lp331
S'7_8'
p332
ag11
aS'931'
p333
aF246.17032466665893
aF1.6066079064137027
aF-999.0
aF-999.0
aa(lp334
S'7_8'
p335
ag11
aS'1671'
p336
aF251.0485311797285
aF1.7757988966286764
aF-999.0
aF-999.0
aa(lp337
S'7_8'
p338
ag11
aS'1751'
p339
aF243.67572575942967
aF2.7396464006523327
aF-999.0
aF-999.0
aa(lp340
S'7_8'
p341
ag11
aS'891'
p342
aF243.55910309555478
aF3.0077524978095838
aF-999.0
aF-999.0
aa(lp343
S'7_8'
p344
ag11
aS'771'
p345
aF246.42665323332452
aF1.6009928394672515
aF-999.0
aF-999.0
aa(lp346
S'7_8'
p347
ag11
aS'1791'
p348
aF246.9252837170332
aF34.58239587423006
aF-999.0
aF-999.0
aa(lp349
S'7_8'
p350
ag11
aS'91'
p351
aF246.0569116028445
aF4.209344101925706
aF-999.0
aF-999.0
aa(lp352
S'7_8'
p353
ag11
aS'2331'
p354
aF249.1993850899512
aF2.3111855095175833
aF-999.0
aF-999.0
aa(lp355
S'7_8'
p356
ag11
aS'2211'
p357
aF251.3322032373239
aF2.108298720531327
aF-999.0
aF-999.0
aa(lp358
S'7_8'
p359
ag11
aS'51'
p360
aF248.51937951455992
aF1.7748457400700408
aF-999.0
aF-999.0
aa(lp361
S'7_8'
p362
ag11
aS'1011'
p363
aF247.0959608902762
aF2.1261315036391735
aF-999.0
aF-999.0
aa(lp364
S'7_8'
p365
ag11
aS'2411'
p366
aF247.89166408833577
aF5.712603612109301
aF-999.0
aF-999.0
aa(lp367
S'7_8'
p368
ag11
aS'2674'
p369
aF256.63601917933465
aF1.8649643334834796
aF-999.0
aF-999.0
aa(lp370
S'7_8'
p371
ag11
aS'2371'
p372
aF243.72446622531595
aF1.517293846555923
aF-999.0
aF-999.0
aa(lp373
S'7_8'
p374
ag11
aS'2251'
p375
aF245.7860587990224
aF2.798792554377588
aF-999.0
aF-999.0
aa(lp376
S'7_8'
p377
ag11
aS'291'
p378
aF248.01636136545753
aF1.9960325882959207
aF-999.0
aF-999.0
aa(lp379
S'9_10'
p380
ag11
aS'211'
p381
aF247.9708817500321
aF1.4690990424486856
aF-999.0
aF-999.0
aa(lp382
S'9_10'
p383
ag11
aS'2291'
p384
aF245.20490759075386
aF2.0241461708313806
aF-999.0
aF-999.0
aa(lp385
S'9_10'
p386
ag11
aS'2451'
p387
aF247.46263926301876
aF1.816406521114177
aF-999.0
aF-999.0
aa(lp388
S'9_10'
p389
ag11
aS'131'
p390
aF249.8032384654429
aF1.9167232748797216
aF-999.0
aF-999.0
aa(lp391
S'9_10'
p392
ag11
aS'1871'
p393
aF248.1998565995304
aF1.7153576897365777
aF-999.0
aF-999.0
aa(lp394
S'9_10'
p395
ag11
aS'251'
p396
aF245.16692749232632
aF1.8032048060795094
aF-999.0
aF-999.0
aa(lp397
S'9_10'
p398
ag11
aS'171'
p399
aF244.81879182600622
aF1.848571395265197
aF-999.0
aF-999.0
aa(lp400
S'9_10'
p401
ag11
aS'1631'
p402
aF245.55246114932507
aF1.8678618638906992
aF-999.0
aF-999.0
aa(lp403
S'9_10'
p404
ag11
aS'1711'
p405
aF248.84391064700097
aF2.02554944416586
aF-999.0
aF-999.0
aa(lp406
S'9_10'
p407
ag11
aS'1831'
p408
aF247.15475203114627
aF1.926399497374146
aF-999.0
aF-999.0
aa(lp409
S'9_10'
p410
ag11
aS'851'
p411
aF245.1769307789841
aF1.7389469038571164
aF-999.0
aF-999.0
aa(lp412
S'9_10'
p413
ag11
aS'971'
p414
aF247.1401423995171
aF2.1052515458340744
aF-999.0
aF-999.0
aa(lp415
S'9_10'
p416
ag11
aS'sum'
p417
aF8.225413908189152
aF0.013129672835855465
aF-999.0
aF-999.0
aa(lp418
S'9_10'
p419
ag11
ag51
aF251.37664774474575
aF2.205253869348401
aF-999.0
aF-999.0
aa(lp420
S'9_10'
p421
ag11
aS'811'
p422
aF248.0597790608171
aF1.7855432445768855
aF-999.0
aF-999.0
aa(lp423
S'9_10'
p424
ag11
aS'931'
p425
aF248.40667621936478
aF1.6136594857408255
aF-999.0
aF-999.0
aa(lp426
S'9_10'
p427
ag11
aS'1671'
p428
aF247.1391233890477
aF1.9829346760133042
aF-999.0
aF-999.0
aa(lp429
S'9_10'
p430
ag11
aS'1751'
p431
aF247.34966809643214
aF2.180179893059721
aF-999.0
aF-999.0
aa(lp432
S'9_10'
p433
ag11
aS'891'
p434
aF247.31233812557625
aF2.037850266595441
aF-999.0
aF-999.0
aa(lp435
S'9_10'
p436
ag11
aS'771'
p437
aF248.1064750183662
aF2.841071411591207
aF-999.0
aF-999.0
aa(lp438
S'9_10'
p439
ag11
aS'1791'
p440
aF244.5264102347455
aF1.6863078145650383
aF-999.0
aF-999.0
aa(lp441
S'9_10'
p442
ag11
aS'91'
p443
aF246.98326971893664
aF2.038673996914846
aF-999.0
aF-999.0
aa(lp444
S'9_10'
p445
ag11
aS'2331'
p446
aF246.8931787931988
aF1.883420120951757
aF-999.0
aF-999.0
aa(lp447
S'9_10'
p448
ag11
aS'2211'
p449
aF245.6878420258185
aF5.702538178216746
aF-999.0
aF-999.0
aa(lp450
S'9_10'
p451
ag11
aS'51'
p452
aF247.4702526400948
aF1.8661225082139314
aF-999.0
aF-999.0
aa(lp453
S'9_10'
p454
ag11
aS'1011'
p455
aF252.20034244442812
aF2.8081471738291706
aF-999.0
aF-999.0
aa(lp456
S'9_10'
p457
ag11
aS'2411'
p458
aF244.41842616473724
aF2.211381071133248
aF-999.0
aF-999.0
aa(lp459
S'9_10'
p460
ag11
aS'2674'
p461
aF253.9892963124154
aF2.0676442411774025
aF-999.0
aF-999.0
aa(lp462
S'9_10'
p463
ag11
aS'2371'
p464
aF246.75576137082328
aF1.7403782057487782
aF-999.0
aF-999.0
aa(lp465
S'9_10'
p466
ag11
aS'2251'
p467
aF245.49116650444586
aF2.003645298125454
aF-999.0
aF-999.0
aa(lp468
S'9_10'
p469
ag11
aS'291'
p470
aF246.23266124832426
aF1.9281742157630484
aF-999.0
aF-999.0
aa.