(lp0
(lp1
S'XscanNumber_YscanNumber'
p2
aS'Type'
p3
aS'BCID'
p4
aS'xsec'
p5
aS'xsecErr'
p6
aS'normChange'
p7
aS'normChangeErr'
p8
aa(lp9
S'1_2'
p10
aS'XY'
p11
aS'2734'
p12
aF327.5464705038306
aF1.3206692602866872
aF-999.0
aF-999.0
aa(lp13
S'1_2'
p14
ag11
aS'281'
p15
aF329.24687277460936
aF0.001288728162802834
aF-999.0
aF-999.0
aa(lp16
S'1_2'
p17
ag11
aS'872'
p18
aF324.23359614870054
aF9.568290049235587
aF-999.0
aF-999.0
aa(lp19
S'1_2'
p20
ag11
aS'1783'
p21
aF326.9630855678598
aF1.9959083772144266
aF-999.0
aF-999.0
aa(lp22
S'1_2'
p23
ag11
aS'2774'
p24
aF328.9705729491829
aF2.1547131316872776
aF-999.0
aF-999.0
aa(lp25
S'1_2'
p26
ag11
aS'2654'
p27
aF329.0221528453333
aF1.2776024664262282
aF-999.0
aF-999.0
aa(lp28
S'1_2'
p29
ag11
aS'81'
p30
aF327.1758840094202
aF1.4232954397070918
aF-999.0
aF-999.0
aa(lp31
S'1_2'
p32
ag11
aS'1903'
p33
aF330.05302722168136
aF2.361361224804804
aF-999.0
aF-999.0
aa(lp34
S'1_2'
p35
ag11
aS'1983'
p36
aF327.14125417908065
aF1.5953136982542704
aF-999.0
aF-999.0
aa(lp37
S'1_2'
p38
ag11
aS'1943'
p39
aF334.77566727176355
aF2.202729403059184
aF-999.0
aF-999.0
aa(lp40
S'1_2'
p41
ag11
aS'sum'
p42
aF10.269715180517736
aF0.008362175139338356
aF-999.0
aF-999.0
aa(lp43
S'1_2'
p44
ag11
aS'952'
p45
aF328.3850330854554
aF1.7460731738342294
aF-999.0
aF-999.0
aa(lp46
S'1_2'
p47
ag11
aS'1072'
p48
aF327.27928209209665
aF1.2313441452746172
aF-999.0
aF-999.0
aa(lp49
S'1_2'
p50
ag11
aS'41'
p51
aF340.1613993194173
aF11.723957510519435
aF-999.0
aF-999.0
aa(lp52
S'1_2'
p53
ag11
aS'1'
p54
aF326.68250959535453
aF4.298136712423212
aF-999.0
aF-999.0
aa(lp55
S'1_2'
p56
ag11
aS'1112'
p57
aF330.9325289928184
aF2.0779439659793533
aF-999.0
aF-999.0
aa(lp58
S'1_2'
p59
ag11
aS'1032'
p60
aF328.58699818571836
aF1.2335434382800685
aF-999.0
aF-999.0
aa(lp61
S'1_2'
p62
ag11
aS'912'
p63
aF333.42694832049335
aF7.737057437138244
aF-999.0
aF-999.0
aa(lp64
S'1_2'
p65
ag11
aS'201'
p66
aF329.16733941163113
aF9.65073622987825
aF-999.0
aF-999.0
aa(lp67
S'1_2'
p68
ag11
aS'2814'
p69
aF331.1941277861514
aF1.9461783799305603
aF-999.0
aF-999.0
aa(lp70
S'1_2'
p71
ag11
aS'992'
p72
aF333.76865645254196
aF4.32732520333774
aF-999.0
aF-999.0
aa(lp73
S'1_2'
p74
ag11
aS'2934'
p75
aF328.48034386434585
aF4.0914446002514975
aF-999.0
aF-999.0
aa(lp76
S'1_2'
p77
ag11
aS'2854'
p78
aF332.19495306416934
aF1.8519024160607538
aF-999.0
aF-999.0
aa(lp79
S'1_2'
p80
ag11
aS'1152'
p81
aF331.348742016936
aF2.2755821191079786
aF-999.0
aF-999.0
aa(lp82
S'1_2'
p83
ag11
aS'121'
p84
aF333.82322795943236
aF1.8811555231779973
aF-999.0
aF-999.0
aa(lp85
S'1_2'
p86
ag11
aS'1863'
p87
aF328.45399769689664
aF2.9377681959889905
aF-999.0
aF-999.0
aa(lp88
S'1_2'
p89
ag11
aS'241'
p90
aF325.09672741211506
aF1.4223957584443911
aF-999.0
aF-999.0
aa(lp91
S'1_2'
p92
ag11
aS'161'
p93
aF327.61365865157677
aF4.387794077102831
aF-999.0
aF-999.0
aa(lp94
S'1_2'
p95
ag11
aS'2694'
p96
aF333.1862124033302
aF2.213085524176793
aF-999.0
aF-999.0
aa(lp97
S'1_2'
p98
ag11
aS'2894'
p99
aF329.98925771595236
aF1.709698201957098
aF-999.0
aF-999.0
aa(lp100
S'1_2'
p101
ag11
aS'1823'
p102
aF329.0870229706602
aF1.6895230812433315
aF-999.0
aF-999.0
aa(lp103
S'1_2'
p104
ag11
aS'2023'
p105
aF328.2474117410598
aF1.7264193822161849
aF-999.0
aF-999.0
aa(lp106
S'1_2'
p107
ag11
aS'2063'
p108
aF329.23675226101716
aF1.5726228973412306
aF-999.0
aF-999.0
aa(lp109
S'3_4'
p110
ag11
aS'2734'
p111
aF325.1270250383478
aF1.3283414172021661
aF-999.0
aF-999.0
aa(lp112
S'3_4'
p113
ag11
aS'281'
p114
aF327.45933943340253
aF2.0093707623097337
aF-999.0
aF-999.0
aa(lp115
S'3_4'
p116
ag11
aS'872'
p117
aF328.8780484879615
aF2.10939738407686
aF-999.0
aF-999.0
aa(lp118
S'3_4'
p119
ag11
aS'1783'
p120
aF328.2296077972266
aF4.057997954964587
aF-999.0
aF-999.0
aa(lp121
S'3_4'
p122
ag11
aS'2774'
p123
aF327.30502426565783
aF1.7883316433721794
aF-999.0
aF-999.0
aa(lp124
S'3_4'
p125
ag11
aS'2654'
p126
aF331.0712665394447
aF1.4116285844546372
aF-999.0
aF-999.0
aa(lp127
S'3_4'
p128
ag11
aS'81'
p129
aF327.4717625114925
aF1.8093772644228592
aF-999.0
aF-999.0
aa(lp130
S'3_4'
p131
ag11
aS'1903'
p132
aF329.3215580852511
aF1.3227185311368344
aF-999.0
aF-999.0
aa(lp133
S'3_4'
p134
ag11
aS'1983'
p135
aF326.6535270936438
aF1.7194340530977117
aF-999.0
aF-999.0
aa(lp136
S'3_4'
p137
ag11
aS'1943'
p138
aF331.5757752406827
aF1.2981020195738382
aF-999.0
aF-999.0
aa(lp139
S'3_4'
p140
ag11
aS'sum'
p141
aF10.393535238306368
aF0.061458545294287355
aF-999.0
aF-999.0
aa(lp142
S'3_4'
p143
ag11
aS'952'
p144
aF326.3172660722134
aF2.055529783715037
aF-999.0
aF-999.0
aa(lp145
S'3_4'
p146
ag11
aS'1072'
p147
aF329.59234418314287
aF3.7575951795700715
aF-999.0
aF-999.0
aa(lp148
S'3_4'
p149
ag11
aS'41'
p150
aF325.9319278223176
aF0.989425681897114
aF-999.0
aF-999.0
aa(lp151
S'3_4'
p152
ag11
ag54
aF329.9789291183427
aF1.2961341298778453
aF-999.0
aF-999.0
aa(lp153
S'3_4'
p154
ag11
aS'1112'
p155
aF326.6432506648544
aF2.1857195907265097
aF-999.0
aF-999.0
aa(lp156
S'3_4'
p157
ag11
aS'1032'
p158
aF328.038285101119
aF1.2559814808362797
aF-999.0
aF-999.0
aa(lp159
S'3_4'
p160
ag11
aS'912'
p161
aF329.75073347261315
aF0.049162001040628636
aF-999.0
aF-999.0
aa(lp162
S'3_4'
p163
ag11
aS'201'
p164
aF325.41532087022847
aF1.7241652273578767
aF-999.0
aF-999.0
aa(lp165
S'3_4'
p166
ag11
aS'2814'
p167
aF327.16117456351606
aF1.4232188715327982
aF-999.0
aF-999.0
aa(lp168
S'3_4'
p169
ag11
aS'992'
p170
aF327.5328422578787
aF2.1738314190463996
aF-999.0
aF-999.0
aa(lp171
S'3_4'
p172
ag11
aS'2934'
p173
aF334.0595308932938
aF2.278454604304473
aF-999.0
aF-999.0
aa(lp174
S'3_4'
p175
ag11
aS'2854'
p176
aF327.15833655199145
aF1.0155347764703637
aF-999.0
aF-999.0
aa(lp177
S'3_4'
p178
ag11
aS'1152'
p179
aF327.544507881517
aF2.290201756644887
aF-999.0
aF-999.0
aa(lp180
S'3_4'
p181
ag11
aS'121'
p182
aF331.2342100483784
aF7.692622705841471
aF-999.0
aF-999.0
aa(lp183
S'3_4'
p184
ag11
aS'1863'
p185
aF325.0381173800142
aF2.307248936084192
aF-999.0
aF-999.0
aa(lp186
S'3_4'
p187
ag11
aS'241'
p188
aF326.27829150591725
aF0.03761313185536515
aF-999.0
aF-999.0
aa(lp189
S'3_4'
p190
ag11
aS'161'
p191
aF324.80407215865125
aF1.3667229034248827
aF-999.0
aF-999.0
aa(lp192
S'3_4'
p193
ag11
aS'2694'
p194
aF330.93136059504496
aF2.1616408657681703
aF-999.0
aF-999.0
aa(lp195
S'3_4'
p196
ag11
aS'2894'
p197
aF327.31481540579585
aF3.910524519051684
aF-999.0
aF-999.0
aa(lp198
S'3_4'
p199
ag11
aS'1823'
p200
aF329.65310559327605
aF2.530366027797023
aF-999.0
aF-999.0
aa(lp201
S'3_4'
p202
ag11
aS'2023'
p203
aF327.1758453801092
aF1.467972858420819
aF-999.0
aF-999.0
aa(lp204
S'3_4'
p205
ag11
aS'2063'
p206
aF329.705387846265
aF2.092930766769145
aF-999.0
aF-999.0
aa.