(lp0
(lp1
S'XscanNumber_YscanNumber'
p2
aS'Type'
p3
aS'BCID'
p4
aS'xsec'
p5
aS'xsecErr'
p6
aS'normChange'
p7
aS'normChangeErr'
p8
aa(lp9
S'1_2'
p10
aS'XY'
p11
aS'211'
p12
aF1662.3227264380525
aF2.5153569245785343
aF0.6631991266548086
aF0.001003525061093349
aa(lp13
S'1_2'
p14
ag11
aS'2291'
p15
aF1662.127441494225
aF4.213630407025931
aF0.663277046554909
aF0.0016814621200969021
aa(lp16
S'1_2'
p17
ag11
aS'2451'
p18
aF1652.4700357965057
aF3.860307438704223
aF0.6671533864520366
aF0.0015585257975562234
aa(lp19
S'1_2'
p20
ag11
aS'131'
p21
aF1648.9708532732534
aF4.511763753023913
aF0.6685691127916306
aF0.0018292778695857144
aa(lp22
S'1_2'
p23
ag11
aS'1871'
p24
aF1652.7976052900842
aF3.5616304155242826
aF0.6670211627022926
aF0.001437370706053206
aa(lp25
S'1_2'
p26
ag11
aS'251'
p27
aF1656.497723301756
aF4.019645672421338
aF0.6655312379148552
aF0.001614973400031855
aa(lp28
S'1_2'
p29
ag11
aS'171'
p30
aF1641.6942100338608
aF4.310911330172431
aF0.6715324776405336
aF0.0017633716125365585
aa(lp31
S'1_2'
p32
ag11
aS'1631'
p33
aF1668.5910816721196
aF2.7435490692687767
aF0.6607077027448659
aF0.0010863560418337315
aa(lp34
S'1_2'
p35
ag11
aS'1711'
p36
aF1649.067615250327
aF4.047174435751592
aF0.6685298833091242
aF0.0016407192938865433
aa(lp37
S'1_2'
p38
ag11
aS'1831'
p39
aF1653.5061399718638
aF4.162856941392037
aF0.6667353411889455
aF0.0016785688157087933
aa(lp40
S'1_2'
p41
ag11
aS'851'
p42
aF1653.5584821046245
aF4.043376488417309
aF0.6667142361901672
aF0.0016302880704124126
aa(lp43
S'1_2'
p44
ag11
aS'971'
p45
aF1656.7358849048583
aF4.2346755254185915
aF0.6654355654615809
aF0.0017008768437251915
aa(lp46
S'1_2'
p47
ag11
aS'sum'
p48
aF67.56634829580847
aF0.5103450846937684
aF16.316568945913396
aF0.12324301920473126
aa(lp49
S'1_2'
p50
ag11
aS'1'
p51
aF1691.3517953342257
aF5.6649595842112825
aF0.6518164839706236
aF0.002183173274893182
aa(lp52
S'1_2'
p53
ag11
aS'811'
p54
aF1661.2132982888
aF3.3843526092588974
aF0.6636420389409242
aF0.0013520230475022042
aa(lp55
S'1_2'
p56
ag11
aS'931'
p57
aF1667.502814118742
aF2.7394701237253165
aF0.6611389024700333
aF0.0010861572499992372
aa(lp58
S'1_2'
p59
ag11
aS'1671'
p60
aF1657.980705905491
aF4.063984130204258
aF0.6649359527920823
aF0.0016298676758566013
aa(lp61
S'1_2'
p62
ag11
aS'1751'
p63
aF1648.7172816401785
aF4.292286460520191
aF0.6686719382812653
aF0.001740826968441309
aa(lp64
S'1_2'
p65
ag11
aS'891'
p66
aF1657.4731651805987
aF4.042233371203101
aF0.6651395651838705
aF0.001622137482147897
aa(lp67
S'1_2'
p68
ag11
aS'771'
p69
aF1670.7626761031413
aF3.4694424054612454
aF0.6598489397449881
aF0.0013702172818999328
aa(lp70
S'1_2'
p71
ag11
aS'1791'
p72
aF1665.2677725300086
aF2.549957355320857
aF0.6620262510198134
aF0.0010137340889259565
aa(lp73
S'1_2'
p74
ag11
aS'91'
p75
aF1659.7960589154234
aF4.536889166891122
aF0.6642086986955146
aF0.0018155491052531062
aa(lp76
S'1_2'
p77
ag11
aS'2331'
p78
aF1655.5802186002675
aF3.968402639501668
aF0.665900068149062
aF0.0015961531542828323
aa(lp79
S'1_2'
p80
ag11
aS'2211'
p81
aF1659.4335122590605
aF3.9454320129142304
aF0.6643538124593745
aF0.0015795527691920166
aa(lp82
S'1_2'
p83
ag11
aS'51'
p84
aF1666.758644246747
aF3.754550885820208
aF0.6614340859713279
aF0.0014899505348104183
aa(lp85
S'1_2'
p86
ag11
aS'1011'
p87
aF1660.1063831998583
aF4.032969582384301
aF0.6640845379241181
aF0.001613289828099693
aa(lp88
S'1_2'
p89
ag11
aS'2411'
p90
aF1654.2436374460094
aF4.011808317726989
aF0.6664380962010128
aF0.0016162201486337124
aa(lp91
S'1_2'
p92
ag11
aS'2674'
p93
aF1692.0898525480957
aF7.55523031078404
aF0.6515321740934683
aF0.002909110070454772
aa(lp94
S'1_2'
p95
ag11
aS'2371'
p96
aF1668.1754213205697
aF3.0289168390930437
aF0.6608723317116307
aF0.0011999501421903363
aa(lp97
S'1_2'
p98
ag11
aS'2251'
p99
aF1651.3263021170671
aF3.6465965091971375
aF0.6676154670211273
aF0.001474284172912465
aa(lp100
S'1_2'
p101
ag11
aS'291'
p102
aF1658.7582386439985
aF3.7225199530863318
aF0.6646242681473513
aF0.0014915236240251766
aa(lp103
S'4_3'
p104
ag11
aS'211'
p105
aF1678.733321638983
aF3.3576063642105964
aF0.6567159692260177
aF0.0013134865969058297
aa(lp106
S'4_3'
p107
ag11
aS'2291'
p108
aF1662.6946664199954
aF4.150291256633803
aF0.6630507709307095
aF0.0016550566215642807
aa(lp109
S'4_3'
p110
ag11
aS'2451'
p111
aF1662.3846780703038
aF4.059756399751943
aF0.6631744113954912
aF0.0016195568909717249
aa(lp112
S'4_3'
p113
ag11
aS'131'
p114
aF1655.0138059869805
aF4.144627307300876
aF0.6661279660653354
aF0.001668174699403625
aa(lp115
S'4_3'
p116
ag11
aS'1871'
p117
aF1659.3389077540462
aF3.8316309851564343
aF0.6643916895098603
aF0.0015341674759209274
aa(lp118
S'4_3'
p119
ag11
aS'251'
p120
aF1661.9088896788999
aF4.314198261433632
aF0.6633642717954071
aF0.00172204686180473
aa(lp121
S'4_3'
p122
ag11
aS'171'
p123
aF1655.440631319451
aF4.2843111333114186
aF0.6659562170547066
aF0.0017235070718007882
aa(lp124
S'4_3'
p125
ag11
aS'1631'
p126
aF1677.0507037850443
aF3.7407653011120137
aF0.6573748652345238
aF0.0014663152879888632
aa(lp127
S'4_3'
p128
ag11
aS'1711'
p129
aF1657.740947349641
aF4.242562178207515
aF0.6650321222714146
aF0.001701978909161069
aa(lp130
S'4_3'
p131
ag11
aS'1831'
p132
aF1665.918330418363
aF4.200372115915043
aF0.6617677231003862
aF0.0016685515973795602
aa(lp133
S'4_3'
p134
ag11
aS'851'
p135
aF1663.9697689921024
aF3.9741326602436824
aF0.662542674113564
aF0.0015823799981623332
aa(lp136
S'4_3'
p137
ag11
aS'971'
p138
aF1663.494343309578
aF3.787306883166981
aF0.662732028411226
aF0.0015088536868140968
aa(lp139
S'4_3'
p140
ag11
aS'sum'
p141
aF60.80073436435316
aF0.01297822746750378
aF18.132198433420772
aF0.003870410418806033
aa(lp142
S'4_3'
p143
ag11
ag51
aF1703.541007183187
aF2.5463805681005476
aF0.647152593182987
aF0.0009673361433205778
aa(lp144
S'4_3'
p145
ag11
aS'811'
p146
aF1666.7743025245063
aF3.5543581073149153
aF0.6614278722214388
aF0.0014104798210972894
aa(lp147
S'4_3'
p148
ag11
aS'931'
p149
aF1669.9477701072421
aF3.427464905126921
aF0.6601709347600487
aF0.001354960167484515
aa(lp150
S'4_3'
p151
ag11
aS'1671'
p152
aF1664.0917205549695
aF3.944443550195832
aF0.6624941202306402
aF0.0015703285025148294
aa(lp153
S'4_3'
p154
ag11
aS'1751'
p155
aF1653.9272531327088
aF4.522823951788563
aF0.6665655809855004
aF0.001822788015258118
aa(lp156
S'4_3'
p157
ag11
aS'891'
p158
aF1666.450059051817
aF4.058037643620677
aF0.6615565671493531
aF0.0016109822423385739
aa(lp159
S'4_3'
p160
ag11
aS'771'
p161
aF1670.3439284757699
aF3.96843717654814
aF0.6600143608736739
aF0.0015680755813785342
aa(lp162
S'4_3'
p163
ag11
aS'1791'
p164
aF1676.10871750886
aF2.575263341929213
aF0.6577443150768227
aF0.0010105936478256672
aa(lp165
S'4_3'
p166
ag11
aS'91'
p167
aF1664.8557624202913
aF3.8009670182240107
aF0.6621900859384143
aF0.001511820262908416
aa(lp168
S'4_3'
p169
ag11
aS'2331'
p170
aF1662.842401287589
aF3.797304246430831
aF0.6629918623307272
aF0.0015140231041908215
aa(lp171
S'4_3'
p172
ag11
aS'2211'
p173
aF1677.3304659234493
aF3.514402350210663
aF0.6572652216062896
aF0.001377125430231288
aa(lp174
S'4_3'
p175
ag11
aS'51'
p176
aF1673.1791281037226
aF3.8973991613679635
aF0.6588959674877168
aF0.0015347911935918962
aa(lp177
S'4_3'
p178
ag11
aS'1011'
p179
aF1665.668896231482
aF3.970218799496365
aF0.6618668229240601
aF0.0015775981103334773
aa(lp180
S'4_3'
p181
ag11
aS'2411'
p182
aF1661.0758165208583
aF4.289713090597813
aF0.66369696640413
aF0.0017139913402249587
aa(lp183
S'4_3'
p184
ag11
aS'2674'
p185
aF1696.323419233323
aF4.116001288260278
aF0.6499061251482485
aF0.001576948368470587
aa(lp186
S'4_3'
p187
ag11
aS'2371'
p188
aF1676.5142725138103
aF7.265922762830469
aF0.657585204293616
aF0.0028499389374200216
aa(lp189
S'4_3'
p190
ag11
aS'2251'
p191
aF1662.5164163840013
aF4.085000571732036
aF0.6631218612505522
aF0.0016293692835998063
aa(lp192
S'4_3'
p193
ag11
aS'291'
p194
aF1665.5878187475419
aF4.107862275708906
aF0.6618990412773058
aF0.0016324507608584176
aa(lp195
S'5_6'
p196
ag11
aS'211'
p197
aF1646.6457642601704
aF3.9521119548417785
aF0.6695131426081083
aF0.0016068974592200913
aa(lp198
S'5_6'
p199
ag11
aS'2291'
p200
aF1639.987391705831
aF3.8883028341687176
aF0.6722313756604212
aF0.0015938166210404643
aa(lp201
S'5_6'
p202
ag11
aS'2451'
p203
aF1633.5674196056652
aF4.181429298272105
aF0.6748732664234225
aF0.0017274676361534536
aa(lp204
S'5_6'
p205
ag11
aS'131'
p206
aF1635.8572369269061
aF4.636878256348494
aF0.6739286017789686
aF0.0019102674789584168
aa(lp207
S'5_6'
p208
ag11
aS'1871'
p209
aF1636.3244657247888
aF3.9708032385452485
aF0.6737361712084654
aF0.0016349286627421248
aa(lp210
S'5_6'
p211
ag11
aS'251'
p212
aF1633.3918798818768
aF3.4921964917900263
aF0.6749457946808721
aF0.001443036031563613
aa(lp213
S'5_6'
p214
ag11
aS'171'
p215
aF1627.2231546517148
aF4.621613847897902
aF0.6775044819394312
aF0.0019242376724994139
aa(lp216
S'5_6'
p217
ag11
aS'1631'
p218
aF1640.4954653418379
aF3.6359218938612567
aF0.6720231806080817
aF0.001489442578279882
aa(lp219
S'5_6'
p220
ag11
aS'1711'
p221
aF1637.108816702916
aF4.240747991377045
aF0.6734133792110761
aF0.00174440233057155
aa(lp222
S'5_6'
p223
ag11
aS'1831'
p224
aF1628.0261173202525
aF3.9857462672211317
aF0.6771703283279032
aF0.0016578536914680939
aa(lp225
S'5_6'
p226
ag11
aS'851'
p227
aF1633.6087744587144
aF3.9251980500017054
aF0.674856181987298
aF0.0016215291023065476
aa(lp228
S'5_6'
p229
ag11
aS'971'
p230
aF1636.1452921781674
aF4.130825923460814
aF0.6738099517583099
aF0.0017011885371766915
aa(lp231
S'5_6'
p232
ag11
aS'sum'
p233
aF59.123491884372555
aF0.014911912236959408
aF18.64658099944796
aF0.004702972888118915
aa(lp234
S'5_6'
p235
ag11
ag51
aF1667.9716338786827
aF0.0029949207223118586
aF0.6609530749803758
aF1.1867720172982552e-06
aa(lp236
S'5_6'
p237
ag11
aS'811'
p238
aF1634.9152799521041
aF3.7886887149963386
aF0.6743168859639345
aF0.0015626355735435266
aa(lp239
S'5_6'
p240
ag11
aS'931'
p241
aF1643.0442889756082
aF3.743352902281932
aF0.6709806837157775
aF0.0015286973739025353
aa(lp242
S'5_6'
p243
ag11
aS'1671'
p244
aF1631.7625814301816
aF5.968333025594181
aF0.6756197212378151
aF0.0024711459503331656
aa(lp245
S'5_6'
p246
ag11
aS'1751'
p247
aF1631.774308849433
aF4.361135024957742
aF0.6756148656179647
aF0.0018056710648338182
aa(lp248
S'5_6'
p249
ag11
aS'891'
p250
aF1634.7429332671306
aF3.7530424589795834
aF0.6743879774349862
aF0.001548259767106319
aa(lp251
S'5_6'
p252
ag11
aS'771'
p253
aF1643.1113269442203
aF3.630679560793793
aF0.6709533081014313
aF0.0014825632457304237
aa(lp254
S'5_6'
p255
ag11
aS'1791'
p256
aF1647.4989532670966
aF3.6831171413097827
aF0.6691664223554896
aF0.0014959756518685178
aa(lp257
S'5_6'
p258
ag11
aS'91'
p259
aF1639.8279897277203
aF4.261639685885826
aF0.6722967209354743
aF0.0017471871468087634
aa(lp260
S'5_6'
p261
ag11
aS'2331'
p262
aF1639.7737788030413
aF3.945451094602897
aF0.6723189470665246
aF0.0016176630946996618
aa(lp263
S'5_6'
p264
ag11
aS'2211'
p265
aF1637.2711404890588
aF3.5700577456180658
aF0.6733466150651448
aF0.001468227368791816
aa(lp266
S'5_6'
p267
ag11
aS'51'
p268
aF1641.7388807989232
aF2.7136538488321817
aF0.671514205630355
aF0.0011099555050846628
aa(lp269
S'5_6'
p270
ag11
aS'1011'
p271
aF1633.5071652194183
aF4.035903100125113
aF0.6748981601461613
aF0.0016674696229059724
aa(lp272
S'5_6'
p273
ag11
aS'2411'
p274
aF1633.6196311173321
aF4.009121953017405
aF0.6748516970490392
aF0.0016561766901759466
aa(lp275
S'5_6'
p276
ag11
aS'2674'
p277
aF1663.717419599154
aF4.029571588956043
aF0.6626431672860496
aF0.0016049408685971716
aa(lp278
S'5_6'
p279
ag11
aS'2371'
p280
aF1640.6298899772876
aF3.0434188114772427
aF0.6719681185422137
aF0.001246521488592808
aa(lp281
S'5_6'
p282
ag11
aS'2251'
p283
aF1636.7870017212297
aF3.8708609821228315
aF0.6735457816031224
aF0.0015928780488476775
aa(lp284
S'5_6'
p285
ag11
aS'291'
p286
aF1636.919273570876
aF4.202968121141866
aF0.6734913554943994
aF0.0017292622444554664
aa(lp287
S'7_8'
p288
ag11
aS'211'
p289
aF1665.1222261656442
aF2.836627604621698
aF0.662084117951403
aF0.0011278968330675136
aa(lp290
S'7_8'
p291
ag11
aS'2291'
p292
aF1666.7660163653595
aF4.12573203980174
aF0.6614311604433964
aF0.0016372350431738023
aa(lp293
S'7_8'
p294
ag11
aS'2451'
p295
aF1654.8046812748473
aF3.9364245901687185
aF0.6662121474921368
aF0.0015847754779354441
aa(lp296
S'7_8'
p297
ag11
aS'131'
p298
aF1665.5659239512556
aF4.4518062699596594
aF0.6619077423106677
aF0.0017691794692599094
aa(lp299
S'7_8'
p300
ag11
aS'1871'
p301
aF1663.4373459377493
aF4.119834590213078
aF0.6627547368011382
aF0.001641444383925161
aa(lp302
S'7_8'
p303
ag11
aS'251'
p304
aF1660.7521994962212
aF3.848741171008099
aF0.6638262955343841
aF0.001538396634245606
aa(lp305
S'7_8'
p306
ag11
aS'171'
p307
aF1657.1120466558273
aF3.7408582059502997
aF0.6652845126658654
aF0.0015018507852382083
aa(lp308
S'7_8'
p309
ag11
aS'1631'
p310
aF1665.7654106773423
aF3.4595707075562028
aF0.6618284743611482
aF0.0013745287233425105
aa(lp311
S'7_8'
p312
ag11
aS'1711'
p313
aF1657.0455322168073
aF3.7653664745344115
aF0.6653112174396862
aF0.0015118115372048189
aa(lp314
S'7_8'
p315
ag11
aS'1831'
p316
aF1657.2944626439207
aF4.150885239694286
aF0.6652112857683667
aF0.0016660984330865013
aa(lp317
S'7_8'
p318
ag11
aS'851'
p319
aF1659.462025524405
aF3.6818064473507675
aF0.6643423973765067
aF0.0014739596834922066
aa(lp320
S'7_8'
p321
ag11
aS'971'
p322
aF1661.4599766228132
aF3.992176951471655
aF0.6635435074596664
aF0.0015943706944801812
aa(lp323
S'7_8'
p324
ag11
aS'sum'
p325
aF60.59789054268575
aF0.012239871454601373
aF18.19289368852831
aF0.0036746935931368458
aa(lp326
S'7_8'
p327
ag11
ag51
aF1693.095611081744
aF1.8417416997834957
aF0.6511451409928259
aF0.0007083127207515932
aa(lp328
S'7_8'
p329
ag11
aS'811'
p330
aF1662.0313111273422
aF3.494809446173926
aF0.6633154098910288
aF0.0013947757450535076
aa(lp331
S'7_8'
p332
ag11
aS'931'
p333
aF1673.181137782394
aF3.8975319158740978
aF0.6588951760795767
aF0.0015348397851229086
aa(lp334
S'7_8'
p335
ag11
aS'1671'
p336
aF1660.66016475344
aF4.043746128585967
aF0.6638630851700107
aF0.0016165220540265905
aa(lp337
S'7_8'
p338
ag11
aS'1751'
p339
aF1660.7866899246335
aF9.77432477382576
aF0.6638125095054719
aF0.003906774479947947
aa(lp340
S'7_8'
p341
ag11
aS'891'
p342
aF1665.2110048081631
aF3.569397929819879
aF0.6620488197645333
aF0.0014191088576065809
aa(lp343
S'7_8'
p344
ag11
aS'771'
p345
aF1667.8065945751969
aF3.7417040377715787
aF0.6610184801871225
aF0.0014829870108456827
aa(lp346
S'7_8'
p347
ag11
aS'1791'
p348
aF1668.4498888249393
aF3.778736183827509
aF0.6607636152432449
aF0.001496509663610465
aa(lp349
S'7_8'
p350
ag11
aS'91'
p351
aF1663.6951660458938
aF4.144404749353755
aF0.6626520307877996
aF0.0016507220070206715
aa(lp352
S'7_8'
p353
ag11
aS'2331'
p354
aF1659.7700554147145
aF4.262634468644051
aF0.6642191048064762
aF0.001705852712334022
aa(lp355
S'7_8'
p356
ag11
aS'2211'
p357
aF1667.8793143329683
aF3.8710870566212447
aF0.6609896596943274
aF0.0015341328921190604
aa(lp358
S'7_8'
p359
ag11
aS'51'
p360
aF1675.5559811865235
aF3.7600059086008857
aF0.6579612933084279
aF0.0014764880303900568
aa(lp361
S'7_8'
p362
ag11
aS'1011'
p363
aF1663.5147502633768
aF8.782381651137461
aF0.6627238984310845
aF0.0034987932655420953
aa(lp364
S'7_8'
p365
ag11
aS'2411'
p366
aF1662.3799399006996
aF4.129149816199152
aF0.6631763015968604
aF0.0016472493670790336
aa(lp367
S'7_8'
p368
ag11
aS'2674'
p369
aF1695.3854514577586
aF4.138389377311619
aF0.6502656840922084
aF0.0015872806960585844
aa(lp370
S'7_8'
p371
ag11
aS'2371'
p372
aF1667.0583830031298
aF3.5501293247990864
aF0.6613151594643865
aF0.0014083216067809993
aa(lp373
S'7_8'
p374
ag11
aS'2251'
p375
aF1663.328159619619
aF4.106912160914817
aF0.6627982421967008
aF0.0016365105979646807
aa(lp376
S'7_8'
p377
ag11
aS'291'
p378
aF1661.077950001241
aF3.954721475729307
aF0.6636961139549973
aF0.0015801385330615893
aa(lp379
S'9_10'
p380
ag11
aS'211'
p381
aF1664.8435001795597
aF3.74644330685094
aF0.662194963234234
aF0.0014901556137689388
aa(lp382
S'9_10'
p383
ag11
aS'2291'
p384
aF1655.967036550436
aF4.046468175703303
aF0.6657445203068083
aF0.0016267920526860755
aa(lp385
S'9_10'
p386
ag11
aS'2451'
p387
aF1654.016432374756
aF3.7362338626735796
aF0.6665296419149305
aF0.0015056141945475063
aa(lp388
S'9_10'
p389
ag11
aS'131'
p390
aF1655.0096847956127
aF4.097025688463446
aF0.6661296248114134
aF0.001649023694405702
aa(lp391
S'9_10'
p392
ag11
aS'1871'
p393
aF1658.4532573772988
aF3.915771616151929
aF0.6647464892291197
aF0.0015695319858314515
aa(lp394
S'9_10'
p395
ag11
aS'251'
p396
aF1656.672803765497
aF3.6499819263166566
aF0.6654609032552269
aF0.0014661436247587185
aa(lp397
S'9_10'
p398
ag11
aS'171'
p399
aF1653.32499043498
aF3.9837623788934766
aF0.6668083932500825
aF0.0016067054005281807
aa(lp400
S'9_10'
p401
ag11
aS'1631'
p402
aF1667.4107543430525
aF3.6896001423993483
aF0.6611754047529305
aF0.001463030546716423
aa(lp403
S'9_10'
p404
ag11
aS'1711'
p405
aF1656.6078219535311
aF4.019431783956786
aF0.6654870065095476
aF0.0016146728213684385
aa(lp406
S'9_10'
p407
ag11
aS'1831'
p408
aF1659.4857181806813
aF3.973425704653147
aF0.6643329124885692
aF0.0015906599508569968
aa(lp409
S'9_10'
p410
ag11
aS'851'
p411
aF1658.146931617948
aF3.984731266012933
aF0.6648692943733479
aF0.0015977627884377766
aa(lp412
S'9_10'
p413
ag11
aS'971'
p414
aF1655.6655029300093
aF3.877435598518202
aF0.6658657672344831
aF0.0015594041339513029
aa(lp415
S'9_10'
p416
ag11
aS'sum'
p417
aF61.352528997142954
aF0.25837977287911057
aF17.969120399967466
aF0.07567507523605414
aa(lp418
S'9_10'
p419
ag11
ag51
aF1707.1649780995178
aF3.828824751799664
aF0.6457788172408785
aF0.0014483508924792682
aa(lp420
S'9_10'
p421
ag11
aS'811'
p422
aF1658.2716019898562
aF3.8510405217687538
aF0.6648193088932248
aF0.0015439244663720461
aa(lp423
S'9_10'
p424
ag11
aS'931'
p425
aF1668.7563536470316
aF3.5856859819675466
aF0.6606422669089911
aF0.0014195336008002294
aa(lp426
S'9_10'
p427
ag11
aS'1671'
p428
aF1656.944977063952
aF4.41879352420121
aF0.6653515932349554
aF0.0017743807743774607
aa(lp429
S'9_10'
p430
ag11
aS'1751'
p431
aF1656.0764896824073
aF4.063604150334041
aF0.6657005200306771
aF0.0016334652492983376
aa(lp432
S'9_10'
p433
ag11
aS'891'
p434
aF1659.467054396078
aF3.8742959080701254
aF0.6643403841442135
aF0.0015510107447070415
aa(lp435
S'9_10'
p436
ag11
aS'771'
p437
aF1666.9154311740813
aF3.5929291735592477
aF0.6613718727264122
aF0.001425544602713609
aa(lp438
S'9_10'
p439
ag11
aS'1791'
p440
aF1664.2843529017186
aF3.5699373766682663
aF0.6624174399464898
aF0.001420904290603235
aa(lp441
S'9_10'
p442
ag11
aS'91'
p443
aF1661.1407884156947
aF4.071135595111559
aF0.663671007346472
aF0.001626529599594437
aa(lp444
S'9_10'
p445
ag11
aS'2331'
p446
aF1660.1517784165028
aF4.2451181481478
aF0.6640663791859466
aF0.0016980617522489036
aa(lp447
S'9_10'
p448
ag11
aS'2211'
p449
aF1661.6958474376938
aF3.6324234772299664
aF0.6634493202183284
aF0.0014502827881705226
aa(lp450
S'9_10'
p451
ag11
aS'51'
p452
aF1667.489610116408
aF3.5738034159298704
aF0.6611441376928247
aF0.0014169798500535651
aa(lp453
S'9_10'
p454
ag11
aS'1011'
p455
aF1663.037288025214
aF3.974249044472807
aF0.6629141681490922
aF0.0015842013996345652
aa(lp456
S'9_10'
p457
ag11
aS'2411'
p458
aF1658.858729150971
aF3.874717738148069
aF0.6645840064731782
aF0.0015523175018580982
aa(lp459
S'9_10'
p460
ag11
aS'2674'
p461
aF1694.7707173891954
aF4.101882622911218
aF0.6505015510832577
aF0.0015744200564638692
aa(lp462
S'9_10'
p463
ag11
aS'2371'
p464
aF1665.2567122251098
aF3.7225913687482994
aF0.6620306480669074
aF0.0014799337292853167
aa(lp465
S'9_10'
p466
ag11
aS'2251'
p467
aF1657.372018885251
aF4.117141708474872
aF0.665180157399825
aF0.0016523996655396116
aa(lp468
S'9_10'
p469
ag11
aS'291'
p470
aF1658.6830048693955
aF4.263435180118643
aF0.6646544138667194
aF0.0017084102281036118
aa.