(lp0
(lp1
S'XscanNumber_YscanNumber'
p2
aS'Type'
p3
aS'BCID'
p4
aS'xsec'
p5
aS'xsecErr'
p6
aS'normChange'
p7
aS'normChangeErr'
p8
aa(lp9
S'1_2'
p10
aS'XY'
p11
aS'211'
p12
aF497.7597666823963
aF4.162806232945999
aF-999.0
aF-999.0
aa(lp13
S'1_2'
p14
ag11
aS'2291'
p15
aF497.01959921476185
aF2.8480091183105936
aF-999.0
aF-999.0
aa(lp16
S'1_2'
p17
ag11
aS'2451'
p18
aF489.30238924260505
aF2.651133988050536
aF-999.0
aF-999.0
aa(lp19
S'1_2'
p20
ag11
aS'131'
p21
aF498.2208902226845
aF7.409736765712508
aF-999.0
aF-999.0
aa(lp22
S'1_2'
p23
ag11
aS'1871'
p24
aF490.0316443626427
aF2.981354662070376
aF-999.0
aF-999.0
aa(lp25
S'1_2'
p26
ag11
aS'251'
p27
aF492.60887631548536
aF2.8189132768046474
aF-999.0
aF-999.0
aa(lp28
S'1_2'
p29
ag11
aS'171'
p30
aF487.98288201167577
aF3.2290919481278206
aF-999.0
aF-999.0
aa(lp31
S'1_2'
p32
ag11
aS'1631'
p33
aF496.10890207052233
aF3.3941386126912674
aF-999.0
aF-999.0
aa(lp34
S'1_2'
p35
ag11
aS'1711'
p36
aF488.5090833027628
aF2.8726631978708173
aF-999.0
aF-999.0
aa(lp37
S'1_2'
p38
ag11
aS'1831'
p39
aF493.28497291578896
aF2.97713073590618
aF-999.0
aF-999.0
aa(lp40
S'1_2'
p41
ag11
aS'851'
p42
aF492.3517534026649
aF3.179128832913281
aF-999.0
aF-999.0
aa(lp43
S'1_2'
p44
ag11
aS'971'
p45
aF493.82943463652396
aF3.2700319250424643
aF-999.0
aF-999.0
aa(lp46
S'1_2'
p47
ag11
aS'1'
p48
aF498.77174318093796
aF1.6838951588045372
aF-999.0
aF-999.0
aa(lp49
S'1_2'
p50
ag11
aS'811'
p51
aF492.6722581856451
aF2.6576655462725154
aF-999.0
aF-999.0
aa(lp52
S'1_2'
p53
ag11
aS'931'
p54
aF495.5834541126845
aF2.9343286388112775
aF-999.0
aF-999.0
aa(lp55
S'1_2'
p56
ag11
aS'1671'
p57
aF490.99818799043254
aF2.9025015101507923
aF-999.0
aF-999.0
aa(lp58
S'1_2'
p59
ag11
aS'1751'
p60
aF489.77387606104656
aF3.128759620496359
aF-999.0
aF-999.0
aa(lp61
S'1_2'
p62
ag11
aS'891'
p63
aF495.73068820949777
aF3.1635061794804002
aF-999.0
aF-999.0
aa(lp64
S'1_2'
p65
ag11
aS'771'
p66
aF495.1664086643905
aF2.39143203449517
aF-999.0
aF-999.0
aa(lp67
S'1_2'
p68
ag11
aS'1791'
p69
aF491.57834866064246
aF2.8252596844951734
aF-999.0
aF-999.0
aa(lp70
S'1_2'
p71
ag11
aS'91'
p72
aF493.82119939092894
aF3.039634769319051
aF-999.0
aF-999.0
aa(lp73
S'1_2'
p74
ag11
aS'2331'
p75
aF491.89644946292657
aF2.8500868536033934
aF-999.0
aF-999.0
aa(lp76
S'1_2'
p77
ag11
aS'2211'
p78
aF493.23126192747173
aF2.5254895101844306
aF-999.0
aF-999.0
aa(lp79
S'1_2'
p80
ag11
aS'51'
p81
aF493.3522965921842
aF2.915580889046053
aF-999.0
aF-999.0
aa(lp82
S'1_2'
p83
ag11
aS'1011'
p84
aF494.5661804452559
aF2.8284746508316405
aF-999.0
aF-999.0
aa(lp85
S'1_2'
p86
ag11
aS'2411'
p87
aF490.39021701271224
aF3.025915687967429
aF-999.0
aF-999.0
aa(lp88
S'1_2'
p89
ag11
aS'2674'
p90
aF510.6912081724914
aF3.062421510621539
aF-999.0
aF-999.0
aa(lp91
S'1_2'
p92
ag11
aS'2371'
p93
aF494.0613045926691
aF1.8349567202999577
aF-999.0
aF-999.0
aa(lp94
S'1_2'
p95
ag11
aS'2251'
p96
aF489.54959226433533
aF3.2190634140426244
aF-999.0
aF-999.0
aa(lp97
S'1_2'
p98
ag11
aS'291'
p99
aF493.1161078246334
aF3.177936338864216
aF-999.0
aF-999.0
aa(lp100
S'4_3'
p101
ag11
aS'211'
p102
aF494.14886022164177
aF2.565641396178829
aF-999.0
aF-999.0
aa(lp103
S'4_3'
p104
ag11
aS'2291'
p105
aF495.0009781974977
aF2.6090460586401805
aF-999.0
aF-999.0
aa(lp106
S'4_3'
p107
ag11
aS'2451'
p108
aF491.69447161908454
aF2.9399061012258474
aF-999.0
aF-999.0
aa(lp109
S'4_3'
p110
ag11
aS'131'
p111
aF499.15069326137814
aF8.017072767168354
aF-999.0
aF-999.0
aa(lp112
S'4_3'
p113
ag11
aS'1871'
p114
aF488.66691191052115
aF2.9752452430592475
aF-999.0
aF-999.0
aa(lp115
S'4_3'
p116
ag11
aS'251'
p117
aF489.42213599482403
aF5.327232387708741
aF-999.0
aF-999.0
aa(lp118
S'4_3'
p119
ag11
aS'171'
p120
aF495.09829632847624
aF2.856680222561889
aF-999.0
aF-999.0
aa(lp121
S'4_3'
p122
ag11
aS'1631'
p123
aF499.6797183959509
aF23.22407495681914
aF-999.0
aF-999.0
aa(lp124
S'4_3'
p125
ag11
aS'1711'
p126
aF495.13120292478493
aF3.137166880615804
aF-999.0
aF-999.0
aa(lp127
S'4_3'
p128
ag11
aS'1831'
p129
aF493.63823162638676
aF2.8783378416314362
aF-999.0
aF-999.0
aa(lp130
S'4_3'
p131
ag11
aS'851'
p132
aF490.5665915924662
aF2.8059069163477917
aF-999.0
aF-999.0
aa(lp133
S'4_3'
p134
ag11
aS'971'
p135
aF496.5508329819791
aF3.643573696122465
aF-999.0
aF-999.0
aa(lp136
S'4_3'
p137
ag11
ag48
aF495.9835174087199
aF2.2948638655692037
aF-999.0
aF-999.0
aa(lp138
S'4_3'
p139
ag11
aS'811'
p140
aF493.1386131377868
aF2.4455821736466423
aF-999.0
aF-999.0
aa(lp141
S'4_3'
p142
ag11
aS'931'
p143
aF496.0911482418263
aF5.856091724636624
aF-999.0
aF-999.0
aa(lp144
S'4_3'
p145
ag11
aS'1671'
p146
aF492.43752213037135
aF3.08651057417428
aF-999.0
aF-999.0
aa(lp147
S'4_3'
p148
ag11
aS'1751'
p149
aF493.111622588793
aF3.1902475775412165
aF-999.0
aF-999.0
aa(lp150
S'4_3'
p151
ag11
aS'891'
p152
aF494.11715936700017
aF2.8252289899275183
aF-999.0
aF-999.0
aa(lp153
S'4_3'
p154
ag11
aS'771'
p155
aF497.70369081187334
aF3.263814840594539
aF-999.0
aF-999.0
aa(lp156
S'4_3'
p157
ag11
aS'1791'
p158
aF491.94849739709326
aF2.6049843910749866
aF-999.0
aF-999.0
aa(lp159
S'4_3'
p160
ag11
aS'91'
p161
aF493.6025195008587
aF3.1788496344289157
aF-999.0
aF-999.0
aa(lp162
S'4_3'
p163
ag11
aS'2331'
p164
aF496.8350571361883
aF5.96626878269904
aF-999.0
aF-999.0
aa(lp165
S'4_3'
p166
ag11
aS'2211'
p167
aF499.0042833807095
aF2.388830592677402
aF-999.0
aF-999.0
aa(lp168
S'4_3'
p169
ag11
aS'51'
p170
aF499.63594856873846
aF2.7803407162816853
aF-999.0
aF-999.0
aa(lp171
S'4_3'
p172
ag11
aS'1011'
p173
aF495.04875510381765
aF2.9316413166307043
aF-999.0
aF-999.0
aa(lp174
S'4_3'
p175
ag11
aS'2411'
p176
aF492.80496391064867
aF3.053439759339483
aF-999.0
aF-999.0
aa(lp177
S'4_3'
p178
ag11
aS'2674'
p179
aF510.6559372212497
aF3.1252511662975233
aF-999.0
aF-999.0
aa(lp180
S'4_3'
p181
ag11
aS'2371'
p182
aF493.94584522326244
aF2.0208865266589693
aF-999.0
aF-999.0
aa(lp183
S'4_3'
p184
ag11
aS'2251'
p185
aF491.6585292553499
aF2.8301787905481284
aF-999.0
aF-999.0
aa(lp186
S'4_3'
p187
ag11
aS'291'
p188
aF496.1412463334517
aF5.511996902320681
aF-999.0
aF-999.0
aa(lp189
S'5_6'
p190
ag11
aS'211'
p191
aF494.6278131636965
aF7.267956577806625
aF-999.0
aF-999.0
aa(lp192
S'5_6'
p193
ag11
aS'2291'
p194
aF482.80045104110604
aF4.97299356055117
aF-999.0
aF-999.0
aa(lp195
S'5_6'
p196
ag11
aS'2451'
p197
aF481.47724139275414
aF2.6785898454655697
aF-999.0
aF-999.0
aa(lp198
S'5_6'
p199
ag11
aS'131'
p200
aF480.57567357368316
aF7.76369350134088
aF-999.0
aF-999.0
aa(lp201
S'5_6'
p202
ag11
aS'1871'
p203
aF483.49401768143287
aF3.0856391186601946
aF-999.0
aF-999.0
aa(lp204
S'5_6'
p205
ag11
aS'251'
p206
aF481.9946771209224
aF3.9709725819709547
aF-999.0
aF-999.0
aa(lp207
S'5_6'
p208
ag11
aS'171'
p209
aF485.691550734475
aF2.978345136154328
aF-999.0
aF-999.0
aa(lp210
S'5_6'
p211
ag11
aS'1631'
p212
aF487.00954353385384
aF4.846978681098227
aF-999.0
aF-999.0
aa(lp213
S'5_6'
p214
ag11
aS'1711'
p215
aF483.428524705538
aF3.662961717325899
aF-999.0
aF-999.0
aa(lp216
S'5_6'
p217
ag11
aS'1831'
p218
aF485.29514884262124
aF3.218848931430894
aF-999.0
aF-999.0
aa(lp219
S'5_6'
p220
ag11
aS'851'
p221
aF487.6472024547911
aF3.9066178470837394
aF-999.0
aF-999.0
aa(lp222
S'5_6'
p223
ag11
aS'971'
p224
aF483.01049952809285
aF3.2103140443896145
aF-999.0
aF-999.0
aa(lp225
S'5_6'
p226
ag11
aS'sum'
p227
aF16.31713983762978
aF0.04454275299810979
aF-999.0
aF-999.0
aa(lp228
S'5_6'
p229
ag11
ag48
aF485.53203680792296
aF2.4307227774498146
aF-999.0
aF-999.0
aa(lp230
S'5_6'
p231
ag11
aS'811'
p232
aF487.1112498994438
aF4.036013070325967
aF-999.0
aF-999.0
aa(lp233
S'5_6'
p234
ag11
aS'931'
p235
aF487.67961557538354
aF3.0185071483992556
aF-999.0
aF-999.0
aa(lp236
S'5_6'
p237
ag11
aS'1671'
p238
aF484.82448033017596
aF3.640896289830204
aF-999.0
aF-999.0
aa(lp239
S'5_6'
p240
ag11
aS'1751'
p241
aF487.6935987670722
aF4.218324590621099
aF-999.0
aF-999.0
aa(lp242
S'5_6'
p243
ag11
aS'891'
p244
aF485.16138489747567
aF3.156523891073746
aF-999.0
aF-999.0
aa(lp245
S'5_6'
p246
ag11
aS'771'
p247
aF485.8727780744448
aF2.5493108474801747
aF-999.0
aF-999.0
aa(lp248
S'5_6'
p249
ag11
aS'1791'
p250
aF483.7920634050079
aF2.6636150446712836
aF-999.0
aF-999.0
aa(lp251
S'5_6'
p252
ag11
aS'91'
p253
aF489.1767238551912
aF3.1179232219154653
aF-999.0
aF-999.0
aa(lp254
S'5_6'
p255
ag11
aS'2331'
p256
aF486.13343386169214
aF3.717085472607807
aF-999.0
aF-999.0
aa(lp257
S'5_6'
p258
ag11
aS'2211'
p259
aF486.11060951532534
aF2.6190230147614386
aF-999.0
aF-999.0
aa(lp260
S'5_6'
p261
ag11
aS'51'
p262
aF488.6537558348078
aF2.8657426176148326
aF-999.0
aF-999.0
aa(lp263
S'5_6'
p264
ag11
aS'1011'
p265
aF484.89605502128285
aF2.888873310173262
aF-999.0
aF-999.0
aa(lp266
S'5_6'
p267
ag11
aS'2411'
p268
aF488.0947851796091
aF3.0510457909757327
aF-999.0
aF-999.0
aa(lp269
S'5_6'
p270
ag11
aS'2674'
p271
aF502.6478030288386
aF2.7602223977349842
aF-999.0
aF-999.0
aa(lp272
S'5_6'
p273
ag11
aS'2371'
p274
aF489.56728732590994
aF5.000779787142124
aF-999.0
aF-999.0
aa(lp275
S'5_6'
p276
ag11
aS'2251'
p277
aF485.84256440359235
aF5.699375741311316
aF-999.0
aF-999.0
aa(lp278
S'5_6'
p279
ag11
aS'291'
p280
aF485.2390690849409
aF2.6677969151177563
aF-999.0
aF-999.0
aa(lp281
S'7_8'
p282
ag11
aS'211'
p283
aF494.9183434859739
aF2.415171583188186
aF-999.0
aF-999.0
aa(lp284
S'7_8'
p285
ag11
aS'2291'
p286
aF495.34711028818055
aF3.186665421637525
aF-999.0
aF-999.0
aa(lp287
S'7_8'
p288
ag11
aS'2451'
p289
aF492.6375243407055
aF2.9345488940736306
aF-999.0
aF-999.0
aa(lp290
S'7_8'
p291
ag11
aS'131'
p292
aF497.93646735085304
aF3.1553292385368144
aF-999.0
aF-999.0
aa(lp293
S'7_8'
p294
ag11
aS'1871'
p295
aF488.6404802619897
aF4.209368613930153
aF-999.0
aF-999.0
aa(lp296
S'7_8'
p297
ag11
aS'251'
p298
aF490.45486574214374
aF2.683736138498355
aF-999.0
aF-999.0
aa(lp299
S'7_8'
p300
ag11
aS'171'
p301
aF497.41295586083294
aF2.9629118723851957
aF-999.0
aF-999.0
aa(lp302
S'7_8'
p303
ag11
aS'1631'
p304
aF494.9930951276644
aF2.7104699666951344
aF-999.0
aF-999.0
aa(lp305
S'7_8'
p306
ag11
aS'1711'
p307
aF491.4560281738814
aF3.7461788256749093
aF-999.0
aF-999.0
aa(lp308
S'7_8'
p309
ag11
aS'1831'
p310
aF491.2566670050997
aF2.972397317705458
aF-999.0
aF-999.0
aa(lp311
S'7_8'
p312
ag11
aS'851'
p313
aF493.1080798938075
aF2.600399619356964
aF-999.0
aF-999.0
aa(lp314
S'7_8'
p315
ag11
aS'971'
p316
aF496.8825656047447
aF2.7938465127284773
aF-999.0
aF-999.0
aa(lp317
S'7_8'
p318
ag11
ag48
aF495.5245454154464
aF2.721484693764856
aF-999.0
aF-999.0
aa(lp319
S'7_8'
p320
ag11
aS'811'
p321
aF490.92131071694746
aF2.8834722850711696
aF-999.0
aF-999.0
aa(lp322
S'7_8'
p323
ag11
aS'931'
p324
aF494.3270622597015
aF2.5677990259876857
aF-999.0
aF-999.0
aa(lp325
S'7_8'
p326
ag11
aS'1671'
p327
aF489.43189093173896
aF3.365573811852412
aF-999.0
aF-999.0
aa(lp328
S'7_8'
p329
ag11
aS'1751'
p330
aF488.58104219067576
aF4.688376152714215
aF-999.0
aF-999.0
aa(lp331
S'7_8'
p332
ag11
aS'891'
p333
aF492.701434789381
aF3.679356292681933
aF-999.0
aF-999.0
aa(lp334
S'7_8'
p335
ag11
aS'771'
p336
aF493.45013444141335
aF1.857470627766335
aF-999.0
aF-999.0
aa(lp337
S'7_8'
p338
ag11
aS'1791'
p339
aF494.1317502402195
aF2.515170943540137
aF-999.0
aF-999.0
aa(lp340
S'7_8'
p341
ag11
aS'91'
p342
aF492.91617441077113
aF3.735637774278618
aF-999.0
aF-999.0
aa(lp343
S'7_8'
p344
ag11
aS'2331'
p345
aF486.334945993788
aF4.08825749929109
aF-999.0
aF-999.0
aa(lp346
S'7_8'
p347
ag11
aS'2211'
p348
aF492.6620700961996
aF3.0686277026566393
aF-999.0
aF-999.0
aa(lp349
S'7_8'
p350
ag11
aS'51'
p351
aF492.11370408123565
aF4.07769578041219
aF-999.0
aF-999.0
aa(lp352
S'7_8'
p353
ag11
aS'1011'
p354
aF497.9381760989515
aF6.420139587300111
aF-999.0
aF-999.0
aa(lp355
S'7_8'
p356
ag11
aS'2411'
p357
aF494.1422764792461
aF2.986872241921145
aF-999.0
aF-999.0
aa(lp358
S'7_8'
p359
ag11
aS'2674'
p360
aF506.6941809769139
aF3.5717298271444133
aF-999.0
aF-999.0
aa(lp361
S'7_8'
p362
ag11
aS'2371'
p363
aF497.1769062476092
aF3.4020357017175202
aF-999.0
aF-999.0
aa(lp364
S'7_8'
p365
ag11
aS'2251'
p366
aF494.360685502975
aF3.2039975246279218
aF-999.0
aF-999.0
aa(lp367
S'7_8'
p368
ag11
aS'291'
p369
aF494.26305200835964
aF3.450202476567483
aF-999.0
aF-999.0
aa(lp370
S'9_10'
p371
ag11
aS'211'
p372
aF491.8383310570564
aF2.611843093920095
aF-999.0
aF-999.0
aa(lp373
S'9_10'
p374
ag11
aS'2291'
p375
aF492.26688186203756
aF3.040979592502843
aF-999.0
aF-999.0
aa(lp376
S'9_10'
p377
ag11
aS'2451'
p378
aF493.35262691303757
aF2.930554570051089
aF-999.0
aF-999.0
aa(lp379
S'9_10'
p380
ag11
aS'131'
p381
aF490.6536188856495
aF3.2138699137793094
aF-999.0
aF-999.0
aa(lp382
S'9_10'
p383
ag11
aS'1871'
p384
aF494.30231416682966
aF2.7536875308013005
aF-999.0
aF-999.0
aa(lp385
S'9_10'
p386
ag11
aS'251'
p387
aF491.1375276643554
aF2.7761049796230712
aF-999.0
aF-999.0
aa(lp388
S'9_10'
p389
ag11
aS'171'
p390
aF493.34126641348996
aF3.2245144047268695
aF-999.0
aF-999.0
aa(lp391
S'9_10'
p392
ag11
aS'1631'
p393
aF495.44651839222126
aF2.7586803986986506
aF-999.0
aF-999.0
aa(lp394
S'9_10'
p395
ag11
aS'1711'
p396
aF492.3517530188944
aF3.0880229537290327
aF-999.0
aF-999.0
aa(lp397
S'9_10'
p398
ag11
aS'1831'
p399
aF490.89848481841545
aF3.036208765618013
aF-999.0
aF-999.0
aa(lp400
S'9_10'
p401
ag11
aS'851'
p402
aF490.5535236593147
aF2.8703039748521526
aF-999.0
aF-999.0
aa(lp403
S'9_10'
p404
ag11
aS'971'
p405
aF491.8169088802292
aF3.0648614889743078
aF-999.0
aF-999.0
aa(lp406
S'9_10'
p407
ag11
ag48
aF498.3765489958081
aF4.427506915689979
aF-999.0
aF-999.0
aa(lp408
S'9_10'
p409
ag11
aS'811'
p410
aF490.9989290409532
aF2.5750925672507683
aF-999.0
aF-999.0
aa(lp411
S'9_10'
p412
ag11
aS'931'
p413
aF495.00769334917544
aF2.82679292367655
aF-999.0
aF-999.0
aa(lp414
S'9_10'
p415
ag11
aS'1671'
p416
aF490.5164323711065
aF2.8244600279894425
aF-999.0
aF-999.0
aa(lp417
S'9_10'
p418
ag11
aS'1751'
p419
aF489.5749879596821
aF3.18247560922133
aF-999.0
aF-999.0
aa(lp420
S'9_10'
p421
ag11
aS'891'
p422
aF493.5212846889673
aF2.8742310271361515
aF-999.0
aF-999.0
aa(lp423
S'9_10'
p424
ag11
aS'771'
p425
aF494.40168231170503
aF2.7869360458589925
aF-999.0
aF-999.0
aa(lp426
S'9_10'
p427
ag11
aS'1791'
p428
aF491.7657919124462
aF2.63749121562436
aF-999.0
aF-999.0
aa(lp429
S'9_10'
p430
ag11
aS'91'
p431
aF493.3112523811109
aF2.92307928542426
aF-999.0
aF-999.0
aa(lp432
S'9_10'
p433
ag11
aS'2331'
p434
aF491.39587711745656
aF2.926728645047636
aF-999.0
aF-999.0
aa(lp435
S'9_10'
p436
ag11
aS'2211'
p437
aF491.5597822440863
aF2.41242899226403
aF-999.0
aF-999.0
aa(lp438
S'9_10'
p439
ag11
aS'51'
p440
aF494.7113273873725
aF4.126717217950583
aF-999.0
aF-999.0
aa(lp441
S'9_10'
p442
ag11
aS'1011'
p443
aF493.214143667302
aF3.1508144046557116
aF-999.0
aF-999.0
aa(lp444
S'9_10'
p445
ag11
aS'2411'
p446
aF495.5666908163552
aF2.865494089983995
aF-999.0
aF-999.0
aa(lp447
S'9_10'
p448
ag11
aS'2674'
p449
aF507.7624227706615
aF3.307165901943971
aF-999.0
aF-999.0
aa(lp450
S'9_10'
p451
ag11
aS'2371'
p452
aF494.26682061074615
aF2.558035798520734
aF-999.0
aF-999.0
aa(lp453
S'9_10'
p454
ag11
aS'2251'
p455
aF492.52982479598967
aF3.084375719458194
aF-999.0
aF-999.0
aa(lp456
S'9_10'
p457
ag11
aS'291'
p458
aF490.65417443908746
aF3.3791204206762986
aF-999.0
aF-999.0
aa.